
sdisk2.elf:     file format elf32-avr

Sections:
Idx Name          Size      VMA       LMA       File off  Algn
  0 .data         00000010  00800100  00002a36  00002aca  2**0
                  CONTENTS, ALLOC, LOAD, DATA
  1 .text         00002a36  00000000  00000000  00000094  2**1
                  CONTENTS, ALLOC, LOAD, READONLY, CODE
  2 .bss          00000752  00800110  00800110  00002ada  2**0
                  ALLOC
  3 .stab         00000ffc  00000000  00000000  00002adc  2**2
                  CONTENTS, READONLY, DEBUGGING
  4 .stabstr      00000149  00000000  00000000  00003ad8  2**0
                  CONTENTS, READONLY, DEBUGGING
  5 .debug_aranges 00000020  00000000  00000000  00003c21  2**0
                  CONTENTS, READONLY, DEBUGGING
  6 .debug_pubnames 0000045c  00000000  00000000  00003c41  2**0
                  CONTENTS, READONLY, DEBUGGING
  7 .debug_info   00001cd2  00000000  00000000  0000409d  2**0
                  CONTENTS, READONLY, DEBUGGING
  8 .debug_abbrev 0000029e  00000000  00000000  00005d6f  2**0
                  CONTENTS, READONLY, DEBUGGING
  9 .debug_line   000021f4  00000000  00000000  0000600d  2**0
                  CONTENTS, READONLY, DEBUGGING
 10 .debug_frame  00000270  00000000  00000000  00008204  2**2
                  CONTENTS, READONLY, DEBUGGING
 11 .debug_str    00000558  00000000  00000000  00008474  2**0
                  CONTENTS, READONLY, DEBUGGING
 12 .debug_loc    00001d79  00000000  00000000  000089cc  2**0
                  CONTENTS, READONLY, DEBUGGING
 13 .debug_pubtypes 00000055  00000000  00000000  0000a745  2**0
                  CONTENTS, READONLY, DEBUGGING
 14 .debug_ranges 00000178  00000000  00000000  0000a79a  2**0
                  CONTENTS, READONLY, DEBUGGING

Disassembly of section .text:

00000000 <__vectors>:
       0:	0c 94 a2 00 	jmp	0x144	; 0x144 <__ctors_end>
       4:	0c 94 81 14 	jmp	0x2902	; 0x2902 <__vector_1>
       8:	0c 94 bf 00 	jmp	0x17e	; 0x17e <__bad_interrupt>
       c:	0c 94 bf 00 	jmp	0x17e	; 0x17e <__bad_interrupt>
      10:	0c 94 bf 00 	jmp	0x17e	; 0x17e <__bad_interrupt>
      14:	0c 94 bf 00 	jmp	0x17e	; 0x17e <__bad_interrupt>
      18:	0c 94 bf 00 	jmp	0x17e	; 0x17e <__bad_interrupt>
      1c:	0c 94 bf 00 	jmp	0x17e	; 0x17e <__bad_interrupt>
      20:	0c 94 bf 00 	jmp	0x17e	; 0x17e <__bad_interrupt>
      24:	0c 94 bf 00 	jmp	0x17e	; 0x17e <__bad_interrupt>
      28:	0c 94 bf 00 	jmp	0x17e	; 0x17e <__bad_interrupt>
      2c:	0c 94 bf 00 	jmp	0x17e	; 0x17e <__bad_interrupt>
      30:	0c 94 bf 00 	jmp	0x17e	; 0x17e <__bad_interrupt>
      34:	0c 94 bf 00 	jmp	0x17e	; 0x17e <__bad_interrupt>
      38:	0c 94 bf 00 	jmp	0x17e	; 0x17e <__bad_interrupt>
      3c:	0c 94 bf 00 	jmp	0x17e	; 0x17e <__bad_interrupt>
      40:	0c 94 37 14 	jmp	0x286e	; 0x286e <__vector_16>
      44:	0c 94 bf 00 	jmp	0x17e	; 0x17e <__bad_interrupt>
      48:	0c 94 bf 00 	jmp	0x17e	; 0x17e <__bad_interrupt>
      4c:	0c 94 bf 00 	jmp	0x17e	; 0x17e <__bad_interrupt>
      50:	0c 94 bf 00 	jmp	0x17e	; 0x17e <__bad_interrupt>
      54:	0c 94 bf 00 	jmp	0x17e	; 0x17e <__bad_interrupt>
      58:	0c 94 bf 00 	jmp	0x17e	; 0x17e <__bad_interrupt>
      5c:	0c 94 bf 00 	jmp	0x17e	; 0x17e <__bad_interrupt>
      60:	0c 94 bf 00 	jmp	0x17e	; 0x17e <__bad_interrupt>
      64:	0c 94 bf 00 	jmp	0x17e	; 0x17e <__bad_interrupt>

00000068 <stepper_table>:
      68:	0f ed 03 21                                         ...!

0000006c <encTable>:
      6c:	96 97 9a 9b 9d 9e 9f a6 a7 ab ac ad ae af b2 b3     ................
      7c:	b4 b5 b6 b7 b9 ba bb bc bd be bf cb cd ce cf d3     ................
      8c:	d6 d7 d9 da db dc dd de df e5 e6 e7 e9 ea eb ec     ................
      9c:	ed ee ef f2 f3 f4 f5 f6 f7 f9 fa fb fc fd fe ff     ................

000000ac <physicalSector>:
      ac:	00 0d 0b 09 07 05 03 01 0e 0c 0a 08 06 04 02 0f     ................

000000bc <FlipBit>:
      bc:	00 02 01 03                                         ....

000000c0 <FlipBit1>:
      c0:	00 02 01 03                                         ....

000000c4 <FlipBit2>:
      c4:	00 08 04 0c                                         ....

000000c8 <FlipBit3>:
      c8:	00 20 10 30                                         . .0

000000cc <MSG1>:
      cc:	20 20 20 53 44 49 53 4b 32 20 4c 43 44 20 20 20        SDISK2 LCD   
      dc:	00                                                  .

000000dd <MSG2>:
      dd:	20 62 79 20 41 70 70 6c 65 20 49 49 20 42 52 20      by Apple II BR 
      ed:	00                                                  .

000000ee <MSG3>:
      ee:	4d 6f 75 6e 74 65 64 20 00                          Mounted .

000000f7 <MSG4>:
      f7:	20 44 69 73 6b 20 3a 20 00                           Disk : .

00000100 <MSG5>:
     100:	4c 6f 61 64 20 20 20 44 69 72 65 63 74 6f 72 79     Load   Directory
     110:	00                                                  .

00000111 <MSG6>:
     111:	53 65 6c 65 63 74 20 61 20 44 69 73 6b 20 3a 20     Select a Disk : 
     121:	00                                                  .

00000122 <MSG7>:
     122:	4c 6f 61 64 69 6e 67 20 2e 2e 2e 2e 2e 2e 2e 2e     Loading ........
     132:	00                                                  .

00000133 <MSG8>:
     133:	20 20 20 4e 6f 20 53 44 20 43 61 72 64 20 20 20        No SD Card   
     143:	00                                                  .

00000144 <__ctors_end>:
     144:	11 24       	eor	r1, r1
     146:	1f be       	out	0x3f, r1	; 63
     148:	cf ef       	ldi	r28, 0xFF	; 255
     14a:	d8 e0       	ldi	r29, 0x08	; 8
     14c:	de bf       	out	0x3e, r29	; 62
     14e:	cd bf       	out	0x3d, r28	; 61

00000150 <__do_copy_data>:
     150:	11 e0       	ldi	r17, 0x01	; 1
     152:	a0 e0       	ldi	r26, 0x00	; 0
     154:	b1 e0       	ldi	r27, 0x01	; 1
     156:	e6 e3       	ldi	r30, 0x36	; 54
     158:	fa e2       	ldi	r31, 0x2A	; 42
     15a:	02 c0       	rjmp	.+4      	; 0x160 <__do_copy_data+0x10>
     15c:	05 90       	lpm	r0, Z+
     15e:	0d 92       	st	X+, r0
     160:	a0 31       	cpi	r26, 0x10	; 16
     162:	b1 07       	cpc	r27, r17
     164:	d9 f7       	brne	.-10     	; 0x15c <__do_copy_data+0xc>

00000166 <__do_clear_bss>:
     166:	18 e0       	ldi	r17, 0x08	; 8
     168:	a0 e1       	ldi	r26, 0x10	; 16
     16a:	b1 e0       	ldi	r27, 0x01	; 1
     16c:	01 c0       	rjmp	.+2      	; 0x170 <.do_clear_bss_start>

0000016e <.do_clear_bss_loop>:
     16e:	1d 92       	st	X+, r1

00000170 <.do_clear_bss_start>:
     170:	a2 36       	cpi	r26, 0x62	; 98
     172:	b1 07       	cpc	r27, r17
     174:	e1 f7       	brne	.-8      	; 0x16e <.do_clear_bss_loop>
     176:	0e 94 1a 12 	call	0x2434	; 0x2434 <main>
     17a:	0c 94 19 15 	jmp	0x2a32	; 0x2a32 <_exit>

0000017e <__bad_interrupt>:
     17e:	0c 94 00 00 	jmp	0	; 0x0 <__vectors>

00000182 <lcd_port>:

/* Rotinas para o LCD */
// ------------------------------------
void lcd_port(unsigned char c)
{
	LCD_DISABLE;
     182:	45 98       	cbi	0x08, 5	; 8
	if (c & 0x01) PORTC |= _BV(1); else PORTC &=~_BV(1);
     184:	80 ff       	sbrs	r24, 0
     186:	15 c0       	rjmp	.+42     	; 0x1b2 <lcd_port+0x30>
     188:	41 9a       	sbi	0x08, 1	; 8
	if (c & 0x02) PORTC |= _BV(3); else PORTC &=~_BV(3);
     18a:	81 ff       	sbrs	r24, 1
     18c:	15 c0       	rjmp	.+42     	; 0x1b8 <lcd_port+0x36>
     18e:	43 9a       	sbi	0x08, 3	; 8
	if (c & 0x04) PORTD |= _BV(4); else PORTD &=~_BV(4);
     190:	82 ff       	sbrs	r24, 2
     192:	15 c0       	rjmp	.+42     	; 0x1be <lcd_port+0x3c>
     194:	5c 9a       	sbi	0x0b, 4	; 11
	if (c & 0x08) PORTD |= _BV(5); else PORTD &=~_BV(5);
     196:	83 fd       	sbrc	r24, 3
     198:	15 c0       	rjmp	.+42     	; 0x1c4 <lcd_port+0x42>
     19a:	5d 98       	cbi	0x0b, 5	; 11
	LCD_ENABLE;
     19c:	45 9a       	sbi	0x08, 5	; 8
	#else
		//round up by default
		__ticks_dc = (uint32_t)(ceil(fabs(__tmp)));
	#endif

	__builtin_avr_delay_cycles(__ticks_dc);
     19e:	88 e0       	ldi	r24, 0x08	; 8
     1a0:	8a 95       	dec	r24
     1a2:	f1 f7       	brne	.-4      	; 0x1a0 <lcd_port+0x1e>
     1a4:	00 00       	nop
	_delay_us(1);
	LCD_DISABLE;
     1a6:	45 98       	cbi	0x08, 5	; 8
     1a8:	88 e0       	ldi	r24, 0x08	; 8
     1aa:	8a 95       	dec	r24
     1ac:	f1 f7       	brne	.-4      	; 0x1aa <lcd_port+0x28>
     1ae:	00 00       	nop
	_delay_us(1);
}
     1b0:	08 95       	ret
/* Rotinas para o LCD */
// ------------------------------------
void lcd_port(unsigned char c)
{
	LCD_DISABLE;
	if (c & 0x01) PORTC |= _BV(1); else PORTC &=~_BV(1);
     1b2:	41 98       	cbi	0x08, 1	; 8
	if (c & 0x02) PORTC |= _BV(3); else PORTC &=~_BV(3);
     1b4:	81 fd       	sbrc	r24, 1
     1b6:	eb cf       	rjmp	.-42     	; 0x18e <lcd_port+0xc>
     1b8:	43 98       	cbi	0x08, 3	; 8
	if (c & 0x04) PORTD |= _BV(4); else PORTD &=~_BV(4);
     1ba:	82 fd       	sbrc	r24, 2
     1bc:	eb cf       	rjmp	.-42     	; 0x194 <lcd_port+0x12>
     1be:	5c 98       	cbi	0x0b, 4	; 11
	if (c & 0x08) PORTD |= _BV(5); else PORTD &=~_BV(5);
     1c0:	83 ff       	sbrs	r24, 3
     1c2:	eb cf       	rjmp	.-42     	; 0x19a <lcd_port+0x18>
     1c4:	5d 9a       	sbi	0x0b, 5	; 11
     1c6:	ea cf       	rjmp	.-44     	; 0x19c <lcd_port+0x1a>

000001c8 <lcd_cmd>:
	_delay_us(1);
}

// ------------------------------------
void lcd_cmd(unsigned char c)
{
     1c8:	1f 93       	push	r17
     1ca:	18 2f       	mov	r17, r24
	PORTD |= _BV(1);	// SD CS=1 - SD Desabilitado
     1cc:	59 9a       	sbi	0x0b, 1	; 11
	LCD_INSTRUCTION;
     1ce:	44 98       	cbi	0x08, 4	; 8
	lcd_port(c >> 4);
     1d0:	82 95       	swap	r24
     1d2:	8f 70       	andi	r24, 0x0F	; 15
     1d4:	0e 94 c1 00 	call	0x182	; 0x182 <lcd_port>
	lcd_port(c & 0x0F);
     1d8:	81 2f       	mov	r24, r17
     1da:	8f 70       	andi	r24, 0x0F	; 15
     1dc:	0e 94 c1 00 	call	0x182	; 0x182 <lcd_port>
	if (c & 0xFC)
     1e0:	1c 7f       	andi	r17, 0xFC	; 252
     1e2:	41 f4       	brne	.+16     	; 0x1f4 <lcd_cmd+0x2c>
     1e4:	80 e8       	ldi	r24, 0x80	; 128
     1e6:	99 e2       	ldi	r25, 0x29	; 41
     1e8:	01 97       	sbiw	r24, 0x01	; 1
     1ea:	f1 f7       	brne	.-4      	; 0x1e8 <lcd_cmd+0x20>
     1ec:	00 c0       	rjmp	.+0      	; 0x1ee <lcd_cmd+0x26>
     1ee:	00 00       	nop
		_delay_us(60);		// espera 60uS para outros comandos
	else
		_delay_us(1700);	// espera 1,7ms para comandos 0x01 e 0x02
}
     1f0:	1f 91       	pop	r17
     1f2:	08 95       	ret
     1f4:	86 e7       	ldi	r24, 0x76	; 118
     1f6:	91 e0       	ldi	r25, 0x01	; 1
     1f8:	01 97       	sbiw	r24, 0x01	; 1
     1fa:	f1 f7       	brne	.-4      	; 0x1f8 <lcd_cmd+0x30>
     1fc:	00 c0       	rjmp	.+0      	; 0x1fe <lcd_cmd+0x36>
     1fe:	00 00       	nop
     200:	1f 91       	pop	r17
     202:	08 95       	ret

00000204 <lcd_data>:

// ------------------------------------
void lcd_data(unsigned char c)
{
     204:	1f 93       	push	r17
     206:	18 2f       	mov	r17, r24
	PORTD |= _BV(1);	// SD CS=1 - SD Desabilitado
     208:	59 9a       	sbi	0x0b, 1	; 11
	LCD_DATA;
     20a:	44 9a       	sbi	0x08, 4	; 8
	lcd_port(c >> 4);
     20c:	82 95       	swap	r24
     20e:	8f 70       	andi	r24, 0x0F	; 15
     210:	0e 94 c1 00 	call	0x182	; 0x182 <lcd_port>
	lcd_port(c & 0x0F);
     214:	81 2f       	mov	r24, r17
     216:	8f 70       	andi	r24, 0x0F	; 15
     218:	0e 94 c1 00 	call	0x182	; 0x182 <lcd_port>
     21c:	80 e7       	ldi	r24, 0x70	; 112
     21e:	92 e0       	ldi	r25, 0x02	; 2
     220:	01 97       	sbiw	r24, 0x01	; 1
     222:	f1 f7       	brne	.-4      	; 0x220 <lcd_data+0x1c>
     224:	00 c0       	rjmp	.+0      	; 0x226 <lcd_data+0x22>
     226:	00 00       	nop
	_delay_us(100);			// 100uS para dados
}
     228:	1f 91       	pop	r17
     22a:	08 95       	ret

0000022c <lcd_init>:

// LCD init
void lcd_init()
{
	LCD_INSTRUCTION;
     22c:	44 98       	cbi	0x08, 4	; 8
	#else
		//round up by default
		__ticks_dc = (uint32_t)(ceil(fabs(__tmp)));
	#endif

	__builtin_avr_delay_cycles(__ticks_dc);
     22e:	8f e8       	ldi	r24, 0x8F	; 143
     230:	90 ed       	ldi	r25, 0xD0	; 208
     232:	a3 e0       	ldi	r26, 0x03	; 3
     234:	81 50       	subi	r24, 0x01	; 1
     236:	90 40       	sbci	r25, 0x00	; 0
     238:	a0 40       	sbci	r26, 0x00	; 0
     23a:	e1 f7       	brne	.-8      	; 0x234 <lcd_init+0x8>
     23c:	00 c0       	rjmp	.+0      	; 0x23e <lcd_init+0x12>
     23e:	00 00       	nop
	_delay_ms(50);
	lcd_port(0x03);
     240:	83 e0       	ldi	r24, 0x03	; 3
     242:	0e 94 c1 00 	call	0x182	; 0x182 <lcd_port>
     246:	a1 e1       	ldi	r26, 0x11	; 17
     248:	ba e7       	ldi	r27, 0x7A	; 122
     24a:	11 97       	sbiw	r26, 0x01	; 1
     24c:	f1 f7       	brne	.-4      	; 0x24a <lcd_init+0x1e>
     24e:	00 c0       	rjmp	.+0      	; 0x250 <lcd_init+0x24>
     250:	00 00       	nop
	_delay_ms(5);
	lcd_port(0x03);
     252:	83 e0       	ldi	r24, 0x03	; 3
     254:	0e 94 c1 00 	call	0x182	; 0x182 <lcd_port>
     258:	81 e1       	ldi	r24, 0x11	; 17
     25a:	9a e7       	ldi	r25, 0x7A	; 122
     25c:	01 97       	sbiw	r24, 0x01	; 1
     25e:	f1 f7       	brne	.-4      	; 0x25c <lcd_init+0x30>
     260:	00 c0       	rjmp	.+0      	; 0x262 <lcd_init+0x36>
     262:	00 00       	nop
	_delay_ms(5);
	lcd_port(0x03);
     264:	83 e0       	ldi	r24, 0x03	; 3
     266:	0e 94 c1 00 	call	0x182	; 0x182 <lcd_port>
     26a:	a1 e1       	ldi	r26, 0x11	; 17
     26c:	ba e7       	ldi	r27, 0x7A	; 122
     26e:	11 97       	sbiw	r26, 0x01	; 1
     270:	f1 f7       	brne	.-4      	; 0x26e <lcd_init+0x42>
     272:	00 c0       	rjmp	.+0      	; 0x274 <lcd_init+0x48>
     274:	00 00       	nop
	_delay_ms(5);
	lcd_port(0x02);
     276:	82 e0       	ldi	r24, 0x02	; 2
     278:	0e 94 c1 00 	call	0x182	; 0x182 <lcd_port>
     27c:	81 e1       	ldi	r24, 0x11	; 17
     27e:	9a e7       	ldi	r25, 0x7A	; 122
     280:	01 97       	sbiw	r24, 0x01	; 1
     282:	f1 f7       	brne	.-4      	; 0x280 <lcd_init+0x54>
     284:	00 c0       	rjmp	.+0      	; 0x286 <lcd_init+0x5a>
     286:	00 00       	nop
	_delay_ms(5);
	lcd_cmd(0x28);		// 4 bits, 2 linhas
     288:	88 e2       	ldi	r24, 0x28	; 40
     28a:	0e 94 e4 00 	call	0x1c8	; 0x1c8 <lcd_cmd>
	lcd_cmd(0x08);		// display off
     28e:	88 e0       	ldi	r24, 0x08	; 8
     290:	0e 94 e4 00 	call	0x1c8	; 0x1c8 <lcd_cmd>
	lcd_cmd(0x01);		// clear
     294:	81 e0       	ldi	r24, 0x01	; 1
     296:	0e 94 e4 00 	call	0x1c8	; 0x1c8 <lcd_cmd>
	lcd_cmd(0x02);		// home
     29a:	82 e0       	ldi	r24, 0x02	; 2
     29c:	0e 94 e4 00 	call	0x1c8	; 0x1c8 <lcd_cmd>
	lcd_cmd(0x06);		// Cursor incrementa para direita
     2a0:	86 e0       	ldi	r24, 0x06	; 6
     2a2:	0e 94 e4 00 	call	0x1c8	; 0x1c8 <lcd_cmd>
	lcd_cmd(0x0C);		// Display on, cursor off
     2a6:	8c e0       	ldi	r24, 0x0C	; 12
     2a8:	0e 94 e4 00 	call	0x1c8	; 0x1c8 <lcd_cmd>
}
     2ac:	08 95       	ret

000002ae <lcd_clear>:

// clear lcd
void lcd_clear()
{
	lcd_cmd(0x01);		// clear
     2ae:	81 e0       	ldi	r24, 0x01	; 1
     2b0:	0e 94 e4 00 	call	0x1c8	; 0x1c8 <lcd_cmd>
	lcd_cmd(0x02);		// home
     2b4:	82 e0       	ldi	r24, 0x02	; 2
     2b6:	0e 94 e4 00 	call	0x1c8	; 0x1c8 <lcd_cmd>
}
     2ba:	08 95       	ret

000002bc <lcd_gotoxy>:

// Goto X,Y
void lcd_gotoxy(unsigned char x, unsigned char y) {
	x &= 0x0F;
     2bc:	8f 70       	andi	r24, 0x0F	; 15
	y &= 0x01;
	if (y == 0)
     2be:	60 ff       	sbrs	r22, 0
     2c0:	04 c0       	rjmp	.+8      	; 0x2ca <lcd_gotoxy+0xe>
		lcd_cmd(0x80 + x);
	else
		lcd_cmd(0xC0 + x);
     2c2:	80 54       	subi	r24, 0x40	; 64
     2c4:	0e 94 e4 00 	call	0x1c8	; 0x1c8 <lcd_cmd>
     2c8:	08 95       	ret
// Goto X,Y
void lcd_gotoxy(unsigned char x, unsigned char y) {
	x &= 0x0F;
	y &= 0x01;
	if (y == 0)
		lcd_cmd(0x80 + x);
     2ca:	80 58       	subi	r24, 0x80	; 128
     2cc:	0e 94 e4 00 	call	0x1c8	; 0x1c8 <lcd_cmd>
     2d0:	08 95       	ret

000002d2 <lcd_char>:

// output a character on LCD
void lcd_char(unsigned char c)
{
	//if (c == '~') c = ' ';
	lcd_data(c);
     2d2:	0e 94 02 01 	call	0x204	; 0x204 <lcd_data>
}
     2d6:	08 95       	ret

000002d8 <lcd_puts>:

/******************************************************************************/
void lcd_puts(const char *str) {
     2d8:	cf 93       	push	r28
     2da:	df 93       	push	r29
     2dc:	ec 01       	movw	r28, r24
	register char c;

	while( (c = *(str++)))
     2de:	88 81       	ld	r24, Y
     2e0:	88 23       	and	r24, r24
     2e2:	31 f0       	breq	.+12     	; 0x2f0 <lcd_puts+0x18>
     2e4:	21 96       	adiw	r28, 0x01	; 1

// output a character on LCD
void lcd_char(unsigned char c)
{
	//if (c == '~') c = ' ';
	lcd_data(c);
     2e6:	0e 94 02 01 	call	0x204	; 0x204 <lcd_data>

/******************************************************************************/
void lcd_puts(const char *str) {
	register char c;

	while( (c = *(str++)))
     2ea:	89 91       	ld	r24, Y+
     2ec:	88 23       	and	r24, r24
     2ee:	d9 f7       	brne	.-10     	; 0x2e6 <lcd_puts+0xe>
		lcd_char(c);
}
     2f0:	df 91       	pop	r29
     2f2:	cf 91       	pop	r28
     2f4:	08 95       	ret

000002f6 <lcd_puts_p>:

/******************************************************************************/
void lcd_puts_p(prog_char *progmem_s) {
     2f6:	cf 93       	push	r28
     2f8:	df 93       	push	r29
     2fa:	ec 01       	movw	r28, r24
    register char c;

    while ( (c = pgm_read_byte(progmem_s++)) ) {
     2fc:	fc 01       	movw	r30, r24
     2fe:	84 91       	lpm	r24, Z+
     300:	88 23       	and	r24, r24
     302:	41 f0       	breq	.+16     	; 0x314 <lcd_puts_p+0x1e>
     304:	21 96       	adiw	r28, 0x01	; 1

// output a character on LCD
void lcd_char(unsigned char c)
{
	//if (c == '~') c = ' ';
	lcd_data(c);
     306:	0e 94 02 01 	call	0x204	; 0x204 <lcd_data>
     30a:	fe 01       	movw	r30, r28

/******************************************************************************/
void lcd_puts_p(prog_char *progmem_s) {
    register char c;

    while ( (c = pgm_read_byte(progmem_s++)) ) {
     30c:	21 96       	adiw	r28, 0x01	; 1
     30e:	84 91       	lpm	r24, Z+
     310:	88 23       	and	r24, r24
     312:	c9 f7       	brne	.-14     	; 0x306 <lcd_puts_p+0x10>
    	lcd_char(c);
    }

}
     314:	df 91       	pop	r29
     316:	cf 91       	pop	r28
     318:	08 95       	ret

0000031a <dispStr>:
/******************************************************************************/
// display a 8-byte string to LCD
void dispStr(char *str, unsigned char f)
{
     31a:	1f 93       	push	r17
     31c:	cf 93       	push	r28
     31e:	df 93       	push	r29
     320:	ec 01       	movw	r28, r24
	unsigned char i;
	if (f==0) {
     322:	66 23       	and	r22, r22
     324:	a1 f4       	brne	.+40     	; 0x34e <dispStr+0x34>
		lcd_clear();
     326:	0e 94 57 01 	call	0x2ae	; 0x2ae <lcd_clear>
		lcd_gotoxy(0, 1);	// Linha 2, coluna 1
     32a:	80 e0       	ldi	r24, 0x00	; 0
     32c:	61 e0       	ldi	r22, 0x01	; 1
     32e:	0e 94 5e 01 	call	0x2bc	; 0x2bc <lcd_gotoxy>
		lcd_puts_p(MSG3);
     332:	8e ee       	ldi	r24, 0xEE	; 238
     334:	90 e0       	ldi	r25, 0x00	; 0
     336:	0e 94 7b 01 	call	0x2f6	; 0x2f6 <lcd_puts_p>

}
/******************************************************************************/
// display a 8-byte string to LCD
void dispStr(char *str, unsigned char f)
{
     33a:	18 e0       	ldi	r17, 0x08	; 8

// output a character on LCD
void lcd_char(unsigned char c)
{
	//if (c == '~') c = ' ';
	lcd_data(c);
     33c:	89 91       	ld	r24, Y+
     33e:	0e 94 02 01 	call	0x204	; 0x204 <lcd_data>
     342:	11 50       	subi	r17, 0x01	; 1
		lcd_puts_p(MSG3);
	} else {
		lcd_gotoxy(0, 1);	// Linha 2, coluna 1
		lcd_puts_p(MSG4);
	}
	for (i = 0; i != 8; i++)
     344:	d9 f7       	brne	.-10     	; 0x33c <dispStr+0x22>
		lcd_char(*(str++));
}
     346:	df 91       	pop	r29
     348:	cf 91       	pop	r28
     34a:	1f 91       	pop	r17
     34c:	08 95       	ret
	if (f==0) {
		lcd_clear();
		lcd_gotoxy(0, 1);	// Linha 2, coluna 1
		lcd_puts_p(MSG3);
	} else {
		lcd_gotoxy(0, 1);	// Linha 2, coluna 1
     34e:	80 e0       	ldi	r24, 0x00	; 0
     350:	61 e0       	ldi	r22, 0x01	; 1
     352:	0e 94 5e 01 	call	0x2bc	; 0x2bc <lcd_gotoxy>
		lcd_puts_p(MSG4);
     356:	87 ef       	ldi	r24, 0xF7	; 247
     358:	90 e0       	ldi	r25, 0x00	; 0
     35a:	0e 94 7b 01 	call	0x2f6	; 0x2f6 <lcd_puts_p>
     35e:	ed cf       	rjmp	.-38     	; 0x33a <dispStr+0x20>

00000360 <buffClear>:
}

/**************************************************************************/

// buffer clear
void buffClear(void)
     360:	20 e0       	ldi	r18, 0x00	; 0
     362:	30 e0       	ldi	r19, 0x00	; 0
     364:	4e e5       	ldi	r20, 0x5E	; 94
     366:	51 e0       	ldi	r21, 0x01	; 1
     368:	24 9f       	mul	r18, r20
     36a:	f0 01       	movw	r30, r0
     36c:	25 9f       	mul	r18, r21
     36e:	f0 0d       	add	r31, r0
     370:	34 9f       	mul	r19, r20
     372:	f0 0d       	add	r31, r0
     374:	11 24       	eor	r1, r1
     376:	e0 5e       	subi	r30, 0xE0	; 224
     378:	fe 4f       	sbci	r31, 0xFE	; 254
     37a:	80 e0       	ldi	r24, 0x00	; 0
     37c:	90 e0       	ldi	r25, 0x00	; 0
	unsigned char i;
	unsigned short j;
	
	for (i=0; i<BUF_NUM; i++)
		for (j=0; j<350; j++)
			writeData[i][j]=0;
     37e:	11 92       	st	Z+, r1
{
	unsigned char i;
	unsigned short j;
	
	for (i=0; i<BUF_NUM; i++)
		for (j=0; j<350; j++)
     380:	01 96       	adiw	r24, 0x01	; 1
     382:	61 e0       	ldi	r22, 0x01	; 1
     384:	8e 35       	cpi	r24, 0x5E	; 94
     386:	96 07       	cpc	r25, r22
     388:	d1 f7       	brne	.-12     	; 0x37e <buffClear+0x1e>
     38a:	2f 5f       	subi	r18, 0xFF	; 255
     38c:	3f 4f       	sbci	r19, 0xFF	; 255
void buffClear(void)
{
	unsigned char i;
	unsigned short j;
	
	for (i=0; i<BUF_NUM; i++)
     38e:	25 30       	cpi	r18, 0x05	; 5
     390:	31 05       	cpc	r19, r1
     392:	51 f7       	brne	.-44     	; 0x368 <buffClear+0x8>
		for (j=0; j<350; j++)
			writeData[i][j]=0;
	for (i=0; i<BUF_NUM; i++)
		sectors[i]=tracks[i]=0xff;
     394:	8f ef       	ldi	r24, 0xFF	; 255
     396:	80 93 1a 01 	sts	0x011A, r24
     39a:	80 93 13 01 	sts	0x0113, r24
     39e:	80 93 1b 01 	sts	0x011B, r24
     3a2:	80 93 14 01 	sts	0x0114, r24
     3a6:	80 93 1c 01 	sts	0x011C, r24
     3aa:	80 93 15 01 	sts	0x0115, r24
     3ae:	80 93 1d 01 	sts	0x011D, r24
     3b2:	80 93 16 01 	sts	0x0116, r24
     3b6:	80 93 1e 01 	sts	0x011E, r24
     3ba:	80 93 17 01 	sts	0x0117, r24
}
     3be:	08 95       	ret

000003c0 <cancelRead>:
/******************************************************************************/
// cancel read from the SD card
void cancelRead(void)
{
	unsigned short i;
	if (bitbyte < (402 * 8)) {
     3c0:	80 91 fa 07 	lds	r24, 0x07FA
     3c4:	90 91 fb 07 	lds	r25, 0x07FB
     3c8:	2c e0       	ldi	r18, 0x0C	; 12
     3ca:	80 39       	cpi	r24, 0x90	; 144
     3cc:	92 07       	cpc	r25, r18
     3ce:	d0 f4       	brcc	.+52     	; 0x404 <cancelRead+0x44>
		PORTD = NCLK_DINCS;
     3d0:	20 ed       	ldi	r18, 0xD0	; 208
     3d2:	2b b9       	out	0x0b, r18	; 11
		for (i = bitbyte; i < (514 * 8); i++) {		// 512 bytes + 2 CRC
     3d4:	40 e1       	ldi	r20, 0x10	; 16
     3d6:	80 31       	cpi	r24, 0x10	; 16
     3d8:	94 07       	cpc	r25, r20
     3da:	70 f4       	brcc	.+28     	; 0x3f8 <cancelRead+0x38>
			if (bit_is_set(PIND, 3)) return;
     3dc:	4b 99       	sbic	0x09, 3	; 9
     3de:	14 c0       	rjmp	.+40     	; 0x408 <cancelRead+0x48>
			PORTD = _CLK_DINCS;
     3e0:	30 ef       	ldi	r19, 0xF0	; 240
			PORTD = NCLK_DINCS;
     3e2:	20 ed       	ldi	r18, 0xD0	; 208
     3e4:	02 c0       	rjmp	.+4      	; 0x3ea <cancelRead+0x2a>
{
	unsigned short i;
	if (bitbyte < (402 * 8)) {
		PORTD = NCLK_DINCS;
		for (i = bitbyte; i < (514 * 8); i++) {		// 512 bytes + 2 CRC
			if (bit_is_set(PIND, 3)) return;
     3e6:	4b 99       	sbic	0x09, 3	; 9
     3e8:	0e c0       	rjmp	.+28     	; 0x406 <cancelRead+0x46>
			PORTD = _CLK_DINCS;
     3ea:	3b b9       	out	0x0b, r19	; 11
			PORTD = NCLK_DINCS;
     3ec:	2b b9       	out	0x0b, r18	; 11
void cancelRead(void)
{
	unsigned short i;
	if (bitbyte < (402 * 8)) {
		PORTD = NCLK_DINCS;
		for (i = bitbyte; i < (514 * 8); i++) {		// 512 bytes + 2 CRC
     3ee:	01 96       	adiw	r24, 0x01	; 1
     3f0:	40 e1       	ldi	r20, 0x10	; 16
     3f2:	80 31       	cpi	r24, 0x10	; 16
     3f4:	94 07       	cpc	r25, r20
     3f6:	b8 f3       	brcs	.-18     	; 0x3e6 <cancelRead+0x26>
			if (bit_is_set(PIND, 3)) return;
			PORTD = _CLK_DINCS;
			PORTD = NCLK_DINCS;
		}
		bitbyte = 402 * 8;
     3f8:	80 e9       	ldi	r24, 0x90	; 144
     3fa:	9c e0       	ldi	r25, 0x0C	; 12
     3fc:	90 93 fb 07 	sts	0x07FB, r25
     400:	80 93 fa 07 	sts	0x07FA, r24
     404:	08 95       	ret
     406:	08 95       	ret
     408:	08 95       	ret

0000040a <writeByteSlow>:
}

/******************************************************************************/
// write a byte data to the SD card
void writeByteSlow(unsigned char c)
{
     40a:	cf 92       	push	r12
     40c:	df 92       	push	r13
     40e:	ef 92       	push	r14
     410:	ff 92       	push	r15
     412:	0f 93       	push	r16
     414:	1f 93       	push	r17
     416:	cf 93       	push	r28
     418:	df 93       	push	r29
     41a:	08 2f       	mov	r16, r24
     41c:	c8 e0       	ldi	r28, 0x08	; 8
     41e:	d0 e0       	ldi	r29, 0x00	; 0
	unsigned char d;
	for (d = 0b10000000; d; d >>= 1) {
     420:	10 e8       	ldi	r17, 0x80	; 128
		if (c & d) {
			PORTD = NCLK_DINCS;
			wait5(WAIT);
			PORTD = _CLK_DINCS;
		} else {
			PORTD = NCLKNDINCS;
     422:	30 ec       	ldi	r19, 0xC0	; 192
     424:	c3 2e       	mov	r12, r19
			wait5(WAIT);
			PORTD = _CLKNDINCS;
     426:	20 ee       	ldi	r18, 0xE0	; 224
     428:	d2 2e       	mov	r13, r18
void writeByteSlow(unsigned char c)
{
	unsigned char d;
	for (d = 0b10000000; d; d >>= 1) {
		if (c & d) {
			PORTD = NCLK_DINCS;
     42a:	90 ed       	ldi	r25, 0xD0	; 208
     42c:	e9 2e       	mov	r14, r25
			wait5(WAIT);
			PORTD = _CLK_DINCS;
     42e:	80 ef       	ldi	r24, 0xF0	; 240
     430:	f8 2e       	mov	r15, r24
     432:	0d c0       	rjmp	.+26     	; 0x44e <writeByteSlow+0x44>
void writeByteSlow(unsigned char c)
{
	unsigned char d;
	for (d = 0b10000000; d; d >>= 1) {
		if (c & d) {
			PORTD = NCLK_DINCS;
     434:	eb b8       	out	0x0b, r14	; 11
			wait5(WAIT);
     436:	81 e0       	ldi	r24, 0x01	; 1
     438:	90 e0       	ldi	r25, 0x00	; 0
     43a:	0e 94 27 14 	call	0x284e	; 0x284e <wait5>
			PORTD = _CLK_DINCS;
     43e:	fb b8       	out	0x0b, r15	; 11
		} else {
			PORTD = NCLKNDINCS;
			wait5(WAIT);
			PORTD = _CLKNDINCS;
		}
		wait5(WAIT);
     440:	81 e0       	ldi	r24, 0x01	; 1
     442:	90 e0       	ldi	r25, 0x00	; 0
     444:	0e 94 27 14 	call	0x284e	; 0x284e <wait5>
/******************************************************************************/
// write a byte data to the SD card
void writeByteSlow(unsigned char c)
{
	unsigned char d;
	for (d = 0b10000000; d; d >>= 1) {
     448:	16 95       	lsr	r17
     44a:	21 97       	sbiw	r28, 0x01	; 1
     44c:	81 f0       	breq	.+32     	; 0x46e <writeByteSlow+0x64>
		if (c & d) {
     44e:	81 2f       	mov	r24, r17
     450:	80 23       	and	r24, r16
     452:	81 f7       	brne	.-32     	; 0x434 <writeByteSlow+0x2a>
			PORTD = NCLK_DINCS;
			wait5(WAIT);
			PORTD = _CLK_DINCS;
		} else {
			PORTD = NCLKNDINCS;
     454:	cb b8       	out	0x0b, r12	; 11
			wait5(WAIT);
     456:	81 e0       	ldi	r24, 0x01	; 1
     458:	90 e0       	ldi	r25, 0x00	; 0
     45a:	0e 94 27 14 	call	0x284e	; 0x284e <wait5>
			PORTD = _CLKNDINCS;
     45e:	db b8       	out	0x0b, r13	; 11
		}
		wait5(WAIT);
     460:	81 e0       	ldi	r24, 0x01	; 1
     462:	90 e0       	ldi	r25, 0x00	; 0
     464:	0e 94 27 14 	call	0x284e	; 0x284e <wait5>
/******************************************************************************/
// write a byte data to the SD card
void writeByteSlow(unsigned char c)
{
	unsigned char d;
	for (d = 0b10000000; d; d >>= 1) {
     468:	16 95       	lsr	r17
     46a:	21 97       	sbiw	r28, 0x01	; 1
     46c:	81 f7       	brne	.-32     	; 0x44e <writeByteSlow+0x44>
			PORTD = _CLKNDINCS;
		}
		wait5(WAIT);
	}

	PORTD = NCLKNDINCS;
     46e:	80 ec       	ldi	r24, 0xC0	; 192
     470:	8b b9       	out	0x0b, r24	; 11
}
     472:	df 91       	pop	r29
     474:	cf 91       	pop	r28
     476:	1f 91       	pop	r17
     478:	0f 91       	pop	r16
     47a:	ff 90       	pop	r15
     47c:	ef 90       	pop	r14
     47e:	df 90       	pop	r13
     480:	cf 90       	pop	r12
     482:	08 95       	ret

00000484 <writeByteFast>:

/******************************************************************************/
void writeByteFast(unsigned char c)
{
     484:	28 e0       	ldi	r18, 0x08	; 8
     486:	30 e0       	ldi	r19, 0x00	; 0
	unsigned char d;
	for (d = 0b10000000; d; d >>= 1) {
     488:	90 e8       	ldi	r25, 0x80	; 128
		if (c & d) {
			PORTD = NCLK_DINCS;
			PORTD = _CLK_DINCS;
		} else {
			PORTD = NCLKNDINCS;
     48a:	e0 ec       	ldi	r30, 0xC0	; 192
			PORTD = _CLKNDINCS;
     48c:	70 ee       	ldi	r23, 0xE0	; 224
void writeByteFast(unsigned char c)
{
	unsigned char d;
	for (d = 0b10000000; d; d >>= 1) {
		if (c & d) {
			PORTD = NCLK_DINCS;
     48e:	60 ed       	ldi	r22, 0xD0	; 208
			PORTD = _CLK_DINCS;
     490:	50 ef       	ldi	r21, 0xF0	; 240
     492:	06 c0       	rjmp	.+12     	; 0x4a0 <writeByteFast+0x1c>
void writeByteFast(unsigned char c)
{
	unsigned char d;
	for (d = 0b10000000; d; d >>= 1) {
		if (c & d) {
			PORTD = NCLK_DINCS;
     494:	6b b9       	out	0x0b, r22	; 11
			PORTD = _CLK_DINCS;
     496:	5b b9       	out	0x0b, r21	; 11

/******************************************************************************/
void writeByteFast(unsigned char c)
{
	unsigned char d;
	for (d = 0b10000000; d; d >>= 1) {
     498:	96 95       	lsr	r25
     49a:	21 50       	subi	r18, 0x01	; 1
     49c:	30 40       	sbci	r19, 0x00	; 0
     49e:	49 f0       	breq	.+18     	; 0x4b2 <writeByteFast+0x2e>
		if (c & d) {
     4a0:	49 2f       	mov	r20, r25
     4a2:	48 23       	and	r20, r24
     4a4:	b9 f7       	brne	.-18     	; 0x494 <writeByteFast+0x10>
			PORTD = NCLK_DINCS;
			PORTD = _CLK_DINCS;
		} else {
			PORTD = NCLKNDINCS;
     4a6:	eb b9       	out	0x0b, r30	; 11
			PORTD = _CLKNDINCS;
     4a8:	7b b9       	out	0x0b, r23	; 11

/******************************************************************************/
void writeByteFast(unsigned char c)
{
	unsigned char d;
	for (d = 0b10000000; d; d >>= 1) {
     4aa:	96 95       	lsr	r25
     4ac:	21 50       	subi	r18, 0x01	; 1
     4ae:	30 40       	sbci	r19, 0x00	; 0
     4b0:	b9 f7       	brne	.-18     	; 0x4a0 <writeByteFast+0x1c>
		} else {
			PORTD = NCLKNDINCS;
			PORTD = _CLKNDINCS;
		}
	}
	PORTD = NCLKNDINCS;
     4b2:	80 ec       	ldi	r24, 0xC0	; 192
     4b4:	8b b9       	out	0x0b, r24	; 11
}
     4b6:	08 95       	ret

000004b8 <readByteSlow>:

/******************************************************************************/
// read data from the SD card
unsigned char readByteSlow(void)
{
     4b8:	ff 92       	push	r15
     4ba:	0f 93       	push	r16
     4bc:	1f 93       	push	r17
     4be:	df 93       	push	r29
     4c0:	cf 93       	push	r28
     4c2:	0f 92       	push	r0
     4c4:	cd b7       	in	r28, 0x3d	; 61
     4c6:	de b7       	in	r29, 0x3e	; 62
	unsigned char c = 0;
	volatile unsigned char i;

	PORTD = NCLK_DINCS;
     4c8:	80 ed       	ldi	r24, 0xD0	; 208
     4ca:	8b b9       	out	0x0b, r24	; 11
	wait5(WAIT);
     4cc:	81 e0       	ldi	r24, 0x01	; 1
     4ce:	90 e0       	ldi	r25, 0x00	; 0
     4d0:	0e 94 27 14 	call	0x284e	; 0x284e <wait5>
	for (i = 0; i != 8; i++) {
     4d4:	19 82       	std	Y+1, r1	; 0x01
     4d6:	89 81       	ldd	r24, Y+1	; 0x01
     4d8:	88 30       	cpi	r24, 0x08	; 8
     4da:	01 f1       	breq	.+64     	; 0x51c <readByteSlow+0x64>
     4dc:	10 e0       	ldi	r17, 0x00	; 0
		PORTD = _CLK_DINCS;
     4de:	40 ef       	ldi	r20, 0xF0	; 240
     4e0:	f4 2e       	mov	r15, r20
		wait5(WAIT);
		c = ((c << 1) | (PIND & 1));
		PORTD = NCLK_DINCS;
     4e2:	00 ed       	ldi	r16, 0xD0	; 208
	volatile unsigned char i;

	PORTD = NCLK_DINCS;
	wait5(WAIT);
	for (i = 0; i != 8; i++) {
		PORTD = _CLK_DINCS;
     4e4:	fb b8       	out	0x0b, r15	; 11
		wait5(WAIT);
     4e6:	81 e0       	ldi	r24, 0x01	; 1
     4e8:	90 e0       	ldi	r25, 0x00	; 0
     4ea:	0e 94 27 14 	call	0x284e	; 0x284e <wait5>
		c = ((c << 1) | (PIND & 1));
     4ee:	89 b1       	in	r24, 0x09	; 9
     4f0:	11 0f       	add	r17, r17
     4f2:	81 70       	andi	r24, 0x01	; 1
     4f4:	18 2b       	or	r17, r24
		PORTD = NCLK_DINCS;
     4f6:	0b b9       	out	0x0b, r16	; 11
		wait5(WAIT);	
     4f8:	81 e0       	ldi	r24, 0x01	; 1
     4fa:	90 e0       	ldi	r25, 0x00	; 0
     4fc:	0e 94 27 14 	call	0x284e	; 0x284e <wait5>
	unsigned char c = 0;
	volatile unsigned char i;

	PORTD = NCLK_DINCS;
	wait5(WAIT);
	for (i = 0; i != 8; i++) {
     500:	89 81       	ldd	r24, Y+1	; 0x01
     502:	8f 5f       	subi	r24, 0xFF	; 255
     504:	89 83       	std	Y+1, r24	; 0x01
     506:	89 81       	ldd	r24, Y+1	; 0x01
     508:	88 30       	cpi	r24, 0x08	; 8
     50a:	61 f7       	brne	.-40     	; 0x4e4 <readByteSlow+0x2c>
		c = ((c << 1) | (PIND & 1));
		PORTD = NCLK_DINCS;
		wait5(WAIT);	
	}
	return c;
}
     50c:	81 2f       	mov	r24, r17
     50e:	0f 90       	pop	r0
     510:	cf 91       	pop	r28
     512:	df 91       	pop	r29
     514:	1f 91       	pop	r17
     516:	0f 91       	pop	r16
     518:	ff 90       	pop	r15
     51a:	08 95       	ret

/******************************************************************************/
// read data from the SD card
unsigned char readByteSlow(void)
{
	unsigned char c = 0;
     51c:	10 e0       	ldi	r17, 0x00	; 0
     51e:	f6 cf       	rjmp	.-20     	; 0x50c <readByteSlow+0x54>

00000520 <readByteFast>:
	return c;
}

/******************************************************************************/
unsigned char readByteFast(void)
{
     520:	df 93       	push	r29
     522:	cf 93       	push	r28
     524:	0f 92       	push	r0
     526:	cd b7       	in	r28, 0x3d	; 61
     528:	de b7       	in	r29, 0x3e	; 62
	unsigned char c = 0;
	volatile unsigned char i;

	PORTD = NCLK_DINCS;
     52a:	80 ed       	ldi	r24, 0xD0	; 208
     52c:	8b b9       	out	0x0b, r24	; 11
	for (i = 0; i != 8; i++) {
     52e:	19 82       	std	Y+1, r1	; 0x01
     530:	89 81       	ldd	r24, Y+1	; 0x01
     532:	88 30       	cpi	r24, 0x08	; 8
     534:	99 f0       	breq	.+38     	; 0x55c <readByteFast+0x3c>
     536:	80 e0       	ldi	r24, 0x00	; 0
		PORTD = _CLK_DINCS;
     538:	30 ef       	ldi	r19, 0xF0	; 240
		c = ((c << 1) | (PIND & 1));
		PORTD = NCLK_DINCS;
     53a:	20 ed       	ldi	r18, 0xD0	; 208
	unsigned char c = 0;
	volatile unsigned char i;

	PORTD = NCLK_DINCS;
	for (i = 0; i != 8; i++) {
		PORTD = _CLK_DINCS;
     53c:	3b b9       	out	0x0b, r19	; 11
		c = ((c << 1) | (PIND & 1));
     53e:	99 b1       	in	r25, 0x09	; 9
     540:	88 0f       	add	r24, r24
     542:	91 70       	andi	r25, 0x01	; 1
     544:	89 2b       	or	r24, r25
		PORTD = NCLK_DINCS;
     546:	2b b9       	out	0x0b, r18	; 11
{
	unsigned char c = 0;
	volatile unsigned char i;

	PORTD = NCLK_DINCS;
	for (i = 0; i != 8; i++) {
     548:	99 81       	ldd	r25, Y+1	; 0x01
     54a:	9f 5f       	subi	r25, 0xFF	; 255
     54c:	99 83       	std	Y+1, r25	; 0x01
     54e:	99 81       	ldd	r25, Y+1	; 0x01
     550:	98 30       	cpi	r25, 0x08	; 8
     552:	a1 f7       	brne	.-24     	; 0x53c <readByteFast+0x1c>
		PORTD = _CLK_DINCS;
		c = ((c << 1) | (PIND & 1));
		PORTD = NCLK_DINCS;
	}
	return c;
}
     554:	0f 90       	pop	r0
     556:	cf 91       	pop	r28
     558:	df 91       	pop	r29
     55a:	08 95       	ret
}

/******************************************************************************/
unsigned char readByteFast(void)
{
	unsigned char c = 0;
     55c:	80 e0       	ldi	r24, 0x00	; 0
     55e:	fa cf       	rjmp	.-12     	; 0x554 <readByteFast+0x34>

00000560 <waitFinish>:
// wait until data is written to the SD card
void waitFinish(void)
{
	unsigned char ch;
	do {
		ch = readByteFast();
     560:	0e 94 90 02 	call	0x520	; 0x520 <readByteFast>
		if (bit_is_set(PIND, 3)) return;
     564:	4b 99       	sbic	0x09, 3	; 9
     566:	02 c0       	rjmp	.+4      	; 0x56c <waitFinish+0xc>
	} while (ch != 0xff);
     568:	8f 3f       	cpi	r24, 0xFF	; 255
     56a:	d1 f7       	brne	.-12     	; 0x560 <waitFinish>
     56c:	08 95       	ret

0000056e <cmd_>:
}

/******************************************************************************/
// issue a SD card command slowly without getting response
void cmd_(unsigned char cmd, unsigned long adr)
{
     56e:	1f 93       	push	r17
     570:	df 93       	push	r29
     572:	cf 93       	push	r28
     574:	00 d0       	rcall	.+0      	; 0x576 <cmd_+0x8>
     576:	00 d0       	rcall	.+0      	; 0x578 <cmd_+0xa>
     578:	cd b7       	in	r28, 0x3d	; 61
     57a:	de b7       	in	r29, 0x3e	; 62
     57c:	18 2f       	mov	r17, r24
	writeByteSlow(0xff);
     57e:	8f ef       	ldi	r24, 0xFF	; 255
     580:	4c 83       	std	Y+4, r20	; 0x04
     582:	5b 83       	std	Y+3, r21	; 0x03
     584:	6a 83       	std	Y+2, r22	; 0x02
     586:	79 83       	std	Y+1, r23	; 0x01
     588:	0e 94 05 02 	call	0x40a	; 0x40a <writeByteSlow>
	writeByteSlow(0x40 + cmd);
     58c:	81 2f       	mov	r24, r17
     58e:	80 5c       	subi	r24, 0xC0	; 192
     590:	0e 94 05 02 	call	0x40a	; 0x40a <writeByteSlow>
	writeByteSlow(adr >> 24);
     594:	79 81       	ldd	r23, Y+1	; 0x01
     596:	87 2f       	mov	r24, r23
     598:	0e 94 05 02 	call	0x40a	; 0x40a <writeByteSlow>
	writeByteSlow((adr >> 16) & 0xff);
     59c:	6a 81       	ldd	r22, Y+2	; 0x02
     59e:	86 2f       	mov	r24, r22
     5a0:	0e 94 05 02 	call	0x40a	; 0x40a <writeByteSlow>
	writeByteSlow((adr >> 8) & 0xff);
     5a4:	5b 81       	ldd	r21, Y+3	; 0x03
     5a6:	85 2f       	mov	r24, r21
     5a8:	0e 94 05 02 	call	0x40a	; 0x40a <writeByteSlow>
	writeByteSlow(adr & 0xff);
     5ac:	4c 81       	ldd	r20, Y+4	; 0x04
     5ae:	84 2f       	mov	r24, r20
     5b0:	0e 94 05 02 	call	0x40a	; 0x40a <writeByteSlow>
	writeByteSlow(0x95);
     5b4:	85 e9       	ldi	r24, 0x95	; 149
     5b6:	0e 94 05 02 	call	0x40a	; 0x40a <writeByteSlow>
	writeByteSlow(0xff);
     5ba:	8f ef       	ldi	r24, 0xFF	; 255
     5bc:	0e 94 05 02 	call	0x40a	; 0x40a <writeByteSlow>
}
     5c0:	0f 90       	pop	r0
     5c2:	0f 90       	pop	r0
     5c4:	0f 90       	pop	r0
     5c6:	0f 90       	pop	r0
     5c8:	cf 91       	pop	r28
     5ca:	df 91       	pop	r29
     5cc:	1f 91       	pop	r17
     5ce:	08 95       	ret

000005d0 <getRespSlow>:
// get a command response slowly from the SD card
unsigned char getRespSlow(void)
{
	unsigned char ch;
	do {
		ch = readByteSlow();
     5d0:	0e 94 5c 02 	call	0x4b8	; 0x4b8 <readByteSlow>
		if (bit_is_set(PIND, 3)) return 0xff;
     5d4:	4b 99       	sbic	0x09, 3	; 9
     5d6:	03 c0       	rjmp	.+6      	; 0x5de <getRespSlow+0xe>
	} while ((ch & 0x80) != 0);
     5d8:	87 fd       	sbrc	r24, 7
     5da:	fa cf       	rjmp	.-12     	; 0x5d0 <getRespSlow>
     5dc:	08 95       	ret
unsigned char getRespSlow(void)
{
	unsigned char ch;
	do {
		ch = readByteSlow();
		if (bit_is_set(PIND, 3)) return 0xff;
     5de:	8f ef       	ldi	r24, 0xFF	; 255
	} while ((ch & 0x80) != 0);
	return ch;
}
     5e0:	08 95       	ret

000005e2 <getRespFast>:
// get a command response fast from the SD card
unsigned char getRespFast(void)
{
	unsigned char ch;
	do {
		ch = readByteFast();
     5e2:	0e 94 90 02 	call	0x520	; 0x520 <readByteFast>
		if (bit_is_set(PIND, 3)) return 0xff;
     5e6:	4b 99       	sbic	0x09, 3	; 9
     5e8:	03 c0       	rjmp	.+6      	; 0x5f0 <getRespFast+0xe>
	} while ((ch & 0x80) != 0);
     5ea:	87 fd       	sbrc	r24, 7
     5ec:	fa cf       	rjmp	.-12     	; 0x5e2 <getRespFast>
     5ee:	08 95       	ret
unsigned char getRespFast(void)
{
	unsigned char ch;
	do {
		ch = readByteFast();
		if (bit_is_set(PIND, 3)) return 0xff;
     5f0:	8f ef       	ldi	r24, 0xFF	; 255
	} while ((ch & 0x80) != 0);
	return ch;
}
     5f2:	08 95       	ret

000005f4 <cmdFast>:
}

/******************************************************************************/
// issue a SD card command and wait normal response
void cmdFast(unsigned char cmd, unsigned long adr)
{
     5f4:	df 92       	push	r13
     5f6:	ef 92       	push	r14
     5f8:	ff 92       	push	r15
     5fa:	0f 93       	push	r16
     5fc:	1f 93       	push	r17
     5fe:	e0 e4       	ldi	r30, 0x40	; 64
     600:	de 2e       	mov	r13, r30
     602:	d8 0e       	add	r13, r24
     604:	e7 2e       	mov	r14, r23
     606:	f6 2e       	mov	r15, r22
     608:	05 2f       	mov	r16, r21
     60a:	14 2f       	mov	r17, r20
	unsigned char res;
	do {
		writeByteFast(0xff);
     60c:	8f ef       	ldi	r24, 0xFF	; 255
     60e:	0e 94 42 02 	call	0x484	; 0x484 <writeByteFast>
		writeByteFast(0x40 + cmd);
     612:	8d 2d       	mov	r24, r13
     614:	0e 94 42 02 	call	0x484	; 0x484 <writeByteFast>
		writeByteFast(adr >> 24);
     618:	8e 2d       	mov	r24, r14
     61a:	0e 94 42 02 	call	0x484	; 0x484 <writeByteFast>
		writeByteFast((adr >> 16) & 0xff);
     61e:	8f 2d       	mov	r24, r15
     620:	0e 94 42 02 	call	0x484	; 0x484 <writeByteFast>
		writeByteFast((adr >> 8) & 0xff);
     624:	80 2f       	mov	r24, r16
     626:	0e 94 42 02 	call	0x484	; 0x484 <writeByteFast>
		writeByteFast(adr & 0xff);
     62a:	81 2f       	mov	r24, r17
     62c:	0e 94 42 02 	call	0x484	; 0x484 <writeByteFast>
		writeByteFast(0x95);
     630:	85 e9       	ldi	r24, 0x95	; 149
     632:	0e 94 42 02 	call	0x484	; 0x484 <writeByteFast>
		writeByteFast(0xff);
     636:	8f ef       	ldi	r24, 0xFF	; 255
     638:	0e 94 42 02 	call	0x484	; 0x484 <writeByteFast>
	} while (((res=getRespFast()) != 0) && (res != 0xff));
     63c:	0e 94 f1 02 	call	0x5e2	; 0x5e2 <getRespFast>
     640:	88 23       	and	r24, r24
     642:	11 f0       	breq	.+4      	; 0x648 <cmdFast+0x54>
     644:	8f 3f       	cpi	r24, 0xFF	; 255
     646:	11 f7       	brne	.-60     	; 0x60c <cmdFast+0x18>
}
     648:	1f 91       	pop	r17
     64a:	0f 91       	pop	r16
     64c:	ff 90       	pop	r15
     64e:	ef 90       	pop	r14
     650:	df 90       	pop	r13
     652:	08 95       	ret

00000654 <cmd17Fast>:
}

/******************************************************************************/
// issue command 17 and get ready for reading
void cmd17Fast(unsigned long adr)
{
     654:	ab 01       	movw	r20, r22
     656:	bc 01       	movw	r22, r24
	unsigned char ch;

	cmdFast(17, adr);
     658:	81 e1       	ldi	r24, 0x11	; 17
     65a:	0e 94 fa 02 	call	0x5f4	; 0x5f4 <cmdFast>
     65e:	02 c0       	rjmp	.+4      	; 0x664 <cmd17Fast+0x10>
	do {	
		ch = readByteFast();
		if (bit_is_set(PIND, 3)) return;
	} while (ch != 0xfe);
     660:	8e 3f       	cpi	r24, 0xFE	; 254
     662:	21 f0       	breq	.+8      	; 0x66c <cmd17Fast+0x18>
{
	unsigned char ch;

	cmdFast(17, adr);
	do {	
		ch = readByteFast();
     664:	0e 94 90 02 	call	0x520	; 0x520 <readByteFast>
		if (bit_is_set(PIND, 3)) return;
     668:	4b 9b       	sbis	0x09, 3	; 9
     66a:	fa cf       	rjmp	.-12     	; 0x660 <cmd17Fast+0xc>
     66c:	08 95       	ret

0000066e <getFileName>:
}

/******************************************************************************/
// get a file name from a directory entry
void getFileName(unsigned short dir, char *name)
{
     66e:	0f 93       	push	r16
     670:	1f 93       	push	r17
     672:	cf 93       	push	r28
     674:	df 93       	push	r29
     676:	8c 01       	movw	r16, r24
     678:	eb 01       	movw	r28, r22
	unsigned char i;

	cmdFast(16, 8);
     67a:	80 e1       	ldi	r24, 0x10	; 16
     67c:	48 e0       	ldi	r20, 0x08	; 8
     67e:	50 e0       	ldi	r21, 0x00	; 0
     680:	60 e0       	ldi	r22, 0x00	; 0
     682:	70 e0       	ldi	r23, 0x00	; 0
     684:	0e 94 fa 02 	call	0x5f4	; 0x5f4 <cmdFast>
	cmd17Fast(rootAddr + dir * 32);
     688:	00 0f       	add	r16, r16
     68a:	11 1f       	adc	r17, r17
     68c:	02 95       	swap	r16
     68e:	12 95       	swap	r17
     690:	10 7f       	andi	r17, 0xF0	; 240
     692:	10 27       	eor	r17, r16
     694:	00 7f       	andi	r16, 0xF0	; 240
     696:	10 27       	eor	r17, r16
     698:	b8 01       	movw	r22, r16
     69a:	80 e0       	ldi	r24, 0x00	; 0
     69c:	90 e0       	ldi	r25, 0x00	; 0
     69e:	20 91 13 08 	lds	r18, 0x0813
     6a2:	30 91 14 08 	lds	r19, 0x0814
     6a6:	40 91 15 08 	lds	r20, 0x0815
     6aa:	50 91 16 08 	lds	r21, 0x0816
     6ae:	62 0f       	add	r22, r18
     6b0:	73 1f       	adc	r23, r19
     6b2:	84 1f       	adc	r24, r20
     6b4:	95 1f       	adc	r25, r21
     6b6:	0e 94 2a 03 	call	0x654	; 0x654 <cmd17Fast>
     6ba:	08 e0       	ldi	r16, 0x08	; 8
	for (i = 0; i != 8; i++) *(name++) = (char)readByteFast();
     6bc:	0e 94 90 02 	call	0x520	; 0x520 <readByteFast>
     6c0:	89 93       	st	Y+, r24
     6c2:	01 50       	subi	r16, 0x01	; 1
     6c4:	d9 f7       	brne	.-10     	; 0x6bc <getFileName+0x4e>
	readByteFast(); readByteFast(); // discard CRC bytes
     6c6:	0e 94 90 02 	call	0x520	; 0x520 <readByteFast>
     6ca:	0e 94 90 02 	call	0x520	; 0x520 <readByteFast>
}
     6ce:	df 91       	pop	r29
     6d0:	cf 91       	pop	r28
     6d2:	1f 91       	pop	r17
     6d4:	0f 91       	pop	r16
     6d6:	08 95       	ret

000006d8 <findExt>:

/******************************************************************************/
// find a file whose extension is targExt,
// and whose name is targName if withName is true.
int findExt(char *targExt, unsigned char *protect, char *targName, unsigned char withName)
{
     6d8:	2f 92       	push	r2
     6da:	3f 92       	push	r3
     6dc:	4f 92       	push	r4
     6de:	5f 92       	push	r5
     6e0:	6f 92       	push	r6
     6e2:	7f 92       	push	r7
     6e4:	8f 92       	push	r8
     6e6:	9f 92       	push	r9
     6e8:	af 92       	push	r10
     6ea:	bf 92       	push	r11
     6ec:	cf 92       	push	r12
     6ee:	df 92       	push	r13
     6f0:	ef 92       	push	r14
     6f2:	ff 92       	push	r15
     6f4:	0f 93       	push	r16
     6f6:	1f 93       	push	r17
     6f8:	df 93       	push	r29
     6fa:	cf 93       	push	r28
     6fc:	cd b7       	in	r28, 0x3d	; 61
     6fe:	de b7       	in	r29, 0x3e	; 62
     700:	68 97       	sbiw	r28, 0x18	; 24
     702:	0f b6       	in	r0, 0x3f	; 63
     704:	f8 94       	cli
     706:	de bf       	out	0x3e, r29	; 62
     708:	0f be       	out	0x3f, r0	; 63
     70a:	cd bf       	out	0x3d, r28	; 61
     70c:	1c 01       	movw	r2, r24
     70e:	2b 01       	movw	r4, r22
     710:	5b 8b       	std	Y+19, r21	; 0x13
     712:	4a 8b       	std	Y+18, r20	; 0x12
     714:	2e 8b       	std	Y+22, r18	; 0x16
     716:	ee 24       	eor	r14, r14
     718:	ff 24       	eor	r15, r15
     71a:	87 01       	movw	r16, r14
	short i, j;
	unsigned max_file = 512;
	unsigned short max_time = 0, max_date = 0;
     71c:	1d 8a       	std	Y+21, r1	; 0x15
     71e:	1c 8a       	std	Y+20, r1	; 0x14
     720:	18 8e       	std	Y+24, r1	; 0x18
     722:	1f 8a       	std	Y+23, r1	; 0x17
// find a file whose extension is targExt,
// and whose name is targName if withName is true.
int findExt(char *targExt, unsigned char *protect, char *targName, unsigned char withName)
{
	short i, j;
	unsigned max_file = 512;
     724:	40 e0       	ldi	r20, 0x00	; 0
     726:	52 e0       	ldi	r21, 0x02	; 2
     728:	59 8b       	std	Y+17, r21	; 0x11
     72a:	48 8b       	std	Y+16, r20	; 0x10
	unsigned short max_time = 0, max_date = 0;

	// find NIC extension
	for (i=0; i != 512; i++) {
     72c:	cc 24       	eor	r12, r12
     72e:	dd 24       	eor	r13, r13
		readByteFast(); readByteFast(); // discard CRC bytes
		if (d & 0x1e) continue;														// Escondido, de sistema, volume ou diretório
		if (d == 0xf) continue;														// Registro LFN
		// check extension
		cmdFast(16, 12);
		cmd17Fast(rootAddr + i * 32);
     730:	98 e0       	ldi	r25, 0x08	; 8
     732:	69 2e       	mov	r6, r25
     734:	71 2c       	mov	r7, r1
     736:	6c 0e       	add	r6, r28
     738:	7d 1e       	adc	r7, r29
}

/******************************************************************************/
// find a file whose extension is targExt,
// and whose name is targName if withName is true.
int findExt(char *targExt, unsigned char *protect, char *targName, unsigned char withName)
     73a:	88 e0       	ldi	r24, 0x08	; 8
     73c:	88 2e       	mov	r8, r24
     73e:	91 2c       	mov	r9, r1
     740:	86 0c       	add	r8, r6
     742:	97 1c       	adc	r9, r7
	// find NIC extension
	for (i=0; i != 512; i++) {
		unsigned char name[8], ext[3], d;
		unsigned char time[2], date[2];

		if (bit_is_set(PIND, 3)) return 512;
     744:	4b 99       	sbic	0x09, 3	; 9
     746:	f0 c0       	rjmp	.+480    	; 0x928 <__stack+0x29>
		// check first char
		cmdFast(16, 1);
     748:	80 e1       	ldi	r24, 0x10	; 16
     74a:	41 e0       	ldi	r20, 0x01	; 1
     74c:	50 e0       	ldi	r21, 0x00	; 0
     74e:	60 e0       	ldi	r22, 0x00	; 0
     750:	70 e0       	ldi	r23, 0x00	; 0
     752:	0e 94 fa 02 	call	0x5f4	; 0x5f4 <cmdFast>
		cmd17Fast(rootAddr + i * 32);
     756:	60 91 13 08 	lds	r22, 0x0813
     75a:	70 91 14 08 	lds	r23, 0x0814
     75e:	80 91 15 08 	lds	r24, 0x0815
     762:	90 91 16 08 	lds	r25, 0x0816
     766:	6e 0d       	add	r22, r14
     768:	7f 1d       	adc	r23, r15
     76a:	80 1f       	adc	r24, r16
     76c:	91 1f       	adc	r25, r17
     76e:	0e 94 2a 03 	call	0x654	; 0x654 <cmd17Fast>
		d = readByteFast();
     772:	0e 94 90 02 	call	0x520	; 0x520 <readByteFast>
     776:	a8 2e       	mov	r10, r24
		readByteFast(); readByteFast(); // discard CRC bytes
     778:	0e 94 90 02 	call	0x520	; 0x520 <readByteFast>
     77c:	0e 94 90 02 	call	0x520	; 0x520 <readByteFast>
		if ((d == 0x00) || (d == 0x05) || (d == 0x2e) || (d == 0xe5)) continue;		// Excluído
     780:	aa 20       	and	r10, r10
     782:	09 f4       	brne	.+2      	; 0x786 <findExt+0xae>
     784:	ae c0       	rjmp	.+348    	; 0x8e2 <findExt+0x20a>
     786:	5a 2d       	mov	r21, r10
     788:	55 30       	cpi	r21, 0x05	; 5
     78a:	09 f4       	brne	.+2      	; 0x78e <findExt+0xb6>
     78c:	aa c0       	rjmp	.+340    	; 0x8e2 <findExt+0x20a>
     78e:	5e 32       	cpi	r21, 0x2E	; 46
     790:	09 f4       	brne	.+2      	; 0x794 <findExt+0xbc>
     792:	a7 c0       	rjmp	.+334    	; 0x8e2 <findExt+0x20a>
     794:	55 3e       	cpi	r21, 0xE5	; 229
     796:	09 f4       	brne	.+2      	; 0x79a <findExt+0xc2>
     798:	a4 c0       	rjmp	.+328    	; 0x8e2 <findExt+0x20a>
		if (!(((d >= 'A') && (d <= 'Z')) || ((d >= '0') && (d <= '9')))) continue;	// Inválido
     79a:	8a 2d       	mov	r24, r10
     79c:	81 54       	subi	r24, 0x41	; 65
     79e:	8a 31       	cpi	r24, 0x1A	; 26
     7a0:	20 f0       	brcs	.+8      	; 0x7aa <findExt+0xd2>
     7a2:	8f 5e       	subi	r24, 0xEF	; 239
     7a4:	8a 30       	cpi	r24, 0x0A	; 10
     7a6:	08 f0       	brcs	.+2      	; 0x7aa <findExt+0xd2>
     7a8:	9c c0       	rjmp	.+312    	; 0x8e2 <findExt+0x20a>
		cmd17Fast(rootAddr+i*32+11);												// Atributos
     7aa:	60 91 13 08 	lds	r22, 0x0813
     7ae:	70 91 14 08 	lds	r23, 0x0814
     7b2:	80 91 15 08 	lds	r24, 0x0815
     7b6:	90 91 16 08 	lds	r25, 0x0816
     7ba:	65 5f       	subi	r22, 0xF5	; 245
     7bc:	7f 4f       	sbci	r23, 0xFF	; 255
     7be:	8f 4f       	sbci	r24, 0xFF	; 255
     7c0:	9f 4f       	sbci	r25, 0xFF	; 255
     7c2:	6e 0d       	add	r22, r14
     7c4:	7f 1d       	adc	r23, r15
     7c6:	80 1f       	adc	r24, r16
     7c8:	91 1f       	adc	r25, r17
     7ca:	0e 94 2a 03 	call	0x654	; 0x654 <cmd17Fast>
		d = readByteFast();
     7ce:	0e 94 90 02 	call	0x520	; 0x520 <readByteFast>
     7d2:	a8 2e       	mov	r10, r24
		readByteFast(); readByteFast(); // discard CRC bytes
     7d4:	0e 94 90 02 	call	0x520	; 0x520 <readByteFast>
     7d8:	0e 94 90 02 	call	0x520	; 0x520 <readByteFast>
		if (d & 0x1e) continue;														// Escondido, de sistema, volume ou diretório
     7dc:	8a 2d       	mov	r24, r10
     7de:	8e 71       	andi	r24, 0x1E	; 30
     7e0:	09 f0       	breq	.+2      	; 0x7e4 <findExt+0x10c>
     7e2:	7f c0       	rjmp	.+254    	; 0x8e2 <findExt+0x20a>
		if (d == 0xf) continue;														// Registro LFN
     7e4:	8a 2d       	mov	r24, r10
     7e6:	8f 30       	cpi	r24, 0x0F	; 15
     7e8:	09 f4       	brne	.+2      	; 0x7ec <findExt+0x114>
     7ea:	7b c0       	rjmp	.+246    	; 0x8e2 <findExt+0x20a>
		// check extension
		cmdFast(16, 12);
     7ec:	80 e1       	ldi	r24, 0x10	; 16
     7ee:	4c e0       	ldi	r20, 0x0C	; 12
     7f0:	50 e0       	ldi	r21, 0x00	; 0
     7f2:	60 e0       	ldi	r22, 0x00	; 0
     7f4:	70 e0       	ldi	r23, 0x00	; 0
     7f6:	0e 94 fa 02 	call	0x5f4	; 0x5f4 <cmdFast>
		cmd17Fast(rootAddr + i * 32);
     7fa:	60 91 13 08 	lds	r22, 0x0813
     7fe:	70 91 14 08 	lds	r23, 0x0814
     802:	80 91 15 08 	lds	r24, 0x0815
     806:	90 91 16 08 	lds	r25, 0x0816
     80a:	6e 0d       	add	r22, r14
     80c:	7f 1d       	adc	r23, r15
     80e:	80 1f       	adc	r24, r16
     810:	91 1f       	adc	r25, r17
     812:	0e 94 2a 03 	call	0x654	; 0x654 <cmd17Fast>
     816:	53 01       	movw	r10, r6
		for (j=0; j!=8; j++) name[j] = readByteFast();								// Nome
     818:	0e 94 90 02 	call	0x520	; 0x520 <readByteFast>
     81c:	d5 01       	movw	r26, r10
     81e:	8d 93       	st	X+, r24
     820:	5d 01       	movw	r10, r26
     822:	a8 15       	cp	r26, r8
     824:	b9 05       	cpc	r27, r9
     826:	c1 f7       	brne	.-16     	; 0x818 <findExt+0x140>
		for (j=0; j!=3; j++) ext[j] = readByteFast();								// Extensão
     828:	0e 94 90 02 	call	0x520	; 0x520 <readByteFast>
     82c:	8d 83       	std	Y+5, r24	; 0x05
     82e:	0e 94 90 02 	call	0x520	; 0x520 <readByteFast>
     832:	8e 83       	std	Y+6, r24	; 0x06
     834:	0e 94 90 02 	call	0x520	; 0x520 <readByteFast>
     838:	8f 83       	std	Y+7, r24	; 0x07
		if (protect)
     83a:	41 14       	cp	r4, r1
     83c:	51 04       	cpc	r5, r1
     83e:	09 f4       	brne	.+2      	; 0x842 <findExt+0x16a>
     840:	9f c0       	rjmp	.+318    	; 0x980 <__stack+0x81>
			*protect = ((readByteFast() & 1) << 3);									// Somente leitura
     842:	0e 94 90 02 	call	0x520	; 0x520 <readByteFast>
     846:	81 70       	andi	r24, 0x01	; 1
     848:	88 0f       	add	r24, r24
     84a:	88 0f       	add	r24, r24
     84c:	88 0f       	add	r24, r24
     84e:	f2 01       	movw	r30, r4
     850:	80 83       	st	Z, r24
		else
			readByteFast();
		readByteFast(); readByteFast(); // discard CRC bytes
     852:	0e 94 90 02 	call	0x520	; 0x520 <readByteFast>
     856:	0e 94 90 02 	call	0x520	; 0x520 <readByteFast>

		// check time stamp
		cmdFast(16, 4);
     85a:	80 e1       	ldi	r24, 0x10	; 16
     85c:	44 e0       	ldi	r20, 0x04	; 4
     85e:	50 e0       	ldi	r21, 0x00	; 0
     860:	60 e0       	ldi	r22, 0x00	; 0
     862:	70 e0       	ldi	r23, 0x00	; 0
     864:	0e 94 fa 02 	call	0x5f4	; 0x5f4 <cmdFast>
		cmd17Fast(rootAddr + i * 32 + 22);
     868:	60 91 13 08 	lds	r22, 0x0813
     86c:	70 91 14 08 	lds	r23, 0x0814
     870:	80 91 15 08 	lds	r24, 0x0815
     874:	90 91 16 08 	lds	r25, 0x0816
     878:	6a 5e       	subi	r22, 0xEA	; 234
     87a:	7f 4f       	sbci	r23, 0xFF	; 255
     87c:	8f 4f       	sbci	r24, 0xFF	; 255
     87e:	9f 4f       	sbci	r25, 0xFF	; 255
     880:	6e 0d       	add	r22, r14
     882:	7f 1d       	adc	r23, r15
     884:	80 1f       	adc	r24, r16
     886:	91 1f       	adc	r25, r17
     888:	0e 94 2a 03 	call	0x654	; 0x654 <cmd17Fast>
		time[0] = readByteFast();
     88c:	0e 94 90 02 	call	0x520	; 0x520 <readByteFast>
     890:	89 83       	std	Y+1, r24	; 0x01
		time[1] = readByteFast();
     892:	0e 94 90 02 	call	0x520	; 0x520 <readByteFast>
     896:	8a 83       	std	Y+2, r24	; 0x02
		date[0] = readByteFast();
     898:	0e 94 90 02 	call	0x520	; 0x520 <readByteFast>
     89c:	8b 83       	std	Y+3, r24	; 0x03
		date[1] = readByteFast();
     89e:	0e 94 90 02 	call	0x520	; 0x520 <readByteFast>
     8a2:	8c 83       	std	Y+4, r24	; 0x04
		readByteFast(); readByteFast(); // discard CRC bytes
     8a4:	0e 94 90 02 	call	0x520	; 0x520 <readByteFast>
     8a8:	0e 94 90 02 	call	0x520	; 0x520 <readByteFast>

		if (memcmp(ext, targExt, 3) == 0) {											// Extensão achada
     8ac:	ce 01       	movw	r24, r28
     8ae:	05 96       	adiw	r24, 0x05	; 5
     8b0:	b1 01       	movw	r22, r2
     8b2:	43 e0       	ldi	r20, 0x03	; 3
     8b4:	50 e0       	ldi	r21, 0x00	; 0
     8b6:	0e 94 0c 15 	call	0x2a18	; 0x2a18 <memcmp>
     8ba:	00 97       	sbiw	r24, 0x00	; 0
     8bc:	91 f4       	brne	.+36     	; 0x8e2 <findExt+0x20a>
			if ((!withName) || (targName && memcmp(name, targName, 8) == 0)) {		// Se não estiver procurando pelo nome ou foi passado um ponteiro
     8be:	fe 89       	ldd	r31, Y+22	; 0x16
     8c0:	ff 23       	and	r31, r31
     8c2:	09 f0       	breq	.+2      	; 0x8c6 <findExt+0x1ee>
     8c4:	4d c0       	rjmp	.+154    	; 0x960 <__stack+0x61>
				unsigned short tm = *(unsigned short *)time;						// de nome de arquivo e esse corresponder ao achado
     8c6:	29 81       	ldd	r18, Y+1	; 0x01
     8c8:	3a 81       	ldd	r19, Y+2	; 0x02
				unsigned short dt = *(unsigned short *)date;
     8ca:	8b 81       	ldd	r24, Y+3	; 0x03
     8cc:	9c 81       	ldd	r25, Y+4	; 0x04

				if ((dt > max_date) || ((dt == max_date) && (tm >= max_time))) {	// Marca arquivo com data maior
     8ce:	ac 89       	ldd	r26, Y+20	; 0x14
     8d0:	bd 89       	ldd	r27, Y+21	; 0x15
     8d2:	a8 17       	cp	r26, r24
     8d4:	b9 07       	cpc	r27, r25
     8d6:	08 f4       	brcc	.+2      	; 0x8da <findExt+0x202>
     8d8:	5c c0       	rjmp	.+184    	; 0x992 <__stack+0x93>
     8da:	8a 17       	cp	r24, r26
     8dc:	9b 07       	cpc	r25, r27
     8de:	09 f4       	brne	.+2      	; 0x8e2 <findExt+0x20a>
     8e0:	52 c0       	rjmp	.+164    	; 0x986 <__stack+0x87>
	short i, j;
	unsigned max_file = 512;
	unsigned short max_time = 0, max_date = 0;

	// find NIC extension
	for (i=0; i != 512; i++) {
     8e2:	08 94       	sec
     8e4:	c1 1c       	adc	r12, r1
     8e6:	d1 1c       	adc	r13, r1
     8e8:	80 e2       	ldi	r24, 0x20	; 32
     8ea:	90 e0       	ldi	r25, 0x00	; 0
     8ec:	a0 e0       	ldi	r26, 0x00	; 0
     8ee:	b0 e0       	ldi	r27, 0x00	; 0
     8f0:	e8 0e       	add	r14, r24
     8f2:	f9 1e       	adc	r15, r25
     8f4:	0a 1f       	adc	r16, r26
     8f6:	1b 1f       	adc	r17, r27
     8f8:	90 e0       	ldi	r25, 0x00	; 0
     8fa:	c9 16       	cp	r12, r25
     8fc:	92 e0       	ldi	r25, 0x02	; 2
     8fe:	d9 06       	cpc	r13, r25
     900:	09 f0       	breq	.+2      	; 0x904 <__stack+0x5>
     902:	20 cf       	rjmp	.-448    	; 0x744 <findExt+0x6c>
				}
			}
		}
	}

	if ((max_file != 512) && (targName != 0) && (!withName)) {						// Se achou arquivo e foi passado um ponteiro para o nome do arquivo
     904:	a8 89       	ldd	r26, Y+16	; 0x10
     906:	b9 89       	ldd	r27, Y+17	; 0x11
     908:	e2 e0       	ldi	r30, 0x02	; 2
     90a:	a0 30       	cpi	r26, 0x00	; 0
     90c:	be 07       	cpc	r27, r30
     90e:	49 f0       	breq	.+18     	; 0x922 <__stack+0x23>
     910:	4a 89       	ldd	r20, Y+18	; 0x12
     912:	5b 89       	ldd	r21, Y+19	; 0x13
     914:	41 15       	cp	r20, r1
     916:	51 05       	cpc	r21, r1
     918:	21 f0       	breq	.+8      	; 0x922 <__stack+0x23>
     91a:	5e 89       	ldd	r21, Y+22	; 0x16
     91c:	55 23       	and	r21, r21
     91e:	09 f4       	brne	.+2      	; 0x922 <__stack+0x23>
     920:	3f c0       	rjmp	.+126    	; 0x9a0 <__stack+0xa1>
		cmdFast(16, 8);
		cmd17Fast(rootAddr + max_file * 32);
		for (j = 0; j < 8; j++) targName[j] = readByteFast();
		readByteFast(); readByteFast();
	}
	return max_file;
     922:	28 89       	ldd	r18, Y+16	; 0x10
     924:	39 89       	ldd	r19, Y+17	; 0x11
     926:	02 c0       	rjmp	.+4      	; 0x92c <__stack+0x2d>
	// find NIC extension
	for (i=0; i != 512; i++) {
		unsigned char name[8], ext[3], d;
		unsigned char time[2], date[2];

		if (bit_is_set(PIND, 3)) return 512;
     928:	20 e0       	ldi	r18, 0x00	; 0
     92a:	32 e0       	ldi	r19, 0x02	; 2
		for (j = 0; j < 8; j++) targName[j] = readByteFast();
		readByteFast(); readByteFast();
	}
	return max_file;
	// if 512 then not found...
}
     92c:	c9 01       	movw	r24, r18
     92e:	68 96       	adiw	r28, 0x18	; 24
     930:	0f b6       	in	r0, 0x3f	; 63
     932:	f8 94       	cli
     934:	de bf       	out	0x3e, r29	; 62
     936:	0f be       	out	0x3f, r0	; 63
     938:	cd bf       	out	0x3d, r28	; 61
     93a:	cf 91       	pop	r28
     93c:	df 91       	pop	r29
     93e:	1f 91       	pop	r17
     940:	0f 91       	pop	r16
     942:	ff 90       	pop	r15
     944:	ef 90       	pop	r14
     946:	df 90       	pop	r13
     948:	cf 90       	pop	r12
     94a:	bf 90       	pop	r11
     94c:	af 90       	pop	r10
     94e:	9f 90       	pop	r9
     950:	8f 90       	pop	r8
     952:	7f 90       	pop	r7
     954:	6f 90       	pop	r6
     956:	5f 90       	pop	r5
     958:	4f 90       	pop	r4
     95a:	3f 90       	pop	r3
     95c:	2f 90       	pop	r2
     95e:	08 95       	ret
		date[0] = readByteFast();
		date[1] = readByteFast();
		readByteFast(); readByteFast(); // discard CRC bytes

		if (memcmp(ext, targExt, 3) == 0) {											// Extensão achada
			if ((!withName) || (targName && memcmp(name, targName, 8) == 0)) {		// Se não estiver procurando pelo nome ou foi passado um ponteiro
     960:	4a 89       	ldd	r20, Y+18	; 0x12
     962:	5b 89       	ldd	r21, Y+19	; 0x13
     964:	41 15       	cp	r20, r1
     966:	51 05       	cpc	r21, r1
     968:	09 f4       	brne	.+2      	; 0x96c <__stack+0x6d>
     96a:	bb cf       	rjmp	.-138    	; 0x8e2 <findExt+0x20a>
     96c:	c3 01       	movw	r24, r6
     96e:	ba 01       	movw	r22, r20
     970:	48 e0       	ldi	r20, 0x08	; 8
     972:	50 e0       	ldi	r21, 0x00	; 0
     974:	0e 94 0c 15 	call	0x2a18	; 0x2a18 <memcmp>
     978:	00 97       	sbiw	r24, 0x00	; 0
     97a:	09 f0       	breq	.+2      	; 0x97e <__stack+0x7f>
     97c:	b2 cf       	rjmp	.-156    	; 0x8e2 <findExt+0x20a>
     97e:	a3 cf       	rjmp	.-186    	; 0x8c6 <findExt+0x1ee>
		for (j=0; j!=8; j++) name[j] = readByteFast();								// Nome
		for (j=0; j!=3; j++) ext[j] = readByteFast();								// Extensão
		if (protect)
			*protect = ((readByteFast() & 1) << 3);									// Somente leitura
		else
			readByteFast();
     980:	0e 94 90 02 	call	0x520	; 0x520 <readByteFast>
     984:	66 cf       	rjmp	.-308    	; 0x852 <findExt+0x17a>
		if (memcmp(ext, targExt, 3) == 0) {											// Extensão achada
			if ((!withName) || (targName && memcmp(name, targName, 8) == 0)) {		// Se não estiver procurando pelo nome ou foi passado um ponteiro
				unsigned short tm = *(unsigned short *)time;						// de nome de arquivo e esse corresponder ao achado
				unsigned short dt = *(unsigned short *)date;

				if ((dt > max_date) || ((dt == max_date) && (tm >= max_time))) {	// Marca arquivo com data maior
     986:	ef 89       	ldd	r30, Y+23	; 0x17
     988:	f8 8d       	ldd	r31, Y+24	; 0x18
     98a:	2e 17       	cp	r18, r30
     98c:	3f 07       	cpc	r19, r31
     98e:	08 f4       	brcc	.+2      	; 0x992 <__stack+0x93>
     990:	a8 cf       	rjmp	.-176    	; 0x8e2 <findExt+0x20a>
     992:	d9 8a       	std	Y+17, r13	; 0x11
     994:	c8 8a       	std	Y+16, r12	; 0x10
		readByteFast(); readByteFast(); // discard CRC bytes

		if (memcmp(ext, targExt, 3) == 0) {											// Extensão achada
			if ((!withName) || (targName && memcmp(name, targName, 8) == 0)) {		// Se não estiver procurando pelo nome ou foi passado um ponteiro
				unsigned short tm = *(unsigned short *)time;						// de nome de arquivo e esse corresponder ao achado
				unsigned short dt = *(unsigned short *)date;
     996:	9d 8b       	std	Y+21, r25	; 0x15
     998:	8c 8b       	std	Y+20, r24	; 0x14
		date[1] = readByteFast();
		readByteFast(); readByteFast(); // discard CRC bytes

		if (memcmp(ext, targExt, 3) == 0) {											// Extensão achada
			if ((!withName) || (targName && memcmp(name, targName, 8) == 0)) {		// Se não estiver procurando pelo nome ou foi passado um ponteiro
				unsigned short tm = *(unsigned short *)time;						// de nome de arquivo e esse corresponder ao achado
     99a:	38 8f       	std	Y+24, r19	; 0x18
     99c:	2f 8b       	std	Y+23, r18	; 0x17
     99e:	a1 cf       	rjmp	.-190    	; 0x8e2 <findExt+0x20a>
		}
	}

	if ((max_file != 512) && (targName != 0) && (!withName)) {						// Se achou arquivo e foi passado um ponteiro para o nome do arquivo
		unsigned char j;															// e não está procurando por um nome, copia o nome achado para o ponteiro
		cmdFast(16, 8);
     9a0:	80 e1       	ldi	r24, 0x10	; 16
     9a2:	48 e0       	ldi	r20, 0x08	; 8
     9a4:	50 e0       	ldi	r21, 0x00	; 0
     9a6:	60 e0       	ldi	r22, 0x00	; 0
     9a8:	70 e0       	ldi	r23, 0x00	; 0
     9aa:	0e 94 fa 02 	call	0x5f4	; 0x5f4 <cmdFast>
		cmd17Fast(rootAddr + max_file * 32);
     9ae:	68 89       	ldd	r22, Y+16	; 0x10
     9b0:	79 89       	ldd	r23, Y+17	; 0x11
     9b2:	66 0f       	add	r22, r22
     9b4:	77 1f       	adc	r23, r23
     9b6:	62 95       	swap	r22
     9b8:	72 95       	swap	r23
     9ba:	70 7f       	andi	r23, 0xF0	; 240
     9bc:	76 27       	eor	r23, r22
     9be:	60 7f       	andi	r22, 0xF0	; 240
     9c0:	76 27       	eor	r23, r22
     9c2:	80 e0       	ldi	r24, 0x00	; 0
     9c4:	90 e0       	ldi	r25, 0x00	; 0
     9c6:	20 91 13 08 	lds	r18, 0x0813
     9ca:	30 91 14 08 	lds	r19, 0x0814
     9ce:	40 91 15 08 	lds	r20, 0x0815
     9d2:	50 91 16 08 	lds	r21, 0x0816
     9d6:	62 0f       	add	r22, r18
     9d8:	73 1f       	adc	r23, r19
     9da:	84 1f       	adc	r24, r20
     9dc:	95 1f       	adc	r25, r21
     9de:	0e 94 2a 03 	call	0x654	; 0x654 <cmd17Fast>
     9e2:	ea 88       	ldd	r14, Y+18	; 0x12
     9e4:	fb 88       	ldd	r15, Y+19	; 0x13
     9e6:	a8 e0       	ldi	r26, 0x08	; 8
     9e8:	ca 2e       	mov	r12, r26
		for (j = 0; j < 8; j++) targName[j] = readByteFast();
     9ea:	0e 94 90 02 	call	0x520	; 0x520 <readByteFast>
     9ee:	d7 01       	movw	r26, r14
     9f0:	8d 93       	st	X+, r24
     9f2:	7d 01       	movw	r14, r26
     9f4:	ca 94       	dec	r12
     9f6:	c9 f7       	brne	.-14     	; 0x9ea <__stack+0xeb>
		readByteFast(); readByteFast();
     9f8:	0e 94 90 02 	call	0x520	; 0x520 <readByteFast>
     9fc:	0e 94 90 02 	call	0x520	; 0x520 <readByteFast>
     a00:	90 cf       	rjmp	.-224    	; 0x922 <__stack+0x23>

00000a02 <prepareFat>:

/******************************************************************************/
// prepare a FAT table on memory
// Lê a cadeia de clusters do arquivo #(i) de (len) clusters, limitando à (fatElemNum) clusters
void prepareFat(int i, unsigned short *fat, unsigned short len, unsigned char fatNum, unsigned char fatElemNum)
{
     a02:	4f 92       	push	r4
     a04:	5f 92       	push	r5
     a06:	6f 92       	push	r6
     a08:	7f 92       	push	r7
     a0a:	8f 92       	push	r8
     a0c:	9f 92       	push	r9
     a0e:	af 92       	push	r10
     a10:	bf 92       	push	r11
     a12:	cf 92       	push	r12
     a14:	df 92       	push	r13
     a16:	ef 92       	push	r14
     a18:	ff 92       	push	r15
     a1a:	0f 93       	push	r16
     a1c:	1f 93       	push	r17
     a1e:	cf 93       	push	r28
     a20:	df 93       	push	r29
     a22:	ec 01       	movw	r28, r24
     a24:	2b 01       	movw	r4, r22
     a26:	4a 01       	movw	r8, r20
     a28:	f2 2e       	mov	r15, r18
     a2a:	70 2e       	mov	r7, r16
	unsigned short ft;
	unsigned char fn;

	if (bit_is_set(PIND, 3)) return;												// Cartão foi removido
     a2c:	4b 9b       	sbis	0x09, 3	; 9
     a2e:	11 c0       	rjmp	.+34     	; 0xa52 <prepareFat+0x50>
		if (fn == fatNum) fat[(i + 1) % fatElemNum] = ft;							// Salva # cluster na lista
		if ((ft > 0xfff6) || (fn > fatNum))											// Se cluster for inválido ou final, ou extrapolar
			break;																	// limite da tabela
	}
	cmdFast(16, (unsigned long)512);												// Prepara para ler 512 bytes
}
     a30:	df 91       	pop	r29
     a32:	cf 91       	pop	r28
     a34:	1f 91       	pop	r17
     a36:	0f 91       	pop	r16
     a38:	ff 90       	pop	r15
     a3a:	ef 90       	pop	r14
     a3c:	df 90       	pop	r13
     a3e:	cf 90       	pop	r12
     a40:	bf 90       	pop	r11
     a42:	af 90       	pop	r10
     a44:	9f 90       	pop	r9
     a46:	8f 90       	pop	r8
     a48:	7f 90       	pop	r7
     a4a:	6f 90       	pop	r6
     a4c:	5f 90       	pop	r5
     a4e:	4f 90       	pop	r4
     a50:	08 95       	ret
{
	unsigned short ft;
	unsigned char fn;

	if (bit_is_set(PIND, 3)) return;												// Cartão foi removido
	cmdFast(16, (unsigned long)2);
     a52:	80 e1       	ldi	r24, 0x10	; 16
     a54:	42 e0       	ldi	r20, 0x02	; 2
     a56:	50 e0       	ldi	r21, 0x00	; 0
     a58:	60 e0       	ldi	r22, 0x00	; 0
     a5a:	70 e0       	ldi	r23, 0x00	; 0
     a5c:	0e 94 fa 02 	call	0x5f4	; 0x5f4 <cmdFast>
	cmd17Fast(rootAddr + i * 32 + 26);												// Ler cluster inicial desse arquivo
     a60:	60 91 13 08 	lds	r22, 0x0813
     a64:	70 91 14 08 	lds	r23, 0x0814
     a68:	80 91 15 08 	lds	r24, 0x0815
     a6c:	90 91 16 08 	lds	r25, 0x0816
     a70:	66 5e       	subi	r22, 0xE6	; 230
     a72:	7f 4f       	sbci	r23, 0xFF	; 255
     a74:	8f 4f       	sbci	r24, 0xFF	; 255
     a76:	9f 4f       	sbci	r25, 0xFF	; 255
     a78:	9e 01       	movw	r18, r28
     a7a:	22 0f       	add	r18, r18
     a7c:	33 1f       	adc	r19, r19
     a7e:	22 95       	swap	r18
     a80:	32 95       	swap	r19
     a82:	30 7f       	andi	r19, 0xF0	; 240
     a84:	32 27       	eor	r19, r18
     a86:	20 7f       	andi	r18, 0xF0	; 240
     a88:	32 27       	eor	r19, r18
     a8a:	44 27       	eor	r20, r20
     a8c:	37 fd       	sbrc	r19, 7
     a8e:	40 95       	com	r20
     a90:	54 2f       	mov	r21, r20
     a92:	62 0f       	add	r22, r18
     a94:	73 1f       	adc	r23, r19
     a96:	84 1f       	adc	r24, r20
     a98:	95 1f       	adc	r25, r21
     a9a:	0e 94 2a 03 	call	0x654	; 0x654 <cmd17Fast>
	ft = readByteFast();
     a9e:	0e 94 90 02 	call	0x520	; 0x520 <readByteFast>
     aa2:	c8 2f       	mov	r28, r24
     aa4:	d0 e0       	ldi	r29, 0x00	; 0
	ft += (unsigned short)readByteFast() * 0x100;									// Cluster é 16 bits little-endian
     aa6:	0e 94 90 02 	call	0x520	; 0x520 <readByteFast>
     aaa:	38 2f       	mov	r19, r24
     aac:	20 e0       	ldi	r18, 0x00	; 0
     aae:	c2 0f       	add	r28, r18
     ab0:	d3 1f       	adc	r29, r19
	readByteFast(); readByteFast(); // discard CRC bytes
     ab2:	0e 94 90 02 	call	0x520	; 0x520 <readByteFast>
     ab6:	0e 94 90 02 	call	0x520	; 0x520 <readByteFast>
	if (0 == fatNum) fat[0] = ft;													// ?
     aba:	ff 20       	and	r15, r15
     abc:	09 f4       	brne	.+2      	; 0xac0 <prepareFat+0xbe>
     abe:	4e c0       	rjmp	.+156    	; 0xb5c <prepareFat+0x15a>

/******************************************************************************/
// prepare a FAT table on memory
// Lê a cadeia de clusters do arquivo #(i) de (len) clusters, limitando à (fatElemNum) clusters
void prepareFat(int i, unsigned short *fat, unsigned short len, unsigned char fatNum, unsigned char fatElemNum)
{
     ac0:	00 e0       	ldi	r16, 0x00	; 0
     ac2:	10 e0       	ldi	r17, 0x00	; 0
	ft = readByteFast();
	ft += (unsigned short)readByteFast() * 0x100;									// Cluster é 16 bits little-endian
	readByteFast(); readByteFast(); // discard CRC bytes
	if (0 == fatNum) fat[0] = ft;													// ?
	for (i = 0; i < len; i++) {
		fn = (i + 1) / fatElemNum;
     ac4:	66 24       	eor	r6, r6
     ac6:	06 c0       	rjmp	.+12     	; 0xad4 <prepareFat+0xd2>
		cmd17Fast((unsigned long)fatAddr + (unsigned long)ft * 2);					// Lê próximo cluster
		ft = readByteFast();
		ft += (unsigned short)readByteFast()*0x100;
		readByteFast(); readByteFast(); // discard CRC bytes
		if (fn == fatNum) fat[(i + 1) % fatElemNum] = ft;							// Salva # cluster na lista
		if ((ft > 0xfff6) || (fn > fatNum))											// Se cluster for inválido ou final, ou extrapolar
     ac8:	ff ef       	ldi	r31, 0xFF	; 255
     aca:	c7 3f       	cpi	r28, 0xF7	; 247
     acc:	df 07       	cpc	r29, r31
     ace:	f0 f5       	brcc	.+124    	; 0xb4c <prepareFat+0x14a>
     ad0:	fe 14       	cp	r15, r14
     ad2:	e0 f1       	brcs	.+120    	; 0xb4c <prepareFat+0x14a>
	cmd17Fast(rootAddr + i * 32 + 26);												// Ler cluster inicial desse arquivo
	ft = readByteFast();
	ft += (unsigned short)readByteFast() * 0x100;									// Cluster é 16 bits little-endian
	readByteFast(); readByteFast(); // discard CRC bytes
	if (0 == fatNum) fat[0] = ft;													// ?
	for (i = 0; i < len; i++) {
     ad4:	08 15       	cp	r16, r8
     ad6:	19 05       	cpc	r17, r9
     ad8:	c8 f5       	brcc	.+114    	; 0xb4c <prepareFat+0x14a>
		fn = (i + 1) / fatElemNum;
     ada:	0f 5f       	subi	r16, 0xFF	; 255
     adc:	1f 4f       	sbci	r17, 0xFF	; 255
     ade:	c8 01       	movw	r24, r16
     ae0:	67 2d       	mov	r22, r7
     ae2:	76 2d       	mov	r23, r6
     ae4:	0e 94 f9 14 	call	0x29f2	; 0x29f2 <__divmodhi4>
     ae8:	5c 01       	movw	r10, r24
     aea:	e6 2e       	mov	r14, r22
		cmd17Fast((unsigned long)fatAddr + (unsigned long)ft * 2);					// Lê próximo cluster
     aec:	be 01       	movw	r22, r28
     aee:	80 e0       	ldi	r24, 0x00	; 0
     af0:	90 e0       	ldi	r25, 0x00	; 0
     af2:	66 0f       	add	r22, r22
     af4:	77 1f       	adc	r23, r23
     af6:	88 1f       	adc	r24, r24
     af8:	99 1f       	adc	r25, r25
     afa:	20 91 05 08 	lds	r18, 0x0805
     afe:	30 91 06 08 	lds	r19, 0x0806
     b02:	40 91 07 08 	lds	r20, 0x0807
     b06:	50 91 08 08 	lds	r21, 0x0808
     b0a:	62 0f       	add	r22, r18
     b0c:	73 1f       	adc	r23, r19
     b0e:	84 1f       	adc	r24, r20
     b10:	95 1f       	adc	r25, r21
     b12:	0e 94 2a 03 	call	0x654	; 0x654 <cmd17Fast>
		ft = readByteFast();
     b16:	0e 94 90 02 	call	0x520	; 0x520 <readByteFast>
     b1a:	c8 2f       	mov	r28, r24
     b1c:	d0 e0       	ldi	r29, 0x00	; 0
		ft += (unsigned short)readByteFast()*0x100;
     b1e:	0e 94 90 02 	call	0x520	; 0x520 <readByteFast>
     b22:	d8 2e       	mov	r13, r24
     b24:	cc 24       	eor	r12, r12
     b26:	cc 0d       	add	r28, r12
     b28:	dd 1d       	adc	r29, r13
		readByteFast(); readByteFast(); // discard CRC bytes
     b2a:	0e 94 90 02 	call	0x520	; 0x520 <readByteFast>
     b2e:	0e 94 90 02 	call	0x520	; 0x520 <readByteFast>
		if (fn == fatNum) fat[(i + 1) % fatElemNum] = ft;							// Salva # cluster na lista
     b32:	ef 14       	cp	r14, r15
     b34:	49 f6       	brne	.-110    	; 0xac8 <prepareFat+0xc6>
     b36:	f5 01       	movw	r30, r10
     b38:	ee 0f       	add	r30, r30
     b3a:	ff 1f       	adc	r31, r31
     b3c:	e4 0d       	add	r30, r4
     b3e:	f5 1d       	adc	r31, r5
     b40:	d1 83       	std	Z+1, r29	; 0x01
     b42:	c0 83       	st	Z, r28
		if ((ft > 0xfff6) || (fn > fatNum))											// Se cluster for inválido ou final, ou extrapolar
     b44:	ff ef       	ldi	r31, 0xFF	; 255
     b46:	c7 3f       	cpi	r28, 0xF7	; 247
     b48:	df 07       	cpc	r29, r31
     b4a:	10 f2       	brcs	.-124    	; 0xad0 <prepareFat+0xce>
			break;																	// limite da tabela
	}
	cmdFast(16, (unsigned long)512);												// Prepara para ler 512 bytes
     b4c:	80 e1       	ldi	r24, 0x10	; 16
     b4e:	40 e0       	ldi	r20, 0x00	; 0
     b50:	52 e0       	ldi	r21, 0x02	; 2
     b52:	60 e0       	ldi	r22, 0x00	; 0
     b54:	70 e0       	ldi	r23, 0x00	; 0
     b56:	0e 94 fa 02 	call	0x5f4	; 0x5f4 <cmdFast>
     b5a:	6a cf       	rjmp	.-300    	; 0xa30 <prepareFat+0x2e>
	cmdFast(16, (unsigned long)2);
	cmd17Fast(rootAddr + i * 32 + 26);												// Ler cluster inicial desse arquivo
	ft = readByteFast();
	ft += (unsigned short)readByteFast() * 0x100;									// Cluster é 16 bits little-endian
	readByteFast(); readByteFast(); // discard CRC bytes
	if (0 == fatNum) fat[0] = ft;													// ?
     b5c:	f2 01       	movw	r30, r4
     b5e:	d1 83       	std	Z+1, r29	; 0x01
     b60:	c0 83       	st	Z, r28
     b62:	ae cf       	rjmp	.-164    	; 0xac0 <prepareFat+0xbe>

00000b64 <memcp>:
// memory copy
void memcp(unsigned char *dst, unsigned char *src, unsigned short len)
{
	unsigned short i;
	
	for (i = 0; i < len; i++) dst[i] = src[i];
     b64:	41 15       	cp	r20, r1
     b66:	51 05       	cpc	r21, r1
     b68:	61 f0       	breq	.+24     	; 0xb82 <memcp+0x1e>
     b6a:	a6 2f       	mov	r26, r22
     b6c:	b7 2f       	mov	r27, r23
     b6e:	e8 2f       	mov	r30, r24
     b70:	f9 2f       	mov	r31, r25
     b72:	80 e0       	ldi	r24, 0x00	; 0
     b74:	90 e0       	ldi	r25, 0x00	; 0
     b76:	2d 91       	ld	r18, X+
     b78:	21 93       	st	Z+, r18
     b7a:	01 96       	adiw	r24, 0x01	; 1
     b7c:	84 17       	cp	r24, r20
     b7e:	95 07       	cpc	r25, r21
     b80:	d0 f3       	brcs	.-12     	; 0xb76 <memcp+0x12>
     b82:	08 95       	ret

00000b84 <writeSD>:
}

/******************************************************************************/
// write to the SD cart one by one
void writeSD(unsigned long adr, unsigned char *data, unsigned short len)
{
     b84:	4f 92       	push	r4
     b86:	5f 92       	push	r5
     b88:	6f 92       	push	r6
     b8a:	7f 92       	push	r7
     b8c:	8f 92       	push	r8
     b8e:	9f 92       	push	r9
     b90:	af 92       	push	r10
     b92:	bf 92       	push	r11
     b94:	cf 92       	push	r12
     b96:	df 92       	push	r13
     b98:	ef 92       	push	r14
     b9a:	ff 92       	push	r15
     b9c:	0f 93       	push	r16
     b9e:	1f 93       	push	r17
     ba0:	cf 93       	push	r28
     ba2:	df 93       	push	r29
     ba4:	5b 01       	movw	r10, r22
     ba6:	6c 01       	movw	r12, r24
     ba8:	54 2e       	mov	r5, r20
     baa:	45 2e       	mov	r4, r21
     bac:	89 01       	movw	r16, r18
	unsigned int i;
	unsigned char *buf = &writeData[0][0];

	if (bit_is_set(PIND, 3)) return;												// Cartão foi removido
     bae:	4b 9b       	sbis	0x09, 3	; 9
     bb0:	11 c0       	rjmp	.+34     	; 0xbd4 <writeSD+0x50>
	readByteFast();																	// Ler byte de status (ignora)
	waitFinish();																	// Espera terminar a gravação
	
	PORTD = NCLKNDI_CS;
	PORTD = NCLKNDINCS;
}
     bb2:	df 91       	pop	r29
     bb4:	cf 91       	pop	r28
     bb6:	1f 91       	pop	r17
     bb8:	0f 91       	pop	r16
     bba:	ff 90       	pop	r15
     bbc:	ef 90       	pop	r14
     bbe:	df 90       	pop	r13
     bc0:	cf 90       	pop	r12
     bc2:	bf 90       	pop	r11
     bc4:	af 90       	pop	r10
     bc6:	9f 90       	pop	r9
     bc8:	8f 90       	pop	r8
     bca:	7f 90       	pop	r7
     bcc:	6f 90       	pop	r6
     bce:	5f 90       	pop	r5
     bd0:	4f 90       	pop	r4
     bd2:	08 95       	ret
	unsigned int i;
	unsigned char *buf = &writeData[0][0];

	if (bit_is_set(PIND, 3)) return;												// Cartão foi removido

	cmdFast(16, 512);																// Ler 512 bytes
     bd4:	80 e1       	ldi	r24, 0x10	; 16
     bd6:	40 e0       	ldi	r20, 0x00	; 0
     bd8:	52 e0       	ldi	r21, 0x02	; 2
     bda:	60 e0       	ldi	r22, 0x00	; 0
     bdc:	70 e0       	ldi	r23, 0x00	; 0
     bde:	0e 94 fa 02 	call	0x5f4	; 0x5f4 <cmdFast>
	cmd17Fast(adr & 0xfffffe00);													// Filtrar endereço
     be2:	61 2c       	mov	r6, r1
     be4:	5e ef       	ldi	r21, 0xFE	; 254
     be6:	75 2e       	mov	r7, r21
     be8:	5f ef       	ldi	r21, 0xFF	; 255
     bea:	85 2e       	mov	r8, r21
     bec:	5f ef       	ldi	r21, 0xFF	; 255
     bee:	95 2e       	mov	r9, r21
     bf0:	6a 20       	and	r6, r10
     bf2:	7b 20       	and	r7, r11
     bf4:	8c 20       	and	r8, r12
     bf6:	9d 20       	and	r9, r13
     bf8:	c4 01       	movw	r24, r8
     bfa:	b3 01       	movw	r22, r6
     bfc:	0e 94 2a 03 	call	0x654	; 0x654 <cmd17Fast>
     c00:	c0 e2       	ldi	r28, 0x20	; 32
     c02:	d1 e0       	ldi	r29, 0x01	; 1
	for (i = 0; i < len; i++) dst[i] = src[i];
}

/******************************************************************************/
// write to the SD cart one by one
void writeSD(unsigned long adr, unsigned char *data, unsigned short len)
     c04:	7e 01       	movw	r14, r28

	if (bit_is_set(PIND, 3)) return;												// Cartão foi removido

	cmdFast(16, 512);																// Ler 512 bytes
	cmd17Fast(adr & 0xfffffe00);													// Filtrar endereço
	for (i = 0; i < 512; i++) buf[i] = readByteFast();								// Ler e salvar em *buf
     c06:	0e 94 90 02 	call	0x520	; 0x520 <readByteFast>
     c0a:	f7 01       	movw	r30, r14
     c0c:	81 93       	st	Z+, r24
     c0e:	7f 01       	movw	r14, r30
     c10:	f0 e2       	ldi	r31, 0x20	; 32
     c12:	ef 16       	cp	r14, r31
     c14:	f3 e0       	ldi	r31, 0x03	; 3
     c16:	ff 06       	cpc	r15, r31
     c18:	b1 f7       	brne	.-20     	; 0xc06 <writeSD+0x82>
	readByteFast(); readByteFast(); // discard CRC bytes
     c1a:	0e 94 90 02 	call	0x520	; 0x520 <readByteFast>
     c1e:	0e 94 90 02 	call	0x520	; 0x520 <readByteFast>
	memcp( &(buf[adr & 0x1ff]), data, len);											// Copiar dados para *buf
     c22:	f5 01       	movw	r30, r10
     c24:	f1 70       	andi	r31, 0x01	; 1
     c26:	e0 5e       	subi	r30, 0xE0	; 224
     c28:	fe 4f       	sbci	r31, 0xFE	; 254
// memory copy
void memcp(unsigned char *dst, unsigned char *src, unsigned short len)
{
	unsigned short i;
	
	for (i = 0; i < len; i++) dst[i] = src[i];
     c2a:	01 15       	cp	r16, r1
     c2c:	11 05       	cpc	r17, r1
     c2e:	59 f0       	breq	.+22     	; 0xc46 <writeSD+0xc2>
     c30:	c2 01       	movw	r24, r4
     c32:	a9 2f       	mov	r26, r25
     c34:	b4 2d       	mov	r27, r4
     c36:	80 e0       	ldi	r24, 0x00	; 0
     c38:	90 e0       	ldi	r25, 0x00	; 0
     c3a:	2d 91       	ld	r18, X+
     c3c:	21 93       	st	Z+, r18
     c3e:	01 96       	adiw	r24, 0x01	; 1
     c40:	80 17       	cp	r24, r16
     c42:	91 07       	cpc	r25, r17
     c44:	d0 f3       	brcs	.-12     	; 0xc3a <writeSD+0xb6>
	cmd17Fast(adr & 0xfffffe00);													// Filtrar endereço
	for (i = 0; i < 512; i++) buf[i] = readByteFast();								// Ler e salvar em *buf
	readByteFast(); readByteFast(); // discard CRC bytes
	memcp( &(buf[adr & 0x1ff]), data, len);											// Copiar dados para *buf
	
	PORTD = NCLKNDI_CS;
     c46:	82 ec       	ldi	r24, 0xC2	; 194
     c48:	8b b9       	out	0x0b, r24	; 11
	PORTD = NCLKNDINCS;
     c4a:	80 ec       	ldi	r24, 0xC0	; 192
     c4c:	8b b9       	out	0x0b, r24	; 11
				
	cmdFast(24, adr & 0xfffffe00);													// Endereço de gravação
     c4e:	88 e1       	ldi	r24, 0x18	; 24
     c50:	b4 01       	movw	r22, r8
     c52:	a3 01       	movw	r20, r6
     c54:	0e 94 fa 02 	call	0x5f4	; 0x5f4 <cmdFast>
	writeByteFast(0xff);															// Obrigatório enviar isso
     c58:	8f ef       	ldi	r24, 0xFF	; 255
     c5a:	0e 94 42 02 	call	0x484	; 0x484 <writeByteFast>
	writeByteFast(0xfe);															// Obrigatório enviar isso
     c5e:	8e ef       	ldi	r24, 0xFE	; 254
     c60:	0e 94 42 02 	call	0x484	; 0x484 <writeByteFast>
	for (i = 0; i < 512; i++) writeByteFast(buf[i]);								// Enviar dados para gravação
     c64:	89 91       	ld	r24, Y+
     c66:	0e 94 42 02 	call	0x484	; 0x484 <writeByteFast>
     c6a:	83 e0       	ldi	r24, 0x03	; 3
     c6c:	c0 32       	cpi	r28, 0x20	; 32
     c6e:	d8 07       	cpc	r29, r24
     c70:	c9 f7       	brne	.-14     	; 0xc64 <writeSD+0xe0>
	writeByteFast(0xff);															// CRC falso
     c72:	8f ef       	ldi	r24, 0xFF	; 255
     c74:	0e 94 42 02 	call	0x484	; 0x484 <writeByteFast>
	writeByteFast(0xff);															// CRC falso
     c78:	8f ef       	ldi	r24, 0xFF	; 255
     c7a:	0e 94 42 02 	call	0x484	; 0x484 <writeByteFast>
	readByteFast();																	// Ler byte de status (ignora)
     c7e:	0e 94 90 02 	call	0x520	; 0x520 <readByteFast>
	waitFinish();																	// Espera terminar a gravação
     c82:	0e 94 b0 02 	call	0x560	; 0x560 <waitFinish>
	
	PORTD = NCLKNDI_CS;
     c86:	82 ec       	ldi	r24, 0xC2	; 194
     c88:	8b b9       	out	0x0b, r24	; 11
	PORTD = NCLKNDINCS;
     c8a:	80 ec       	ldi	r24, 0xC0	; 192
     c8c:	8b b9       	out	0x0b, r24	; 11
     c8e:	91 cf       	rjmp	.-222    	; 0xbb2 <writeSD+0x2e>

00000c90 <duplicateFat>:
}

/******************************************************************************/
// duplicate FAT for FAT16
void duplicateFat(void)
{
     c90:	8f 92       	push	r8
     c92:	9f 92       	push	r9
     c94:	af 92       	push	r10
     c96:	bf 92       	push	r11
     c98:	cf 92       	push	r12
     c9a:	df 92       	push	r13
     c9c:	ef 92       	push	r14
     c9e:	ff 92       	push	r15
     ca0:	0f 93       	push	r16
     ca2:	1f 93       	push	r17
     ca4:	cf 93       	push	r28
     ca6:	df 93       	push	r29
	unsigned short i, j;
	unsigned long adr = fatAddr;
     ca8:	c0 90 05 08 	lds	r12, 0x0805
     cac:	d0 90 06 08 	lds	r13, 0x0806
     cb0:	e0 90 07 08 	lds	r14, 0x0807
     cb4:	f0 90 08 08 	lds	r15, 0x0808
	unsigned char *buf = &writeData[0][0];

	if (bit_is_set(PIND, 3)) return;												// Cartão foi removido
     cb8:	4b 9b       	sbis	0x09, 3	; 9
     cba:	0d c0       	rjmp	.+26     	; 0xcd6 <duplicateFat+0x46>
		adr += 512;
		
		PORTD = NCLKNDI_CS;
		PORTD = NCLKNDINCS;
	}
}
     cbc:	df 91       	pop	r29
     cbe:	cf 91       	pop	r28
     cc0:	1f 91       	pop	r17
     cc2:	0f 91       	pop	r16
     cc4:	ff 90       	pop	r15
     cc6:	ef 90       	pop	r14
     cc8:	df 90       	pop	r13
     cca:	cf 90       	pop	r12
     ccc:	bf 90       	pop	r11
     cce:	af 90       	pop	r10
     cd0:	9f 90       	pop	r9
     cd2:	8f 90       	pop	r8
     cd4:	08 95       	ret
	unsigned long adr = fatAddr;
	unsigned char *buf = &writeData[0][0];

	if (bit_is_set(PIND, 3)) return;												// Cartão foi removido

	cmdFast(16, 512);																// Ler 512 bytes
     cd6:	80 e1       	ldi	r24, 0x10	; 16
     cd8:	40 e0       	ldi	r20, 0x00	; 0
     cda:	52 e0       	ldi	r21, 0x02	; 2
     cdc:	60 e0       	ldi	r22, 0x00	; 0
     cde:	70 e0       	ldi	r23, 0x00	; 0
     ce0:	0e 94 fa 02 	call	0x5f4	; 0x5f4 <cmdFast>
	for (j = 0; j < sectorsPerFat; j++) {
     ce4:	80 91 fc 07 	lds	r24, 0x07FC
     ce8:	90 91 fd 07 	lds	r25, 0x07FD
     cec:	00 97       	sbiw	r24, 0x00	; 0
     cee:	31 f3       	breq	.-52     	; 0xcbc <duplicateFat+0x2c>
     cf0:	aa 24       	eor	r10, r10
     cf2:	bb 24       	eor	r11, r11
		cmd17Fast(adr);
		for (i=0; i < 512; i++) buf[i] = readByteFast();
		readByteFast(); readByteFast(); // discard CRC bytes

		PORTD = NCLKNDI_CS;
     cf4:	a2 ec       	ldi	r26, 0xC2	; 194
     cf6:	9a 2e       	mov	r9, r26
		PORTD = NCLKNDINCS;
     cf8:	f0 ec       	ldi	r31, 0xC0	; 192
     cfa:	8f 2e       	mov	r8, r31

	if (bit_is_set(PIND, 3)) return;												// Cartão foi removido

	cmdFast(16, 512);																// Ler 512 bytes
	for (j = 0; j < sectorsPerFat; j++) {
		cmd17Fast(adr);
     cfc:	c7 01       	movw	r24, r14
     cfe:	b6 01       	movw	r22, r12
     d00:	0e 94 2a 03 	call	0x654	; 0x654 <cmd17Fast>
     d04:	c0 e2       	ldi	r28, 0x20	; 32
     d06:	d1 e0       	ldi	r29, 0x01	; 1
	PORTD = NCLKNDINCS;
}

/******************************************************************************/
// duplicate FAT for FAT16
void duplicateFat(void)
     d08:	8e 01       	movw	r16, r28
	if (bit_is_set(PIND, 3)) return;												// Cartão foi removido

	cmdFast(16, 512);																// Ler 512 bytes
	for (j = 0; j < sectorsPerFat; j++) {
		cmd17Fast(adr);
		for (i=0; i < 512; i++) buf[i] = readByteFast();
     d0a:	0e 94 90 02 	call	0x520	; 0x520 <readByteFast>
     d0e:	d8 01       	movw	r26, r16
     d10:	8d 93       	st	X+, r24
     d12:	8d 01       	movw	r16, r26
     d14:	b3 e0       	ldi	r27, 0x03	; 3
     d16:	00 32       	cpi	r16, 0x20	; 32
     d18:	1b 07       	cpc	r17, r27
     d1a:	b9 f7       	brne	.-18     	; 0xd0a <duplicateFat+0x7a>
		readByteFast(); readByteFast(); // discard CRC bytes
     d1c:	0e 94 90 02 	call	0x520	; 0x520 <readByteFast>
     d20:	0e 94 90 02 	call	0x520	; 0x520 <readByteFast>

		PORTD = NCLKNDI_CS;
     d24:	9b b8       	out	0x0b, r9	; 11
		PORTD = NCLKNDINCS;
     d26:	8b b8       	out	0x0b, r8	; 11
		
		cmdFast(24, adr + (unsigned long)sectorsPerFat * 512);
     d28:	40 91 fc 07 	lds	r20, 0x07FC
     d2c:	50 91 fd 07 	lds	r21, 0x07FD
     d30:	60 e0       	ldi	r22, 0x00	; 0
     d32:	70 e0       	ldi	r23, 0x00	; 0
     d34:	e9 e0       	ldi	r30, 0x09	; 9
     d36:	44 0f       	add	r20, r20
     d38:	55 1f       	adc	r21, r21
     d3a:	66 1f       	adc	r22, r22
     d3c:	77 1f       	adc	r23, r23
     d3e:	ea 95       	dec	r30
     d40:	d1 f7       	brne	.-12     	; 0xd36 <duplicateFat+0xa6>
     d42:	4c 0d       	add	r20, r12
     d44:	5d 1d       	adc	r21, r13
     d46:	6e 1d       	adc	r22, r14
     d48:	7f 1d       	adc	r23, r15
     d4a:	88 e1       	ldi	r24, 0x18	; 24
     d4c:	0e 94 fa 02 	call	0x5f4	; 0x5f4 <cmdFast>
		writeByteFast(0xff);
     d50:	8f ef       	ldi	r24, 0xFF	; 255
     d52:	0e 94 42 02 	call	0x484	; 0x484 <writeByteFast>
		writeByteFast(0xfe);
     d56:	8e ef       	ldi	r24, 0xFE	; 254
     d58:	0e 94 42 02 	call	0x484	; 0x484 <writeByteFast>
		for (i = 0; i < 512; i++) writeByteFast(buf[i]);
     d5c:	89 91       	ld	r24, Y+
     d5e:	0e 94 42 02 	call	0x484	; 0x484 <writeByteFast>
     d62:	e3 e0       	ldi	r30, 0x03	; 3
     d64:	c0 32       	cpi	r28, 0x20	; 32
     d66:	de 07       	cpc	r29, r30
     d68:	c9 f7       	brne	.-14     	; 0xd5c <duplicateFat+0xcc>
		writeByteFast(0xff);
     d6a:	8f ef       	ldi	r24, 0xFF	; 255
     d6c:	0e 94 42 02 	call	0x484	; 0x484 <writeByteFast>
		writeByteFast(0xff);
     d70:	8f ef       	ldi	r24, 0xFF	; 255
     d72:	0e 94 42 02 	call	0x484	; 0x484 <writeByteFast>
		readByteFast();
     d76:	0e 94 90 02 	call	0x520	; 0x520 <readByteFast>
		waitFinish();
     d7a:	0e 94 b0 02 	call	0x560	; 0x560 <waitFinish>
		adr += 512;
		
		PORTD = NCLKNDI_CS;
     d7e:	9b b8       	out	0x0b, r9	; 11
		PORTD = NCLKNDINCS;
     d80:	8b b8       	out	0x0b, r8	; 11
	unsigned char *buf = &writeData[0][0];

	if (bit_is_set(PIND, 3)) return;												// Cartão foi removido

	cmdFast(16, 512);																// Ler 512 bytes
	for (j = 0; j < sectorsPerFat; j++) {
     d82:	08 94       	sec
     d84:	a1 1c       	adc	r10, r1
     d86:	b1 1c       	adc	r11, r1
     d88:	80 91 fc 07 	lds	r24, 0x07FC
     d8c:	90 91 fd 07 	lds	r25, 0x07FD
     d90:	a8 16       	cp	r10, r24
     d92:	b9 06       	cpc	r11, r25
     d94:	08 f0       	brcs	.+2      	; 0xd98 <duplicateFat+0x108>
     d96:	92 cf       	rjmp	.-220    	; 0xcbc <duplicateFat+0x2c>
		for (i = 0; i < 512; i++) writeByteFast(buf[i]);
		writeByteFast(0xff);
		writeByteFast(0xff);
		readByteFast();
		waitFinish();
		adr += 512;
     d98:	80 e0       	ldi	r24, 0x00	; 0
     d9a:	92 e0       	ldi	r25, 0x02	; 2
     d9c:	a0 e0       	ldi	r26, 0x00	; 0
     d9e:	b0 e0       	ldi	r27, 0x00	; 0
     da0:	c8 0e       	add	r12, r24
     da2:	d9 1e       	adc	r13, r25
     da4:	ea 1e       	adc	r14, r26
     da6:	fb 1e       	adc	r15, r27
     da8:	a9 cf       	rjmp	.-174    	; 0xcfc <duplicateFat+0x6c>

00000daa <createFile>:
}

/******************************************************************************/
// create a file image
int createFile(char *name, char *ext, unsigned short sectNum)
{
     daa:	3f 92       	push	r3
     dac:	4f 92       	push	r4
     dae:	5f 92       	push	r5
     db0:	6f 92       	push	r6
     db2:	7f 92       	push	r7
     db4:	8f 92       	push	r8
     db6:	9f 92       	push	r9
     db8:	af 92       	push	r10
     dba:	bf 92       	push	r11
     dbc:	cf 92       	push	r12
     dbe:	df 92       	push	r13
     dc0:	ef 92       	push	r14
     dc2:	ff 92       	push	r15
     dc4:	0f 93       	push	r16
     dc6:	1f 93       	push	r17
     dc8:	df 93       	push	r29
     dca:	cf 93       	push	r28
     dcc:	cd b7       	in	r28, 0x3d	; 61
     dce:	de b7       	in	r29, 0x3e	; 62
     dd0:	a4 97       	sbiw	r28, 0x24	; 36
     dd2:	0f b6       	in	r0, 0x3f	; 63
     dd4:	f8 94       	cli
     dd6:	de bf       	out	0x3e, r29	; 62
     dd8:	0f be       	out	0x3f, r0	; 63
     dda:	cd bf       	out	0x3d, r28	; 61
     ddc:	2a 01       	movw	r4, r20
	unsigned long ft, adr;
	unsigned short d, i;
	unsigned char c, dirEntry[32], at;
	static unsigned char last[2] = {0xff, 0xff};

	if (bit_is_set(PIND, 3)) return 0;												// Cartão foi removido
     dde:	4b 99       	sbic	0x09, 3	; 9
     de0:	3c c1       	rjmp	.+632    	; 0x105a <createFile+0x2b0>
     de2:	55 e0       	ldi	r21, 0x05	; 5
     de4:	a5 2e       	mov	r10, r21
     de6:	b1 2c       	mov	r11, r1
     de8:	ac 0e       	add	r10, r28
     dea:	bd 1e       	adc	r11, r29
     dec:	a5 01       	movw	r20, r10
	}
}

/******************************************************************************/
// create a file image
int createFile(char *name, char *ext, unsigned short sectNum)
     dee:	9e 01       	movw	r18, r28
     df0:	2b 5d       	subi	r18, 0xDB	; 219
     df2:	3f 4f       	sbci	r19, 0xFF	; 255
     df4:	d5 01       	movw	r26, r10
	unsigned char c, dirEntry[32], at;
	static unsigned char last[2] = {0xff, 0xff};

	if (bit_is_set(PIND, 3)) return 0;												// Cartão foi removido
	
	for (i = 0; i < 32; i++) dirEntry[i] = 0;										// Zera estrutura
     df6:	1d 92       	st	X+, r1
     df8:	a2 17       	cp	r26, r18
     dfa:	b3 07       	cpc	r27, r19
     dfc:	e1 f7       	brne	.-8      	; 0xdf6 <createFile+0x4c>
     dfe:	a8 2f       	mov	r26, r24
     e00:	b9 2f       	mov	r27, r25
	}
}

/******************************************************************************/
// create a file image
int createFile(char *name, char *ext, unsigned short sectNum)
     e02:	c5 01       	movw	r24, r10
     e04:	08 96       	adiw	r24, 0x08	; 8
// memory copy
void memcp(unsigned char *dst, unsigned char *src, unsigned short len)
{
	unsigned short i;
	
	for (i = 0; i < len; i++) dst[i] = src[i];
     e06:	2d 91       	ld	r18, X+
     e08:	fa 01       	movw	r30, r20
     e0a:	21 93       	st	Z+, r18
     e0c:	af 01       	movw	r20, r30
     e0e:	e8 17       	cp	r30, r24
     e10:	f9 07       	cpc	r31, r25
     e12:	c9 f7       	brne	.-14     	; 0xe06 <createFile+0x5c>
     e14:	db 01       	movw	r26, r22
     e16:	8c 91       	ld	r24, X
     e18:	8d 87       	std	Y+13, r24	; 0x0d
     e1a:	11 96       	adiw	r26, 0x01	; 1
     e1c:	8c 91       	ld	r24, X
     e1e:	11 97       	sbiw	r26, 0x01	; 1
     e20:	8e 87       	std	Y+14, r24	; 0x0e
     e22:	12 96       	adiw	r26, 0x02	; 2
     e24:	8c 91       	ld	r24, X
     e26:	8f 87       	std	Y+15, r24	; 0x0f
	if (bit_is_set(PIND, 3)) return 0;												// Cartão foi removido
	
	for (i = 0; i < 32; i++) dirEntry[i] = 0;										// Zera estrutura
	memcp(dirEntry, (unsigned char *)name, 8);										// Nome do arquivo
	memcp(dirEntry+8, (unsigned char*)ext, 3);										// Extensão do arquivo
	*(unsigned long *)(dirEntry + 28) = (unsigned long)sectNum * 512;				// Tamanho em bytes do arquivo
     e28:	c2 01       	movw	r24, r4
     e2a:	a0 e0       	ldi	r26, 0x00	; 0
     e2c:	b0 e0       	ldi	r27, 0x00	; 0
     e2e:	49 e0       	ldi	r20, 0x09	; 9
     e30:	88 0f       	add	r24, r24
     e32:	99 1f       	adc	r25, r25
     e34:	aa 1f       	adc	r26, r26
     e36:	bb 1f       	adc	r27, r27
     e38:	4a 95       	dec	r20
     e3a:	d1 f7       	brne	.-12     	; 0xe30 <createFile+0x86>
     e3c:	f5 01       	movw	r30, r10
     e3e:	84 8f       	std	Z+28, r24	; 0x1c
     e40:	95 8f       	std	Z+29, r25	; 0x1d
     e42:	a6 8f       	std	Z+30, r26	; 0x1e
     e44:	b7 8f       	std	Z+31, r27	; 0x1f
     e46:	ee 24       	eor	r14, r14
     e48:	ff 24       	eor	r15, r15
     e4a:	87 01       	movw	r16, r14
	
	// search a root directory entry
	for (re = 0; re < 512; re++) {
     e4c:	cc 24       	eor	r12, r12
     e4e:	dd 24       	eor	r13, r13
     e50:	11 c0       	rjmp	.+34     	; 0xe74 <createFile+0xca>
     e52:	08 94       	sec
     e54:	c1 1c       	adc	r12, r1
     e56:	d1 1c       	adc	r13, r1
     e58:	80 e2       	ldi	r24, 0x20	; 32
     e5a:	90 e0       	ldi	r25, 0x00	; 0
     e5c:	a0 e0       	ldi	r26, 0x00	; 0
     e5e:	b0 e0       	ldi	r27, 0x00	; 0
     e60:	e8 0e       	add	r14, r24
     e62:	f9 1e       	adc	r15, r25
     e64:	0a 1f       	adc	r16, r26
     e66:	1b 1f       	adc	r17, r27
     e68:	90 e0       	ldi	r25, 0x00	; 0
     e6a:	c9 16       	cp	r12, r25
     e6c:	92 e0       	ldi	r25, 0x02	; 2
     e6e:	d9 06       	cpc	r13, r25
     e70:	09 f4       	brne	.+2      	; 0xe74 <createFile+0xca>
     e72:	f3 c0       	rjmp	.+486    	; 0x105a <createFile+0x2b0>
		cmdFast(16, 1);
     e74:	80 e1       	ldi	r24, 0x10	; 16
     e76:	41 e0       	ldi	r20, 0x01	; 1
     e78:	50 e0       	ldi	r21, 0x00	; 0
     e7a:	60 e0       	ldi	r22, 0x00	; 0
     e7c:	70 e0       	ldi	r23, 0x00	; 0
     e7e:	0e 94 fa 02 	call	0x5f4	; 0x5f4 <cmdFast>
		cmd17Fast(rootAddr + re * 32 + 0);
     e82:	60 91 13 08 	lds	r22, 0x0813
     e86:	70 91 14 08 	lds	r23, 0x0814
     e8a:	80 91 15 08 	lds	r24, 0x0815
     e8e:	90 91 16 08 	lds	r25, 0x0816
     e92:	6e 0d       	add	r22, r14
     e94:	7f 1d       	adc	r23, r15
     e96:	80 1f       	adc	r24, r16
     e98:	91 1f       	adc	r25, r17
     e9a:	0e 94 2a 03 	call	0x654	; 0x654 <cmd17Fast>
		c = readByteFast();															// Primeiro char do nome do arquivo
     e9e:	0e 94 90 02 	call	0x520	; 0x520 <readByteFast>
     ea2:	98 2e       	mov	r9, r24
		readByteFast(); readByteFast(); // discard CRC bytes
     ea4:	0e 94 90 02 	call	0x520	; 0x520 <readByteFast>
     ea8:	0e 94 90 02 	call	0x520	; 0x520 <readByteFast>
		cmd17Fast(rootAddr + re * 32 + 11);
     eac:	60 91 13 08 	lds	r22, 0x0813
     eb0:	70 91 14 08 	lds	r23, 0x0814
     eb4:	80 91 15 08 	lds	r24, 0x0815
     eb8:	90 91 16 08 	lds	r25, 0x0816
     ebc:	65 5f       	subi	r22, 0xF5	; 245
     ebe:	7f 4f       	sbci	r23, 0xFF	; 255
     ec0:	8f 4f       	sbci	r24, 0xFF	; 255
     ec2:	9f 4f       	sbci	r25, 0xFF	; 255
     ec4:	6e 0d       	add	r22, r14
     ec6:	7f 1d       	adc	r23, r15
     ec8:	80 1f       	adc	r24, r16
     eca:	91 1f       	adc	r25, r17
     ecc:	0e 94 2a 03 	call	0x654	; 0x654 <cmd17Fast>
		at = readByteFast();														// Atributo do arquivo
     ed0:	0e 94 90 02 	call	0x520	; 0x520 <readByteFast>
     ed4:	88 2e       	mov	r8, r24
		readByteFast(); readByteFast(); // discard CRC bytes
     ed6:	0e 94 90 02 	call	0x520	; 0x520 <readByteFast>
     eda:	0e 94 90 02 	call	0x520	; 0x520 <readByteFast>
		if (((c == 0xe5) || (c == 0x00)) && (at != 0xf))							// find a RDE! (Procura uma posição vaga)
     ede:	f9 2d       	mov	r31, r9
     ee0:	f5 3e       	cpi	r31, 0xE5	; 229
     ee2:	19 f0       	breq	.+6      	; 0xeea <createFile+0x140>
     ee4:	99 20       	and	r9, r9
     ee6:	09 f0       	breq	.+2      	; 0xeea <createFile+0x140>
     ee8:	b4 cf       	rjmp	.-152    	; 0xe52 <createFile+0xa8>
     eea:	88 2d       	mov	r24, r8
     eec:	8f 30       	cpi	r24, 0x0F	; 15
     eee:	09 f4       	brne	.+2      	; 0xef2 <createFile+0x148>
     ef0:	b0 cf       	rjmp	.-160    	; 0xe52 <createFile+0xa8>
			break;
	}	
	if (re == 512)																	// Não achou!! :(
		return 0;
	// write a directory entry
	writeSD(rootAddr + re * 32, dirEntry, 32);
     ef2:	60 91 13 08 	lds	r22, 0x0813
     ef6:	70 91 14 08 	lds	r23, 0x0814
     efa:	80 91 15 08 	lds	r24, 0x0815
     efe:	90 91 16 08 	lds	r25, 0x0816
     f02:	6e 0d       	add	r22, r14
     f04:	7f 1d       	adc	r23, r15
     f06:	80 1f       	adc	r24, r16
     f08:	91 1f       	adc	r25, r17
     f0a:	a5 01       	movw	r20, r10
     f0c:	20 e2       	ldi	r18, 0x20	; 32
     f0e:	30 e0       	ldi	r19, 0x00	; 0
     f10:	0e 94 c2 05 	call	0xb84	; 0xb84 <writeSD>
	if (sectNum == 0) {																// Se arquivo tiver zero bytes,
     f14:	41 14       	cp	r4, r1
     f16:	51 04       	cpc	r5, r1
     f18:	09 f4       	brne	.+2      	; 0xf1c <createFile+0x172>
     f1a:	c2 c0       	rjmp	.+388    	; 0x10a0 <createFile+0x2f6>
		duplicateFat();																// Duplicar FAT e sair
		return 1;
	}
	// search the first fat entry
	adr = (rootAddr + re * 32 + 26);												// Endereço do Número do cluster inicial (Dentro da entrada de diretório)
     f1c:	a0 90 13 08 	lds	r10, 0x0813
     f20:	b0 90 14 08 	lds	r11, 0x0814
     f24:	c0 90 15 08 	lds	r12, 0x0815
     f28:	d0 90 16 08 	lds	r13, 0x0816
     f2c:	8a e1       	ldi	r24, 0x1A	; 26
     f2e:	90 e0       	ldi	r25, 0x00	; 0
     f30:	a0 e0       	ldi	r26, 0x00	; 0
     f32:	b0 e0       	ldi	r27, 0x00	; 0
     f34:	a8 0e       	add	r10, r24
     f36:	b9 1e       	adc	r11, r25
     f38:	ca 1e       	adc	r12, r26
     f3a:	db 1e       	adc	r13, r27
     f3c:	ae 0c       	add	r10, r14
     f3e:	bf 1c       	adc	r11, r15
     f40:	c0 1e       	adc	r12, r16
     f42:	d1 1e       	adc	r13, r17
	clusterNum = 0;
	for (ft=2; (clusterNum < ( ( sectNum + sectorsPerCluster - 1 ) >> sectorsPerCluster2 ) ); ft++) {
     f44:	82 e0       	ldi	r24, 0x02	; 2
     f46:	90 e0       	ldi	r25, 0x00	; 0
     f48:	a0 e0       	ldi	r26, 0x00	; 0
     f4a:	b0 e0       	ldi	r27, 0x00	; 0
     f4c:	89 83       	std	Y+1, r24	; 0x01
     f4e:	9a 83       	std	Y+2, r25	; 0x02
     f50:	ab 83       	std	Y+3, r26	; 0x03
     f52:	bc 83       	std	Y+4, r27	; 0x04
     f54:	80 91 09 08 	lds	r24, 0x0809
     f58:	90 e0       	ldi	r25, 0x00	; 0
     f5a:	01 97       	sbiw	r24, 0x01	; 1
     f5c:	84 0d       	add	r24, r4
     f5e:	95 1d       	adc	r25, r5
     f60:	00 90 18 01 	lds	r0, 0x0118
     f64:	02 c0       	rjmp	.+4      	; 0xf6a <createFile+0x1c0>
     f66:	96 95       	lsr	r25
     f68:	87 95       	ror	r24
     f6a:	0a 94       	dec	r0
     f6c:	e2 f7       	brpl	.-8      	; 0xf66 <createFile+0x1bc>
     f6e:	00 97       	sbiw	r24, 0x00	; 0
     f70:	09 f4       	brne	.+2      	; 0xf74 <createFile+0x1ca>
     f72:	8e c0       	rjmp	.+284    	; 0x1090 <createFile+0x2e6>
     f74:	00 e0       	ldi	r16, 0x00	; 0
     f76:	10 e0       	ldi	r17, 0x00	; 0
		d = readByteFast();
		d += (unsigned short)readByteFast() * 0x100;
		readByteFast(); readByteFast(); // discard CRC bytes
		if (d==0) {																	// Se cluster for 0, está vazio
			clusterNum++;
			writeSD(adr, (unsigned char *)&ft, 2);									// Salva número do cluster vazio
     f78:	4e 01       	movw	r8, r28
     f7a:	08 94       	sec
     f7c:	81 1c       	adc	r8, r1
     f7e:	91 1c       	adc	r9, r1
     f80:	1c c0       	rjmp	.+56     	; 0xfba <createFile+0x210>
		cmdFast(16, 2);
		cmd17Fast(fatAddr + ft * 2);
		d = readByteFast();
		d += (unsigned short)readByteFast() * 0x100;
		readByteFast(); readByteFast(); // discard CRC bytes
		if (d==0) {																	// Se cluster for 0, está vazio
     f82:	89 81       	ldd	r24, Y+1	; 0x01
     f84:	9a 81       	ldd	r25, Y+2	; 0x02
     f86:	ab 81       	ldd	r26, Y+3	; 0x03
     f88:	bc 81       	ldd	r27, Y+4	; 0x04
		return 1;
	}
	// search the first fat entry
	adr = (rootAddr + re * 32 + 26);												// Endereço do Número do cluster inicial (Dentro da entrada de diretório)
	clusterNum = 0;
	for (ft=2; (clusterNum < ( ( sectNum + sectorsPerCluster - 1 ) >> sectorsPerCluster2 ) ); ft++) {
     f8a:	01 96       	adiw	r24, 0x01	; 1
     f8c:	a1 1d       	adc	r26, r1
     f8e:	b1 1d       	adc	r27, r1
     f90:	89 83       	std	Y+1, r24	; 0x01
     f92:	9a 83       	std	Y+2, r25	; 0x02
     f94:	ab 83       	std	Y+3, r26	; 0x03
     f96:	bc 83       	std	Y+4, r27	; 0x04
     f98:	80 91 09 08 	lds	r24, 0x0809
     f9c:	90 e0       	ldi	r25, 0x00	; 0
     f9e:	01 97       	sbiw	r24, 0x01	; 1
     fa0:	84 0d       	add	r24, r4
     fa2:	95 1d       	adc	r25, r5
     fa4:	00 90 18 01 	lds	r0, 0x0118
     fa8:	02 c0       	rjmp	.+4      	; 0xfae <createFile+0x204>
     faa:	96 95       	lsr	r25
     fac:	87 95       	ror	r24
     fae:	0a 94       	dec	r0
     fb0:	e2 f7       	brpl	.-8      	; 0xfaa <createFile+0x200>
     fb2:	08 17       	cp	r16, r24
     fb4:	19 07       	cpc	r17, r25
     fb6:	08 f0       	brcs	.+2      	; 0xfba <createFile+0x210>
     fb8:	6b c0       	rjmp	.+214    	; 0x1090 <createFile+0x2e6>
		cmdFast(16, 2);
     fba:	80 e1       	ldi	r24, 0x10	; 16
     fbc:	42 e0       	ldi	r20, 0x02	; 2
     fbe:	50 e0       	ldi	r21, 0x00	; 0
     fc0:	60 e0       	ldi	r22, 0x00	; 0
     fc2:	70 e0       	ldi	r23, 0x00	; 0
     fc4:	0e 94 fa 02 	call	0x5f4	; 0x5f4 <cmdFast>
		cmd17Fast(fatAddr + ft * 2);
     fc8:	69 81       	ldd	r22, Y+1	; 0x01
     fca:	7a 81       	ldd	r23, Y+2	; 0x02
     fcc:	8b 81       	ldd	r24, Y+3	; 0x03
     fce:	9c 81       	ldd	r25, Y+4	; 0x04
     fd0:	66 0f       	add	r22, r22
     fd2:	77 1f       	adc	r23, r23
     fd4:	88 1f       	adc	r24, r24
     fd6:	99 1f       	adc	r25, r25
     fd8:	20 91 05 08 	lds	r18, 0x0805
     fdc:	30 91 06 08 	lds	r19, 0x0806
     fe0:	40 91 07 08 	lds	r20, 0x0807
     fe4:	50 91 08 08 	lds	r21, 0x0808
     fe8:	62 0f       	add	r22, r18
     fea:	73 1f       	adc	r23, r19
     fec:	84 1f       	adc	r24, r20
     fee:	95 1f       	adc	r25, r21
     ff0:	0e 94 2a 03 	call	0x654	; 0x654 <cmd17Fast>
		d = readByteFast();
     ff4:	0e 94 90 02 	call	0x520	; 0x520 <readByteFast>
     ff8:	e8 2e       	mov	r14, r24
     ffa:	ff 24       	eor	r15, r15
		d += (unsigned short)readByteFast() * 0x100;
     ffc:	0e 94 90 02 	call	0x520	; 0x520 <readByteFast>
    1000:	38 2e       	mov	r3, r24
		readByteFast(); readByteFast(); // discard CRC bytes
    1002:	0e 94 90 02 	call	0x520	; 0x520 <readByteFast>
    1006:	0e 94 90 02 	call	0x520	; 0x520 <readByteFast>
	clusterNum = 0;
	for (ft=2; (clusterNum < ( ( sectNum + sectorsPerCluster - 1 ) >> sectorsPerCluster2 ) ); ft++) {
		cmdFast(16, 2);
		cmd17Fast(fatAddr + ft * 2);
		d = readByteFast();
		d += (unsigned short)readByteFast() * 0x100;
    100a:	73 2c       	mov	r7, r3
    100c:	66 24       	eor	r6, r6
    100e:	e6 0c       	add	r14, r6
    1010:	f7 1c       	adc	r15, r7
		readByteFast(); readByteFast(); // discard CRC bytes
		if (d==0) {																	// Se cluster for 0, está vazio
    1012:	e1 14       	cp	r14, r1
    1014:	f1 04       	cpc	r15, r1
    1016:	09 f0       	breq	.+2      	; 0x101a <createFile+0x270>
    1018:	b4 cf       	rjmp	.-152    	; 0xf82 <createFile+0x1d8>
			clusterNum++;
    101a:	0f 5f       	subi	r16, 0xFF	; 255
    101c:	1f 4f       	sbci	r17, 0xFF	; 255
			writeSD(adr, (unsigned char *)&ft, 2);									// Salva número do cluster vazio
    101e:	c6 01       	movw	r24, r12
    1020:	b5 01       	movw	r22, r10
    1022:	a4 01       	movw	r20, r8
    1024:	22 e0       	ldi	r18, 0x02	; 2
    1026:	30 e0       	ldi	r19, 0x00	; 0
    1028:	0e 94 c2 05 	call	0xb84	; 0xb84 <writeSD>
			adr = fatAddr + ft * 2;													// Aponta para o próximo cluster
    102c:	89 81       	ldd	r24, Y+1	; 0x01
    102e:	9a 81       	ldd	r25, Y+2	; 0x02
    1030:	ab 81       	ldd	r26, Y+3	; 0x03
    1032:	bc 81       	ldd	r27, Y+4	; 0x04
    1034:	5c 01       	movw	r10, r24
    1036:	6d 01       	movw	r12, r26
    1038:	aa 0c       	add	r10, r10
    103a:	bb 1c       	adc	r11, r11
    103c:	cc 1c       	adc	r12, r12
    103e:	dd 1c       	adc	r13, r13
    1040:	20 91 05 08 	lds	r18, 0x0805
    1044:	30 91 06 08 	lds	r19, 0x0806
    1048:	40 91 07 08 	lds	r20, 0x0807
    104c:	50 91 08 08 	lds	r21, 0x0808
    1050:	a2 0e       	add	r10, r18
    1052:	b3 1e       	adc	r11, r19
    1054:	c4 1e       	adc	r12, r20
    1056:	d5 1e       	adc	r13, r21
    1058:	98 cf       	rjmp	.-208    	; 0xf8a <createFile+0x1e0>
	unsigned long ft, adr;
	unsigned short d, i;
	unsigned char c, dirEntry[32], at;
	static unsigned char last[2] = {0xff, 0xff};

	if (bit_is_set(PIND, 3)) return 0;												// Cartão foi removido
    105a:	20 e0       	ldi	r18, 0x00	; 0
    105c:	30 e0       	ldi	r19, 0x00	; 0
		}
	}
	writeSD(adr, last, 2);															// Salva 0xFFFF para indicar fim de arquivo
	duplicateFat();
	return 1;
}
    105e:	c9 01       	movw	r24, r18
    1060:	a4 96       	adiw	r28, 0x24	; 36
    1062:	0f b6       	in	r0, 0x3f	; 63
    1064:	f8 94       	cli
    1066:	de bf       	out	0x3e, r29	; 62
    1068:	0f be       	out	0x3f, r0	; 63
    106a:	cd bf       	out	0x3d, r28	; 61
    106c:	cf 91       	pop	r28
    106e:	df 91       	pop	r29
    1070:	1f 91       	pop	r17
    1072:	0f 91       	pop	r16
    1074:	ff 90       	pop	r15
    1076:	ef 90       	pop	r14
    1078:	df 90       	pop	r13
    107a:	cf 90       	pop	r12
    107c:	bf 90       	pop	r11
    107e:	af 90       	pop	r10
    1080:	9f 90       	pop	r9
    1082:	8f 90       	pop	r8
    1084:	7f 90       	pop	r7
    1086:	6f 90       	pop	r6
    1088:	5f 90       	pop	r5
    108a:	4f 90       	pop	r4
    108c:	3f 90       	pop	r3
    108e:	08 95       	ret
			clusterNum++;
			writeSD(adr, (unsigned char *)&ft, 2);									// Salva número do cluster vazio
			adr = fatAddr + ft * 2;													// Aponta para o próximo cluster
		}
	}
	writeSD(adr, last, 2);															// Salva 0xFFFF para indicar fim de arquivo
    1090:	c6 01       	movw	r24, r12
    1092:	b5 01       	movw	r22, r10
    1094:	4e e0       	ldi	r20, 0x0E	; 14
    1096:	51 e0       	ldi	r21, 0x01	; 1
    1098:	22 e0       	ldi	r18, 0x02	; 2
    109a:	30 e0       	ldi	r19, 0x00	; 0
    109c:	0e 94 c2 05 	call	0xb84	; 0xb84 <writeSD>
	duplicateFat();
    10a0:	0e 94 48 06 	call	0xc90	; 0xc90 <duplicateFat>
	return 1;
    10a4:	21 e0       	ldi	r18, 0x01	; 1
    10a6:	30 e0       	ldi	r19, 0x00	; 0
    10a8:	da cf       	rjmp	.-76     	; 0x105e <createFile+0x2b4>

000010aa <dsk2Nic>:
}

/******************************************************************************/
// translate a DSK image into a NIC image
void dsk2Nic(void)
{
    10aa:	2f 92       	push	r2
    10ac:	3f 92       	push	r3
    10ae:	4f 92       	push	r4
    10b0:	5f 92       	push	r5
    10b2:	6f 92       	push	r6
    10b4:	7f 92       	push	r7
    10b6:	8f 92       	push	r8
    10b8:	9f 92       	push	r9
    10ba:	af 92       	push	r10
    10bc:	bf 92       	push	r11
    10be:	cf 92       	push	r12
    10c0:	df 92       	push	r13
    10c2:	ef 92       	push	r14
    10c4:	ff 92       	push	r15
    10c6:	0f 93       	push	r16
    10c8:	1f 93       	push	r17
    10ca:	df 93       	push	r29
    10cc:	cf 93       	push	r28
    10ce:	cd b7       	in	r28, 0x3d	; 61
    10d0:	de b7       	in	r29, 0x3e	; 62
    10d2:	2b 97       	sbiw	r28, 0x0b	; 11
    10d4:	0f b6       	in	r0, 0x3f	; 63
    10d6:	f8 94       	cli
    10d8:	de bf       	out	0x3e, r29	; 62
    10da:	0f be       	out	0x3f, r0	; 63
    10dc:	cd bf       	out	0x3d, r28	; 61
	unsigned char trk, logic_sector;

	unsigned short i;
	unsigned char *dst = (&writeData[0][0] + 512);
    10de:	e0 e2       	ldi	r30, 0x20	; 32
    10e0:	ae 2e       	mov	r10, r30
    10e2:	e3 e0       	ldi	r30, 0x03	; 3
    10e4:	be 2e       	mov	r11, r30
	unsigned short *fatDsk = (unsigned short *)(&writeData[0][0] + 1024);

	PORTB |= 0b00110000;
    10e6:	85 b1       	in	r24, 0x05	; 5
    10e8:	80 63       	ori	r24, 0x30	; 48
    10ea:	85 b9       	out	0x05, r24	; 5

	prevFatNumNic = prevFatNumDsk = 0xff;
    10ec:	8f ef       	ldi	r24, 0xFF	; 255
    10ee:	80 93 0a 08 	sts	0x080A, r24
    10f2:	80 93 fe 07 	sts	0x07FE, r24
    10f6:	ae 82       	std	Y+6, r10	; 0x06
    10f8:	bf 82       	std	Y+7, r11	; 0x07
	return 1;
}

/******************************************************************************/
// translate a DSK image into a NIC image
void dsk2Nic(void)
    10fa:	ea 2d       	mov	r30, r10
    10fc:	fb 2d       	mov	r31, r11

	PORTB |= 0b00110000;

	prevFatNumNic = prevFatNumDsk = 0xff;

	for (i = 0; i < 0x16; i++) dst[i] = 0xff;
    10fe:	8f ef       	ldi	r24, 0xFF	; 255
    1100:	81 93       	st	Z+, r24
    1102:	93 e0       	ldi	r25, 0x03	; 3
    1104:	e6 33       	cpi	r30, 0x36	; 54
    1106:	f9 07       	cpc	r31, r25
    1108:	d9 f7       	brne	.-10     	; 0x1100 <dsk2Nic+0x56>

	// sync header
	dst[0x16] = 0x03;
    110a:	93 e0       	ldi	r25, 0x03	; 3
    110c:	90 93 36 03 	sts	0x0336, r25
	dst[0x17] = 0xfc;
    1110:	9c ef       	ldi	r25, 0xFC	; 252
    1112:	90 93 37 03 	sts	0x0337, r25
	dst[0x18] = 0xff;
    1116:	80 93 38 03 	sts	0x0338, r24
	dst[0x19] = 0x3f;
    111a:	4f e3       	ldi	r20, 0x3F	; 63
    111c:	40 93 39 03 	sts	0x0339, r20
	dst[0x1a] = 0xcf;
    1120:	3f ec       	ldi	r19, 0xCF	; 207
    1122:	30 93 3a 03 	sts	0x033A, r19
	dst[0x1b] = 0xf3;
    1126:	23 ef       	ldi	r18, 0xF3	; 243
    1128:	20 93 3b 03 	sts	0x033B, r18
	dst[0x1c] = 0xfc;
    112c:	90 93 3c 03 	sts	0x033C, r25
	dst[0x1d] = 0xff;
    1130:	80 93 3d 03 	sts	0x033D, r24
	dst[0x1e] = 0x3f;
    1134:	40 93 3e 03 	sts	0x033E, r20
	dst[0x1f] = 0xcf;
    1138:	30 93 3f 03 	sts	0x033F, r19
	dst[0x20] = 0xf3;
    113c:	20 93 40 03 	sts	0x0340, r18
	dst[0x21] = 0xfc;
    1140:	90 93 41 03 	sts	0x0341, r25
	
	// address header
	dst[0x22] = 0xd5;
    1144:	45 ed       	ldi	r20, 0xD5	; 213
    1146:	40 93 42 03 	sts	0x0342, r20
	dst[0x23] = 0xaa;
    114a:	9a ea       	ldi	r25, 0xAA	; 170
    114c:	90 93 43 03 	sts	0x0343, r25
	dst[0x24] = 0x96;
    1150:	26 e9       	ldi	r18, 0x96	; 150
    1152:	20 93 44 03 	sts	0x0344, r18
	dst[0x2d] = 0xde;
    1156:	3e ed       	ldi	r19, 0xDE	; 222
    1158:	30 93 4d 03 	sts	0x034D, r19
	dst[0x2e] = 0xaa;
    115c:	90 93 4e 03 	sts	0x034E, r25
	dst[0x2f] = 0xeb;
    1160:	2b ee       	ldi	r18, 0xEB	; 235
    1162:	20 93 4f 03 	sts	0x034F, r18
	
	// sync header
	for (i=0x30; i<0x35; i++) dst[i]=0xff;
    1166:	80 93 50 03 	sts	0x0350, r24
    116a:	80 93 51 03 	sts	0x0351, r24
    116e:	80 93 52 03 	sts	0x0352, r24
    1172:	80 93 53 03 	sts	0x0353, r24
    1176:	80 93 54 03 	sts	0x0354, r24
	
	// data
	dst[0x35] = 0xd5;
    117a:	40 93 55 03 	sts	0x0355, r20
	dst[0x36] = 0xaa;
    117e:	90 93 56 03 	sts	0x0356, r25
	dst[0x37] = 0xad;
    1182:	8d ea       	ldi	r24, 0xAD	; 173
    1184:	80 93 57 03 	sts	0x0357, r24
	dst[0x18f] = 0xde;
    1188:	30 93 af 04 	sts	0x04AF, r19
	dst[0x190] = 0xaa;
    118c:	90 93 b0 04 	sts	0x04B0, r25
	dst[0x191] = 0xeb;
    1190:	20 93 b1 04 	sts	0x04B1, r18
	return 1;
}

/******************************************************************************/
// translate a DSK image into a NIC image
void dsk2Nic(void)
    1194:	e2 eb       	ldi	r30, 0xB2	; 178
    1196:	f4 e0       	ldi	r31, 0x04	; 4
	dst[0x37] = 0xad;
	dst[0x18f] = 0xde;
	dst[0x190] = 0xaa;
	dst[0x191] = 0xeb;
	for (i = 0x192; i < 0x1a0; i++)
		dst[i]=0xff;
    1198:	8f ef       	ldi	r24, 0xFF	; 255
    119a:	81 93       	st	Z+, r24
	dst[0x36] = 0xaa;
	dst[0x37] = 0xad;
	dst[0x18f] = 0xde;
	dst[0x190] = 0xaa;
	dst[0x191] = 0xeb;
	for (i = 0x192; i < 0x1a0; i++)
    119c:	a4 e0       	ldi	r26, 0x04	; 4
    119e:	e0 3c       	cpi	r30, 0xC0	; 192
    11a0:	fa 07       	cpc	r31, r26
    11a2:	d9 f7       	brne	.-10     	; 0x119a <dsk2Nic+0xf0>
		dst[i]=0xff;
	for (i = 0x1a0; i < 0x200; i++)
		dst[i]=0x00;
    11a4:	11 92       	st	Z+, r1
	dst[0x18f] = 0xde;
	dst[0x190] = 0xaa;
	dst[0x191] = 0xeb;
	for (i = 0x192; i < 0x1a0; i++)
		dst[i]=0xff;
	for (i = 0x1a0; i < 0x200; i++)
    11a6:	b5 e0       	ldi	r27, 0x05	; 5
    11a8:	e0 32       	cpi	r30, 0x20	; 32
    11aa:	fb 07       	cpc	r31, r27
    11ac:	d9 f7       	brne	.-10     	; 0x11a4 <dsk2Nic+0xfa>
		dst[i]=0x00;

	cmdFast(16, (unsigned long)512);	
    11ae:	80 e1       	ldi	r24, 0x10	; 16
    11b0:	40 e0       	ldi	r20, 0x00	; 0
    11b2:	52 e0       	ldi	r21, 0x02	; 2
    11b4:	60 e0       	ldi	r22, 0x00	; 0
    11b6:	70 e0       	ldi	r23, 0x00	; 0
    11b8:	0e 94 fa 02 	call	0x5f4	; 0x5f4 <cmdFast>
    11bc:	22 24       	eor	r2, r2
    11be:	33 24       	eor	r3, r3
    11c0:	66 24       	eor	r6, r6
    11c2:	77 24       	eor	r7, r7
			if (bit_is_set(PIND, 3)) return;														// Cartão removido

			if ((logic_sector & 1) == 0) {
				unsigned short long_sector = (unsigned short)trk * 8 + (logic_sector / 2);
				unsigned short long_cluster = (long_sector >> sectorsPerCluster2);
				unsigned char fatNum = long_cluster / FAT_DSK_ELEMS;
    11c4:	72 e1       	ldi	r23, 0x12	; 18
    11c6:	47 2e       	mov	r4, r23
    11c8:	51 2c       	mov	r5, r1
					prepareFat(nicDir, fatNic, ((560 + sectorsPerCluster - 1) >> sectorsPerCluster2), fatNum, FAT_NIC_ELEMS);
				}
				ft = fatNic[long_cluster % FAT_NIC_ELEMS];

				PORTD = NCLKNDI_CS;
				PORTD = NCLKNDINCS;
    11ca:	10 ec       	ldi	r17, 0xC0	; 192
						if (c & d) {
							PORTD = NCLK_DINCS;
							PORTD = _CLK_DINCS;
						} else {
							PORTD = NCLKNDINCS;
							PORTD = _CLKNDINCS;
    11cc:	60 ee       	ldi	r22, 0xE0	; 224
    11ce:	f6 2e       	mov	r15, r22
				for (i = 0; i < 512; i++) {
					if (bit_is_set(PIND,3)) return;
					c = dst[i];
					for (d = 0b10000000; d; d >>= 1) {
						if (c & d) {
							PORTD = NCLK_DINCS;
    11d0:	50 ed       	ldi	r21, 0xD0	; 208
    11d2:	e5 2e       	mov	r14, r21
							PORTD = _CLK_DINCS;
    11d4:	40 ef       	ldi	r20, 0xF0	; 240
    11d6:	d4 2e       	mov	r13, r20
    11d8:	3d 82       	std	Y+5, r3	; 0x05
    11da:	2c 82       	std	Y+4, r2	; 0x04
	for (i = 0x1a0; i < 0x200; i++)
		dst[i]=0x00;

	cmdFast(16, (unsigned long)512);	
	for (trk = 0; trk < 35; trk++) {
		PORTB ^= 0b00110000; // blink red LED
    11dc:	95 b1       	in	r25, 0x05	; 5
    11de:	20 e3       	ldi	r18, 0x30	; 48
    11e0:	92 27       	eor	r25, r18
    11e2:	95 b9       	out	0x05, r25	; 5
			{
				unsigned char c, x, ox = 0;

				dst[0x25] = ((volume >> 1) | 0xAA);
				dst[0x26] = (volume | 0xAA);
				dst[0x27] = ((trk >> 1) | 0xAA);
    11e4:	e6 2d       	mov	r30, r6
    11e6:	e6 95       	lsr	r30
    11e8:	ea 6a       	ori	r30, 0xAA	; 170
    11ea:	e9 83       	std	Y+1, r30	; 0x01
    11ec:	22 24       	eor	r2, r2
    11ee:	33 24       	eor	r3, r3
				dst[0x28] = (trk | 0xAA);
    11f0:	f6 2d       	mov	r31, r6
    11f2:	fa 6a       	ori	r31, 0xAA	; 170
    11f4:	f8 87       	std	Y+8, r31	; 0x08
				dst[0x29] = ((ph_sector >> 1) | 0xAA);
				dst[0x2a] = (ph_sector | 0xAA);
				c = (volume ^ trk ^ ph_sector);
    11f6:	9e ef       	ldi	r25, 0xFE	; 254
    11f8:	96 25       	eor	r25, r6
    11fa:	99 87       	std	Y+9, r25	; 0x09
				}
				dst[0x18e] = pgm_read_byte_near(encTable + ox);
			}
			{
				unsigned char c, d;
				unsigned short long_sector = (unsigned short)trk * 16 + ph_sector;
    11fc:	d3 01       	movw	r26, r6
    11fe:	a2 95       	swap	r26
    1200:	b2 95       	swap	r27
    1202:	b0 7f       	andi	r27, 0xF0	; 240
    1204:	ba 27       	eor	r27, r26
    1206:	a0 7f       	andi	r26, 0xF0	; 240
    1208:	ba 27       	eor	r27, r26
    120a:	bb 87       	std	Y+11, r27	; 0x0b
    120c:	aa 87       	std	Y+10, r26	; 0x0a
			{
				unsigned char c, x, ox = 0;

				dst[0x25] = ((volume >> 1) | 0xAA);
				dst[0x26] = (volume | 0xAA);
				dst[0x27] = ((trk >> 1) | 0xAA);
    120e:	82 2d       	mov	r24, r2
	cmdFast(16, (unsigned long)512);	
	for (trk = 0; trk < 35; trk++) {
		PORTB ^= 0b00110000; // blink red LED
		for (logic_sector = 0; logic_sector < 16; logic_sector++) {
			unsigned char *src;
			unsigned short ph_sector = (unsigned short)pgm_read_byte_near(physicalSector + logic_sector);
    1210:	f1 01       	movw	r30, r2
    1212:	e4 55       	subi	r30, 0x54	; 84
    1214:	ff 4f       	sbci	r31, 0xFF	; 255
    1216:	c4 90       	lpm	r12, Z+

			if (bit_is_set(PIND, 3)) return;														// Cartão removido
    1218:	4b 99       	sbic	0x09, 3	; 9
    121a:	7c c0       	rjmp	.+248    	; 0x1314 <dsk2Nic+0x26a>

			if ((logic_sector & 1) == 0) {
    121c:	20 fc       	sbrc	r2, 0
    121e:	93 c0       	rjmp	.+294    	; 0x1346 <dsk2Nic+0x29c>
				unsigned short long_sector = (unsigned short)trk * 8 + (logic_sector / 2);
    1220:	86 95       	lsr	r24
    1222:	8c 80       	ldd	r8, Y+4	; 0x04
    1224:	9d 80       	ldd	r9, Y+5	; 0x05
    1226:	88 0e       	add	r8, r24
    1228:	91 1c       	adc	r9, r1
				unsigned short long_cluster = (long_sector >> sectorsPerCluster2);
    122a:	e0 91 18 01 	lds	r30, 0x0118
    122e:	c4 01       	movw	r24, r8
    1230:	0e 2e       	mov	r0, r30
    1232:	02 c0       	rjmp	.+4      	; 0x1238 <dsk2Nic+0x18e>
    1234:	96 95       	lsr	r25
    1236:	87 95       	ror	r24
    1238:	0a 94       	dec	r0
    123a:	e2 f7       	brpl	.-8      	; 0x1234 <dsk2Nic+0x18a>
    123c:	9b 83       	std	Y+3, r25	; 0x03
    123e:	8a 83       	std	Y+2, r24	; 0x02
				unsigned char fatNum = long_cluster / FAT_DSK_ELEMS;
    1240:	b2 01       	movw	r22, r4
    1242:	0e 94 e5 14 	call	0x29ca	; 0x29ca <__udivmodhi4>
    1246:	26 2f       	mov	r18, r22
				unsigned short ft;

				if (fatNum != prevFatNumDsk) {
    1248:	80 91 0a 08 	lds	r24, 0x080A
    124c:	86 17       	cp	r24, r22
    124e:	b9 f0       	breq	.+46     	; 0x127e <dsk2Nic+0x1d4>
					prevFatNumDsk = fatNum;						
    1250:	60 93 0a 08 	sts	0x080A, r22
					prepareFat(dskDir, fatDsk, ((280 + sectorsPerCluster - 1) >> sectorsPerCluster2), fatNum, FAT_DSK_ELEMS);
    1254:	40 91 09 08 	lds	r20, 0x0809
    1258:	50 e0       	ldi	r21, 0x00	; 0
    125a:	49 5e       	subi	r20, 0xE9	; 233
    125c:	5e 4f       	sbci	r21, 0xFE	; 254
    125e:	02 c0       	rjmp	.+4      	; 0x1264 <dsk2Nic+0x1ba>
    1260:	55 95       	asr	r21
    1262:	47 95       	ror	r20
    1264:	ea 95       	dec	r30
    1266:	e2 f7       	brpl	.-8      	; 0x1260 <dsk2Nic+0x1b6>
    1268:	80 91 f6 07 	lds	r24, 0x07F6
    126c:	90 91 f7 07 	lds	r25, 0x07F7
    1270:	60 e2       	ldi	r22, 0x20	; 32
    1272:	75 e0       	ldi	r23, 0x05	; 5
    1274:	02 e1       	ldi	r16, 0x12	; 18
    1276:	0e 94 01 05 	call	0xa02	; 0xa02 <prepareFat>
    127a:	e0 91 18 01 	lds	r30, 0x0118
				}
				ft = fatDsk[long_cluster % FAT_DSK_ELEMS];											// Pega número do cluster do arquivo
    127e:	8a 81       	ldd	r24, Y+2	; 0x02
    1280:	9b 81       	ldd	r25, Y+3	; 0x03
    1282:	b2 01       	movw	r22, r4
    1284:	0e 94 e5 14 	call	0x29ca	; 0x29ca <__udivmodhi4>
    1288:	88 0f       	add	r24, r24
    128a:	99 1f       	adc	r25, r25
    128c:	80 5e       	subi	r24, 0xE0	; 224
    128e:	9a 4f       	sbci	r25, 0xFA	; 250
				cmd17Fast(
						(unsigned long)userAddr + ( ( (unsigned long)(ft-2) << sectorsPerCluster2) + (long_sector & (sectorsPerCluster - 1) ) ) * (unsigned long)512);
    1290:	dc 01       	movw	r26, r24
    1292:	2d 91       	ld	r18, X+
    1294:	3c 91       	ld	r19, X
    1296:	22 50       	subi	r18, 0x02	; 2
    1298:	30 40       	sbci	r19, 0x00	; 0
    129a:	40 e0       	ldi	r20, 0x00	; 0
    129c:	50 e0       	ldi	r21, 0x00	; 0
    129e:	04 c0       	rjmp	.+8      	; 0x12a8 <dsk2Nic+0x1fe>
    12a0:	22 0f       	add	r18, r18
    12a2:	33 1f       	adc	r19, r19
    12a4:	44 1f       	adc	r20, r20
    12a6:	55 1f       	adc	r21, r21
    12a8:	ea 95       	dec	r30
    12aa:	d2 f7       	brpl	.-12     	; 0x12a0 <dsk2Nic+0x1f6>
    12ac:	80 91 09 08 	lds	r24, 0x0809
    12b0:	90 e0       	ldi	r25, 0x00	; 0
    12b2:	01 97       	sbiw	r24, 0x01	; 1
    12b4:	88 21       	and	r24, r8
    12b6:	99 21       	and	r25, r9
    12b8:	a0 e0       	ldi	r26, 0x00	; 0
    12ba:	b0 e0       	ldi	r27, 0x00	; 0
    12bc:	28 0f       	add	r18, r24
    12be:	39 1f       	adc	r19, r25
    12c0:	4a 1f       	adc	r20, r26
    12c2:	5b 1f       	adc	r21, r27
    12c4:	89 e0       	ldi	r24, 0x09	; 9
    12c6:	22 0f       	add	r18, r18
    12c8:	33 1f       	adc	r19, r19
    12ca:	44 1f       	adc	r20, r20
    12cc:	55 1f       	adc	r21, r21
    12ce:	8a 95       	dec	r24
    12d0:	d1 f7       	brne	.-12     	; 0x12c6 <dsk2Nic+0x21c>
				if (fatNum != prevFatNumDsk) {
					prevFatNumDsk = fatNum;						
					prepareFat(dskDir, fatDsk, ((280 + sectorsPerCluster - 1) >> sectorsPerCluster2), fatNum, FAT_DSK_ELEMS);
				}
				ft = fatDsk[long_cluster % FAT_DSK_ELEMS];											// Pega número do cluster do arquivo
				cmd17Fast(
    12d2:	80 91 01 08 	lds	r24, 0x0801
    12d6:	90 91 02 08 	lds	r25, 0x0802
    12da:	a0 91 03 08 	lds	r26, 0x0803
    12de:	b0 91 04 08 	lds	r27, 0x0804
    12e2:	28 0f       	add	r18, r24
    12e4:	39 1f       	adc	r19, r25
    12e6:	4a 1f       	adc	r20, r26
    12e8:	5b 1f       	adc	r21, r27
    12ea:	ca 01       	movw	r24, r20
    12ec:	b9 01       	movw	r22, r18
    12ee:	0e 94 2a 03 	call	0x654	; 0x654 <cmd17Fast>
	return 1;
}

/******************************************************************************/
// translate a DSK image into a NIC image
void dsk2Nic(void)
    12f2:	80 e2       	ldi	r24, 0x20	; 32
    12f4:	91 e0       	ldi	r25, 0x01	; 1
    12f6:	4c 01       	movw	r8, r24
    12f8:	0b c0       	rjmp	.+22     	; 0x1310 <dsk2Nic+0x266>
				ft = fatDsk[long_cluster % FAT_DSK_ELEMS];											// Pega número do cluster do arquivo
				cmd17Fast(
						(unsigned long)userAddr + ( ( (unsigned long)(ft-2) << sectorsPerCluster2) + (long_sector & (sectorsPerCluster - 1) ) ) * (unsigned long)512);
				for (i = 0; i < 512; i++) {
					if (bit_is_set(PIND, 3)) return;
					*(&writeData[0][0] + i) = readByteFast();
    12fa:	0e 94 90 02 	call	0x520	; 0x520 <readByteFast>
    12fe:	f4 01       	movw	r30, r8
    1300:	81 93       	st	Z+, r24
    1302:	4f 01       	movw	r8, r30
					prepareFat(dskDir, fatDsk, ((280 + sectorsPerCluster - 1) >> sectorsPerCluster2), fatNum, FAT_DSK_ELEMS);
				}
				ft = fatDsk[long_cluster % FAT_DSK_ELEMS];											// Pega número do cluster do arquivo
				cmd17Fast(
						(unsigned long)userAddr + ( ( (unsigned long)(ft-2) << sectorsPerCluster2) + (long_sector & (sectorsPerCluster - 1) ) ) * (unsigned long)512);
				for (i = 0; i < 512; i++) {
    1304:	f0 e2       	ldi	r31, 0x20	; 32
    1306:	8f 16       	cp	r8, r31
    1308:	f3 e0       	ldi	r31, 0x03	; 3
    130a:	9f 06       	cpc	r9, r31
    130c:	09 f4       	brne	.+2      	; 0x1310 <dsk2Nic+0x266>
    130e:	5b c1       	rjmp	.+694    	; 0x15c6 <dsk2Nic+0x51c>
					if (bit_is_set(PIND, 3)) return;
    1310:	4b 9b       	sbis	0x09, 3	; 9
    1312:	f3 cf       	rjmp	.-26     	; 0x12fa <dsk2Nic+0x250>
			}
		}
	}
	buffClear();
	PORTB &= 0b11101111; // off red LED
}
    1314:	2b 96       	adiw	r28, 0x0b	; 11
    1316:	0f b6       	in	r0, 0x3f	; 63
    1318:	f8 94       	cli
    131a:	de bf       	out	0x3e, r29	; 62
    131c:	0f be       	out	0x3f, r0	; 63
    131e:	cd bf       	out	0x3d, r28	; 61
    1320:	cf 91       	pop	r28
    1322:	df 91       	pop	r29
    1324:	1f 91       	pop	r17
    1326:	0f 91       	pop	r16
    1328:	ff 90       	pop	r15
    132a:	ef 90       	pop	r14
    132c:	df 90       	pop	r13
    132e:	cf 90       	pop	r12
    1330:	bf 90       	pop	r11
    1332:	af 90       	pop	r10
    1334:	9f 90       	pop	r9
    1336:	8f 90       	pop	r8
    1338:	7f 90       	pop	r7
    133a:	6f 90       	pop	r6
    133c:	5f 90       	pop	r5
    133e:	4f 90       	pop	r4
    1340:	3f 90       	pop	r3
    1342:	2f 90       	pop	r2
    1344:	08 95       	ret
					*(&writeData[0][0] + i) = readByteFast();
				}
				readByteFast(); readByteFast(); // discard CRC bytes				
				src = &writeData[0][0];
			} else {
				src = (&writeData[0][0]+256);
    1346:	20 e2       	ldi	r18, 0x20	; 32
    1348:	32 e0       	ldi	r19, 0x02	; 2
	cmdFast(16, (unsigned long)512);	
	for (trk = 0; trk < 35; trk++) {
		PORTB ^= 0b00110000; // blink red LED
		for (logic_sector = 0; logic_sector < 16; logic_sector++) {
			unsigned char *src;
			unsigned short ph_sector = (unsigned short)pgm_read_byte_near(physicalSector + logic_sector);
    134a:	8c 2d       	mov	r24, r12
    134c:	90 e0       	ldi	r25, 0x00	; 0
    134e:	9b 83       	std	Y+3, r25	; 0x03
    1350:	8a 83       	std	Y+2, r24	; 0x02
				src = (&writeData[0][0]+256);
			}
			{
				unsigned char c, x, ox = 0;

				dst[0x25] = ((volume >> 1) | 0xAA);
    1352:	8f ef       	ldi	r24, 0xFF	; 255
    1354:	d5 01       	movw	r26, r10
    1356:	95 96       	adiw	r26, 0x25	; 37
    1358:	8c 93       	st	X, r24
    135a:	95 97       	sbiw	r26, 0x25	; 37
				dst[0x26] = (volume | 0xAA);
    135c:	ee ef       	ldi	r30, 0xFE	; 254
    135e:	96 96       	adiw	r26, 0x26	; 38
    1360:	ec 93       	st	X, r30
    1362:	96 97       	sbiw	r26, 0x26	; 38
				dst[0x27] = ((trk >> 1) | 0xAA);
    1364:	f9 81       	ldd	r31, Y+1	; 0x01
    1366:	97 96       	adiw	r26, 0x27	; 39
    1368:	fc 93       	st	X, r31
    136a:	97 97       	sbiw	r26, 0x27	; 39
				dst[0x28] = (trk | 0xAA);
    136c:	88 85       	ldd	r24, Y+8	; 0x08
    136e:	98 96       	adiw	r26, 0x28	; 40
    1370:	8c 93       	st	X, r24
    1372:	98 97       	sbiw	r26, 0x28	; 40
				dst[0x29] = ((ph_sector >> 1) | 0xAA);
    1374:	8a 81       	ldd	r24, Y+2	; 0x02
    1376:	9b 81       	ldd	r25, Y+3	; 0x03
    1378:	96 95       	lsr	r25
    137a:	87 95       	ror	r24
    137c:	8a 6a       	ori	r24, 0xAA	; 170
    137e:	99 96       	adiw	r26, 0x29	; 41
    1380:	8c 93       	st	X, r24
    1382:	99 97       	sbiw	r26, 0x29	; 41
				dst[0x2a] = (ph_sector | 0xAA);
    1384:	8c 2d       	mov	r24, r12
    1386:	8a 6a       	ori	r24, 0xAA	; 170
    1388:	9a 96       	adiw	r26, 0x2a	; 42
    138a:	8c 93       	st	X, r24
    138c:	9a 97       	sbiw	r26, 0x2a	; 42
				c = (volume ^ trk ^ ph_sector);
    138e:	99 85       	ldd	r25, Y+9	; 0x09
    1390:	9c 25       	eor	r25, r12
				dst[0x2b] = ((c >> 1) | 0xAA);
    1392:	89 2f       	mov	r24, r25
    1394:	86 95       	lsr	r24
    1396:	8a 6a       	ori	r24, 0xAA	; 170
    1398:	9b 96       	adiw	r26, 0x2b	; 43
    139a:	8c 93       	st	X, r24
    139c:	9b 97       	sbiw	r26, 0x2b	; 43
				dst[0x2c] = (c | 0xAA);
    139e:	9a 6a       	ori	r25, 0xAA	; 170
    13a0:	9c 96       	adiw	r26, 0x2c	; 44
    13a2:	9c 93       	st	X, r25
	return 1;
}

/******************************************************************************/
// translate a DSK image into a NIC image
void dsk2Nic(void)
    13a4:	a9 01       	movw	r20, r18
    13a6:	4a 5a       	subi	r20, 0xAA	; 170
    13a8:	5f 4f       	sbci	r21, 0xFF	; 255
    13aa:	68 e5       	ldi	r22, 0x58	; 88
    13ac:	73 e0       	ldi	r23, 0x03	; 3
    13ae:	d9 01       	movw	r26, r18
				src = &writeData[0][0];
			} else {
				src = (&writeData[0][0]+256);
			}
			{
				unsigned char c, x, ox = 0;
    13b0:	00 e0       	ldi	r16, 0x00	; 0
				dst[0x29] = ((ph_sector >> 1) | 0xAA);
				dst[0x2a] = (ph_sector | 0xAA);
				c = (volume ^ trk ^ ph_sector);
				dst[0x2b] = ((c >> 1) | 0xAA);
				dst[0x2c] = (c | 0xAA);
				for (i = 0; i < 86; i++) {
    13b2:	80 e0       	ldi	r24, 0x00	; 0
    13b4:	90 e0       	ldi	r25, 0x00	; 0
    13b6:	49 01       	movw	r8, r18
    13b8:	19 c0       	rjmp	.+50     	; 0x13ec <dsk2Nic+0x342>
	return 1;
}

/******************************************************************************/
// translate a DSK image into a NIC image
void dsk2Nic(void)
    13ba:	fd 01       	movw	r30, r26
    13bc:	e5 55       	subi	r30, 0x55	; 85
    13be:	ff 4f       	sbci	r31, 0xFF	; 255
				dst[0x2b] = ((c >> 1) | 0xAA);
				dst[0x2c] = (c | 0xAA);
				for (i = 0; i < 86; i++) {
					x = (pgm_read_byte_near(FlipBit1 + (src[i] & 3)) |
						pgm_read_byte_near(FlipBit2 + (src[i + 86] & 3)) |
						((i <= 83) ? pgm_read_byte_near(FlipBit3 + (src[i + 172] & 3)) : 0));
    13c0:	e0 81       	ld	r30, Z
    13c2:	f0 e0       	ldi	r31, 0x00	; 0
    13c4:	e3 70       	andi	r30, 0x03	; 3
    13c6:	f0 70       	andi	r31, 0x00	; 0
    13c8:	e8 53       	subi	r30, 0x38	; 56
    13ca:	ff 4f       	sbci	r31, 0xFF	; 255
    13cc:	e4 91       	lpm	r30, Z+
				dst[0x2a] = (ph_sector | 0xAA);
				c = (volume ^ trk ^ ph_sector);
				dst[0x2b] = ((c >> 1) | 0xAA);
				dst[0x2c] = (c | 0xAA);
				for (i = 0; i < 86; i++) {
					x = (pgm_read_byte_near(FlipBit1 + (src[i] & 3)) |
    13ce:	2e 2b       	or	r18, r30
						pgm_read_byte_near(FlipBit2 + (src[i + 86] & 3)) |
						((i <= 83) ? pgm_read_byte_near(FlipBit3 + (src[i + 172] & 3)) : 0));
					dst[i + 0x38] = pgm_read_byte_near(encTable + (x ^ ox));
    13d0:	02 27       	eor	r16, r18
    13d2:	e0 2f       	mov	r30, r16
    13d4:	f0 e0       	ldi	r31, 0x00	; 0
    13d6:	e4 59       	subi	r30, 0x94	; 148
    13d8:	ff 4f       	sbci	r31, 0xFF	; 255
    13da:	34 91       	lpm	r19, Z+
    13dc:	fb 01       	movw	r30, r22
    13de:	31 93       	st	Z+, r19
    13e0:	bf 01       	movw	r22, r30
				dst[0x29] = ((ph_sector >> 1) | 0xAA);
				dst[0x2a] = (ph_sector | 0xAA);
				c = (volume ^ trk ^ ph_sector);
				dst[0x2b] = ((c >> 1) | 0xAA);
				dst[0x2c] = (c | 0xAA);
				for (i = 0; i < 86; i++) {
    13e2:	01 96       	adiw	r24, 0x01	; 1
    13e4:	86 35       	cpi	r24, 0x56	; 86
    13e6:	91 05       	cpc	r25, r1
    13e8:	c1 f0       	breq	.+48     	; 0x141a <dsk2Nic+0x370>
					x = (pgm_read_byte_near(FlipBit1 + (src[i] & 3)) |
    13ea:	02 2f       	mov	r16, r18
    13ec:	ed 91       	ld	r30, X+
    13ee:	f0 e0       	ldi	r31, 0x00	; 0
    13f0:	e3 70       	andi	r30, 0x03	; 3
    13f2:	f0 70       	andi	r31, 0x00	; 0
    13f4:	e0 54       	subi	r30, 0x40	; 64
    13f6:	ff 4f       	sbci	r31, 0xFF	; 255
    13f8:	34 91       	lpm	r19, Z+
						pgm_read_byte_near(FlipBit2 + (src[i + 86] & 3)) |
    13fa:	fa 01       	movw	r30, r20
    13fc:	21 91       	ld	r18, Z+
    13fe:	af 01       	movw	r20, r30
    1400:	e2 2f       	mov	r30, r18
    1402:	f0 e0       	ldi	r31, 0x00	; 0
    1404:	e3 70       	andi	r30, 0x03	; 3
    1406:	f0 70       	andi	r31, 0x00	; 0
    1408:	ec 53       	subi	r30, 0x3C	; 60
    140a:	ff 4f       	sbci	r31, 0xFF	; 255
    140c:	24 91       	lpm	r18, Z+
				dst[0x2a] = (ph_sector | 0xAA);
				c = (volume ^ trk ^ ph_sector);
				dst[0x2b] = ((c >> 1) | 0xAA);
				dst[0x2c] = (c | 0xAA);
				for (i = 0; i < 86; i++) {
					x = (pgm_read_byte_near(FlipBit1 + (src[i] & 3)) |
    140e:	23 2b       	or	r18, r19
    1410:	84 35       	cpi	r24, 0x54	; 84
    1412:	91 05       	cpc	r25, r1
    1414:	90 f2       	brcs	.-92     	; 0x13ba <dsk2Nic+0x310>
    1416:	e0 e0       	ldi	r30, 0x00	; 0
    1418:	da cf       	rjmp	.-76     	; 0x13ce <dsk2Nic+0x324>
    141a:	c2 2e       	mov	r12, r18
    141c:	94 01       	movw	r18, r8
	return 1;
}

/******************************************************************************/
// translate a DSK image into a NIC image
void dsk2Nic(void)
    141e:	ae ea       	ldi	r26, 0xAE	; 174
    1420:	b3 e0       	ldi	r27, 0x03	; 3
    1422:	9c 2d       	mov	r25, r12
    1424:	01 c0       	rjmp	.+2      	; 0x1428 <dsk2Nic+0x37e>
						((i <= 83) ? pgm_read_byte_near(FlipBit3 + (src[i + 172] & 3)) : 0));
					dst[i + 0x38] = pgm_read_byte_near(encTable + (x ^ ox));
					ox = x;
				}
				for (i = 0; i < 256; i++) {
					x = (src[i] >> 2);
    1426:	98 2f       	mov	r25, r24
    1428:	f9 01       	movw	r30, r18
    142a:	81 91       	ld	r24, Z+
    142c:	9f 01       	movw	r18, r30
    142e:	86 95       	lsr	r24
    1430:	86 95       	lsr	r24
					dst[i + 0x8e] = pgm_read_byte_near(encTable + (x ^ ox));
    1432:	e9 2f       	mov	r30, r25
    1434:	e8 27       	eor	r30, r24
    1436:	f0 e0       	ldi	r31, 0x00	; 0
    1438:	e4 59       	subi	r30, 0x94	; 148
    143a:	ff 4f       	sbci	r31, 0xFF	; 255
    143c:	e4 91       	lpm	r30, Z+
    143e:	ed 93       	st	X+, r30
						pgm_read_byte_near(FlipBit2 + (src[i + 86] & 3)) |
						((i <= 83) ? pgm_read_byte_near(FlipBit3 + (src[i + 172] & 3)) : 0));
					dst[i + 0x38] = pgm_read_byte_near(encTable + (x ^ ox));
					ox = x;
				}
				for (i = 0; i < 256; i++) {
    1440:	f4 e0       	ldi	r31, 0x04	; 4
    1442:	ae 3a       	cpi	r26, 0xAE	; 174
    1444:	bf 07       	cpc	r27, r31
    1446:	79 f7       	brne	.-34     	; 0x1426 <dsk2Nic+0x37c>
					x = (src[i] >> 2);
					dst[i + 0x8e] = pgm_read_byte_near(encTable + (x ^ ox));
					ox = x;
				}
				dst[0x18e] = pgm_read_byte_near(encTable + ox);
    1448:	e8 2f       	mov	r30, r24
    144a:	f0 e0       	ldi	r31, 0x00	; 0
    144c:	e4 59       	subi	r30, 0x94	; 148
    144e:	ff 4f       	sbci	r31, 0xFF	; 255
    1450:	e4 91       	lpm	r30, Z+
    1452:	e0 93 ae 04 	sts	0x04AE, r30
			}
			{
				unsigned char c, d;
				unsigned short long_sector = (unsigned short)trk * 16 + ph_sector;
    1456:	8a 84       	ldd	r8, Y+10	; 0x0a
    1458:	9b 84       	ldd	r9, Y+11	; 0x0b
    145a:	8a 81       	ldd	r24, Y+2	; 0x02
    145c:	9b 81       	ldd	r25, Y+3	; 0x03
    145e:	88 0e       	add	r8, r24
    1460:	99 1e       	adc	r9, r25
				unsigned short long_cluster = (long_sector >> sectorsPerCluster2);
    1462:	30 91 18 01 	lds	r19, 0x0118
    1466:	d4 01       	movw	r26, r8
    1468:	03 2e       	mov	r0, r19
    146a:	02 c0       	rjmp	.+4      	; 0x1470 <dsk2Nic+0x3c6>
    146c:	b6 95       	lsr	r27
    146e:	a7 95       	ror	r26
    1470:	0a 94       	dec	r0
    1472:	e2 f7       	brpl	.-8      	; 0x146c <dsk2Nic+0x3c2>
    1474:	bb 83       	std	Y+3, r27	; 0x03
    1476:	aa 83       	std	Y+2, r26	; 0x02
				unsigned char fatNum = long_cluster / FAT_NIC_ELEMS;
    1478:	cd 01       	movw	r24, r26
    147a:	63 e2       	ldi	r22, 0x23	; 35
    147c:	70 e0       	ldi	r23, 0x00	; 0
    147e:	0e 94 e5 14 	call	0x29ca	; 0x29ca <__udivmodhi4>
    1482:	26 2f       	mov	r18, r22
				unsigned short ft;
			
				if (fatNum != prevFatNumNic) {
    1484:	80 91 fe 07 	lds	r24, 0x07FE
    1488:	86 17       	cp	r24, r22
    148a:	b9 f0       	breq	.+46     	; 0x14ba <dsk2Nic+0x410>
					prevFatNumNic = fatNum;
    148c:	60 93 fe 07 	sts	0x07FE, r22
					prepareFat(nicDir, fatNic, ((560 + sectorsPerCluster - 1) >> sectorsPerCluster2), fatNum, FAT_NIC_ELEMS);
    1490:	40 91 09 08 	lds	r20, 0x0809
    1494:	50 e0       	ldi	r21, 0x00	; 0
    1496:	41 5d       	subi	r20, 0xD1	; 209
    1498:	5d 4f       	sbci	r21, 0xFD	; 253
    149a:	02 c0       	rjmp	.+4      	; 0x14a0 <dsk2Nic+0x3f6>
    149c:	55 95       	asr	r21
    149e:	47 95       	ror	r20
    14a0:	3a 95       	dec	r19
    14a2:	e2 f7       	brpl	.-8      	; 0x149c <dsk2Nic+0x3f2>
    14a4:	80 91 0b 08 	lds	r24, 0x080B
    14a8:	90 91 0c 08 	lds	r25, 0x080C
    14ac:	69 e1       	ldi	r22, 0x19	; 25
    14ae:	78 e0       	ldi	r23, 0x08	; 8
    14b0:	03 e2       	ldi	r16, 0x23	; 35
    14b2:	0e 94 01 05 	call	0xa02	; 0xa02 <prepareFat>
    14b6:	30 91 18 01 	lds	r19, 0x0118
				}
				ft = fatNic[long_cluster % FAT_NIC_ELEMS];
    14ba:	8a 81       	ldd	r24, Y+2	; 0x02
    14bc:	9b 81       	ldd	r25, Y+3	; 0x03
    14be:	63 e2       	ldi	r22, 0x23	; 35
    14c0:	70 e0       	ldi	r23, 0x00	; 0
    14c2:	0e 94 e5 14 	call	0x29ca	; 0x29ca <__udivmodhi4>
    14c6:	88 0f       	add	r24, r24
    14c8:	99 1f       	adc	r25, r25
    14ca:	87 5e       	subi	r24, 0xE7	; 231
    14cc:	97 4f       	sbci	r25, 0xF7	; 247
    14ce:	fc 01       	movw	r30, r24
    14d0:	40 81       	ld	r20, Z
    14d2:	51 81       	ldd	r21, Z+1	; 0x01

				PORTD = NCLKNDI_CS;
    14d4:	82 ec       	ldi	r24, 0xC2	; 194
    14d6:	8b b9       	out	0x0b, r24	; 11
				PORTD = NCLKNDINCS;
    14d8:	1b b9       	out	0x0b, r17	; 11

				cmdFast(24, userAddr + (((unsigned long)(ft - 2) << sectorsPerCluster2)
    14da:	42 50       	subi	r20, 0x02	; 2
    14dc:	50 40       	sbci	r21, 0x00	; 0
    14de:	60 e0       	ldi	r22, 0x00	; 0
    14e0:	70 e0       	ldi	r23, 0x00	; 0
    14e2:	04 c0       	rjmp	.+8      	; 0x14ec <dsk2Nic+0x442>
    14e4:	44 0f       	add	r20, r20
    14e6:	55 1f       	adc	r21, r21
    14e8:	66 1f       	adc	r22, r22
    14ea:	77 1f       	adc	r23, r23
    14ec:	3a 95       	dec	r19
    14ee:	d2 f7       	brpl	.-12     	; 0x14e4 <dsk2Nic+0x43a>
					+ (long_sector & (sectorsPerCluster - 1))) * (unsigned long)512);
    14f0:	80 91 09 08 	lds	r24, 0x0809
    14f4:	90 e0       	ldi	r25, 0x00	; 0
    14f6:	01 97       	sbiw	r24, 0x01	; 1
    14f8:	88 21       	and	r24, r8
    14fa:	99 21       	and	r25, r9
    14fc:	a0 e0       	ldi	r26, 0x00	; 0
    14fe:	b0 e0       	ldi	r27, 0x00	; 0
    1500:	48 0f       	add	r20, r24
    1502:	59 1f       	adc	r21, r25
    1504:	6a 1f       	adc	r22, r26
    1506:	7b 1f       	adc	r23, r27
    1508:	e9 e0       	ldi	r30, 0x09	; 9
    150a:	44 0f       	add	r20, r20
    150c:	55 1f       	adc	r21, r21
    150e:	66 1f       	adc	r22, r22
    1510:	77 1f       	adc	r23, r23
    1512:	ea 95       	dec	r30
    1514:	d1 f7       	brne	.-12     	; 0x150a <dsk2Nic+0x460>
				ft = fatNic[long_cluster % FAT_NIC_ELEMS];

				PORTD = NCLKNDI_CS;
				PORTD = NCLKNDINCS;

				cmdFast(24, userAddr + (((unsigned long)(ft - 2) << sectorsPerCluster2)
    1516:	80 91 01 08 	lds	r24, 0x0801
    151a:	90 91 02 08 	lds	r25, 0x0802
    151e:	a0 91 03 08 	lds	r26, 0x0803
    1522:	b0 91 04 08 	lds	r27, 0x0804
    1526:	48 0f       	add	r20, r24
    1528:	59 1f       	adc	r21, r25
    152a:	6a 1f       	adc	r22, r26
    152c:	7b 1f       	adc	r23, r27
    152e:	88 e1       	ldi	r24, 0x18	; 24
    1530:	0e 94 fa 02 	call	0x5f4	; 0x5f4 <cmdFast>
					+ (long_sector & (sectorsPerCluster - 1))) * (unsigned long)512);
				writeByteFast(0xff);
    1534:	8f ef       	ldi	r24, 0xFF	; 255
    1536:	0e 94 42 02 	call	0x484	; 0x484 <writeByteFast>
				writeByteFast(0xfe);
    153a:	8e ef       	ldi	r24, 0xFE	; 254
    153c:	0e 94 42 02 	call	0x484	; 0x484 <writeByteFast>
    1540:	9e 81       	ldd	r25, Y+6	; 0x06
    1542:	8f 81       	ldd	r24, Y+7	; 0x07
    1544:	e9 2f       	mov	r30, r25
    1546:	f8 2f       	mov	r31, r24
				for (i = 0; i < 512; i++) {
					if (bit_is_set(PIND,3)) return;
    1548:	4b 99       	sbic	0x09, 3	; 9
    154a:	e4 ce       	rjmp	.-568    	; 0x1314 <dsk2Nic+0x26a>
					c = dst[i];
    154c:	41 91       	ld	r20, Z+
    154e:	88 e0       	ldi	r24, 0x08	; 8
    1550:	90 e0       	ldi	r25, 0x00	; 0
					for (d = 0b10000000; d; d >>= 1) {
    1552:	20 e8       	ldi	r18, 0x80	; 128
    1554:	05 c0       	rjmp	.+10     	; 0x1560 <dsk2Nic+0x4b6>
						if (c & d) {
							PORTD = NCLK_DINCS;
    1556:	eb b8       	out	0x0b, r14	; 11
							PORTD = _CLK_DINCS;
    1558:	db b8       	out	0x0b, r13	; 11
				writeByteFast(0xff);
				writeByteFast(0xfe);
				for (i = 0; i < 512; i++) {
					if (bit_is_set(PIND,3)) return;
					c = dst[i];
					for (d = 0b10000000; d; d >>= 1) {
    155a:	26 95       	lsr	r18
    155c:	01 97       	sbiw	r24, 0x01	; 1
    155e:	41 f0       	breq	.+16     	; 0x1570 <dsk2Nic+0x4c6>
						if (c & d) {
    1560:	32 2f       	mov	r19, r18
    1562:	34 23       	and	r19, r20
    1564:	c1 f7       	brne	.-16     	; 0x1556 <dsk2Nic+0x4ac>
							PORTD = NCLK_DINCS;
							PORTD = _CLK_DINCS;
						} else {
							PORTD = NCLKNDINCS;
    1566:	1b b9       	out	0x0b, r17	; 11
							PORTD = _CLKNDINCS;
    1568:	fb b8       	out	0x0b, r15	; 11
				writeByteFast(0xff);
				writeByteFast(0xfe);
				for (i = 0; i < 512; i++) {
					if (bit_is_set(PIND,3)) return;
					c = dst[i];
					for (d = 0b10000000; d; d >>= 1) {
    156a:	26 95       	lsr	r18
    156c:	01 97       	sbiw	r24, 0x01	; 1
    156e:	c1 f7       	brne	.-16     	; 0x1560 <dsk2Nic+0x4b6>

				cmdFast(24, userAddr + (((unsigned long)(ft - 2) << sectorsPerCluster2)
					+ (long_sector & (sectorsPerCluster - 1))) * (unsigned long)512);
				writeByteFast(0xff);
				writeByteFast(0xfe);
				for (i = 0; i < 512; i++) {
    1570:	85 e0       	ldi	r24, 0x05	; 5
    1572:	e0 32       	cpi	r30, 0x20	; 32
    1574:	f8 07       	cpc	r31, r24
    1576:	41 f7       	brne	.-48     	; 0x1548 <dsk2Nic+0x49e>
							PORTD = NCLKNDINCS;
							PORTD = _CLKNDINCS;
						}
					}
				}
				PORTD = NCLKNDINCS;
    1578:	1b b9       	out	0x0b, r17	; 11
				writeByteFast(0xff);
    157a:	8f ef       	ldi	r24, 0xFF	; 255
    157c:	0e 94 42 02 	call	0x484	; 0x484 <writeByteFast>
				writeByteFast(0xff);
    1580:	8f ef       	ldi	r24, 0xFF	; 255
    1582:	0e 94 42 02 	call	0x484	; 0x484 <writeByteFast>
				readByteFast();
    1586:	0e 94 90 02 	call	0x520	; 0x520 <readByteFast>
				waitFinish();
    158a:	0e 94 b0 02 	call	0x560	; 0x560 <waitFinish>
				
				PORTD = NCLKNDI_CS;
    158e:	82 ec       	ldi	r24, 0xC2	; 194
    1590:	8b b9       	out	0x0b, r24	; 11
				PORTD = NCLKNDINCS;
    1592:	1b b9       	out	0x0b, r17	; 11
    1594:	08 94       	sec
    1596:	21 1c       	adc	r2, r1
    1598:	31 1c       	adc	r3, r1
		dst[i]=0x00;

	cmdFast(16, (unsigned long)512);	
	for (trk = 0; trk < 35; trk++) {
		PORTB ^= 0b00110000; // blink red LED
		for (logic_sector = 0; logic_sector < 16; logic_sector++) {
    159a:	90 e1       	ldi	r25, 0x10	; 16
    159c:	29 16       	cp	r2, r25
    159e:	31 04       	cpc	r3, r1
    15a0:	09 f0       	breq	.+2      	; 0x15a4 <dsk2Nic+0x4fa>
    15a2:	35 ce       	rjmp	.-918    	; 0x120e <dsk2Nic+0x164>
    15a4:	08 94       	sec
    15a6:	61 1c       	adc	r6, r1
    15a8:	71 1c       	adc	r7, r1
    15aa:	ac 81       	ldd	r26, Y+4	; 0x04
    15ac:	bd 81       	ldd	r27, Y+5	; 0x05
    15ae:	18 96       	adiw	r26, 0x08	; 8
    15b0:	bd 83       	std	Y+5, r27	; 0x05
    15b2:	ac 83       	std	Y+4, r26	; 0x04
		dst[i]=0xff;
	for (i = 0x1a0; i < 0x200; i++)
		dst[i]=0x00;

	cmdFast(16, (unsigned long)512);	
	for (trk = 0; trk < 35; trk++) {
    15b4:	b3 e2       	ldi	r27, 0x23	; 35
    15b6:	6b 16       	cp	r6, r27
    15b8:	71 04       	cpc	r7, r1
    15ba:	09 f0       	breq	.+2      	; 0x15be <dsk2Nic+0x514>
    15bc:	0f ce       	rjmp	.-994    	; 0x11dc <dsk2Nic+0x132>
				PORTD = NCLKNDI_CS;
				PORTD = NCLKNDINCS;
			}
		}
	}
	buffClear();
    15be:	0e 94 b0 01 	call	0x360	; 0x360 <buffClear>
	PORTB &= 0b11101111; // off red LED
    15c2:	2c 98       	cbi	0x05, 4	; 5
    15c4:	a7 ce       	rjmp	.-690    	; 0x1314 <dsk2Nic+0x26a>
						(unsigned long)userAddr + ( ( (unsigned long)(ft-2) << sectorsPerCluster2) + (long_sector & (sectorsPerCluster - 1) ) ) * (unsigned long)512);
				for (i = 0; i < 512; i++) {
					if (bit_is_set(PIND, 3)) return;
					*(&writeData[0][0] + i) = readByteFast();
				}
				readByteFast(); readByteFast(); // discard CRC bytes				
    15c6:	0e 94 90 02 	call	0x520	; 0x520 <readByteFast>
    15ca:	0e 94 90 02 	call	0x520	; 0x520 <readByteFast>
				src = &writeData[0][0];
    15ce:	20 e2       	ldi	r18, 0x20	; 32
    15d0:	31 e0       	ldi	r19, 0x01	; 1
    15d2:	bb ce       	rjmp	.-650    	; 0x134a <dsk2Nic+0x2a0>

000015d4 <makeFileNameList>:
}

/******************************************************************************/
// make file name list and sort
unsigned short makeFileNameList(unsigned short *list, char *targExt)
{
    15d4:	2f 92       	push	r2
    15d6:	3f 92       	push	r3
    15d8:	4f 92       	push	r4
    15da:	5f 92       	push	r5
    15dc:	6f 92       	push	r6
    15de:	7f 92       	push	r7
    15e0:	8f 92       	push	r8
    15e2:	9f 92       	push	r9
    15e4:	af 92       	push	r10
    15e6:	bf 92       	push	r11
    15e8:	cf 92       	push	r12
    15ea:	df 92       	push	r13
    15ec:	ef 92       	push	r14
    15ee:	ff 92       	push	r15
    15f0:	0f 93       	push	r16
    15f2:	1f 93       	push	r17
    15f4:	df 93       	push	r29
    15f6:	cf 93       	push	r28
    15f8:	cd b7       	in	r28, 0x3d	; 61
    15fa:	de b7       	in	r29, 0x3e	; 62
    15fc:	65 97       	sbiw	r28, 0x15	; 21
    15fe:	0f b6       	in	r0, 0x3f	; 63
    1600:	f8 94       	cli
    1602:	de bf       	out	0x3e, r29	; 62
    1604:	0f be       	out	0x3f, r0	; 63
    1606:	cd bf       	out	0x3d, r28	; 61
    1608:	1c 01       	movw	r2, r24
    160a:	3b 01       	movw	r6, r22
	unsigned short i, j, k, entryNum = 0;
	char name1[8], name2[8];

	lcd_gotoxy(0, 0);
    160c:	80 e0       	ldi	r24, 0x00	; 0
    160e:	60 e0       	ldi	r22, 0x00	; 0
    1610:	0e 94 5e 01 	call	0x2bc	; 0x2bc <lcd_gotoxy>
	lcd_puts_p(MSG5);
    1614:	80 e0       	ldi	r24, 0x00	; 0
    1616:	91 e0       	ldi	r25, 0x01	; 1
    1618:	0e 94 7b 01 	call	0x2f6	; 0x2f6 <lcd_puts_p>
    161c:	ee 24       	eor	r14, r14
    161e:	ff 24       	eor	r15, r15
    1620:	87 01       	movw	r16, r14

/******************************************************************************/
// make file name list and sort
unsigned short makeFileNameList(unsigned short *list, char *targExt)
{
	unsigned short i, j, k, entryNum = 0;
    1622:	aa 24       	eor	r10, r10
    1624:	bb 24       	eor	r11, r11

	lcd_gotoxy(0, 0);
	lcd_puts_p(MSG5);

	// find extension
	for (i = 0; i != 512; i++) {
    1626:	cc 24       	eor	r12, r12
    1628:	dd 24       	eor	r13, r13
		cmdFast(16, 3);
		cmd17Fast(rootAddr + i * 32 + 8);
		for (j = 0; j != 3; j++)
			ext[j]=readByteFast();
		readByteFast(); readByteFast(); // discard CRC bytes
		if (memcmp(ext, targExt, 3) == 0) {											// Extensão achada
    162a:	4e 01       	movw	r8, r28
    162c:	08 94       	sec
    162e:	81 1c       	adc	r8, r1
    1630:	91 1c       	adc	r9, r1

	// find extension
	for (i = 0; i != 512; i++) {
		unsigned char ext[3], d;

		if (bit_is_set(PIND, 3)) return 512;										// Cartão removido
    1632:	4b 99       	sbic	0x09, 3	; 9
    1634:	fc c0       	rjmp	.+504    	; 0x182e <makeFileNameList+0x25a>
		// check first char
		cmdFast(16, 1);
    1636:	80 e1       	ldi	r24, 0x10	; 16
    1638:	41 e0       	ldi	r20, 0x01	; 1
    163a:	50 e0       	ldi	r21, 0x00	; 0
    163c:	60 e0       	ldi	r22, 0x00	; 0
    163e:	70 e0       	ldi	r23, 0x00	; 0
    1640:	0e 94 fa 02 	call	0x5f4	; 0x5f4 <cmdFast>
		cmd17Fast(rootAddr + i * 32);
    1644:	60 91 13 08 	lds	r22, 0x0813
    1648:	70 91 14 08 	lds	r23, 0x0814
    164c:	80 91 15 08 	lds	r24, 0x0815
    1650:	90 91 16 08 	lds	r25, 0x0816
    1654:	6e 0d       	add	r22, r14
    1656:	7f 1d       	adc	r23, r15
    1658:	80 1f       	adc	r24, r16
    165a:	91 1f       	adc	r25, r17
    165c:	0e 94 2a 03 	call	0x654	; 0x654 <cmd17Fast>
		d = readByteFast();
    1660:	0e 94 90 02 	call	0x520	; 0x520 <readByteFast>
    1664:	48 2e       	mov	r4, r24
		readByteFast(); readByteFast(); // discard CRC bytes
    1666:	0e 94 90 02 	call	0x520	; 0x520 <readByteFast>
    166a:	0e 94 90 02 	call	0x520	; 0x520 <readByteFast>
		if ((d == 0x00) || (d == 0x05) || (d == 0x2e) || (d == 0xe5))				// Entrada livre
    166e:	44 20       	and	r4, r4
    1670:	09 f4       	brne	.+2      	; 0x1674 <makeFileNameList+0xa0>
    1672:	68 c0       	rjmp	.+208    	; 0x1744 <makeFileNameList+0x170>
    1674:	84 2d       	mov	r24, r4
    1676:	85 30       	cpi	r24, 0x05	; 5
    1678:	09 f4       	brne	.+2      	; 0x167c <makeFileNameList+0xa8>
    167a:	64 c0       	rjmp	.+200    	; 0x1744 <makeFileNameList+0x170>
    167c:	8e 32       	cpi	r24, 0x2E	; 46
    167e:	09 f4       	brne	.+2      	; 0x1682 <makeFileNameList+0xae>
    1680:	61 c0       	rjmp	.+194    	; 0x1744 <makeFileNameList+0x170>
    1682:	85 3e       	cpi	r24, 0xE5	; 229
    1684:	09 f4       	brne	.+2      	; 0x1688 <makeFileNameList+0xb4>
    1686:	5e c0       	rjmp	.+188    	; 0x1744 <makeFileNameList+0x170>
			continue;
		if (!((( d>= 'A') && (d <= 'Z')) || ((d >= '0') && (d <= '9'))))			// Entrada inválida
    1688:	81 54       	subi	r24, 0x41	; 65
    168a:	8a 31       	cpi	r24, 0x1A	; 26
    168c:	20 f0       	brcs	.+8      	; 0x1696 <makeFileNameList+0xc2>
    168e:	8f 5e       	subi	r24, 0xEF	; 239
    1690:	8a 30       	cpi	r24, 0x0A	; 10
    1692:	08 f0       	brcs	.+2      	; 0x1696 <makeFileNameList+0xc2>
    1694:	57 c0       	rjmp	.+174    	; 0x1744 <makeFileNameList+0x170>
			continue;
		cmd17Fast(rootAddr + i * 32 + 11);
    1696:	60 91 13 08 	lds	r22, 0x0813
    169a:	70 91 14 08 	lds	r23, 0x0814
    169e:	80 91 15 08 	lds	r24, 0x0815
    16a2:	90 91 16 08 	lds	r25, 0x0816
    16a6:	65 5f       	subi	r22, 0xF5	; 245
    16a8:	7f 4f       	sbci	r23, 0xFF	; 255
    16aa:	8f 4f       	sbci	r24, 0xFF	; 255
    16ac:	9f 4f       	sbci	r25, 0xFF	; 255
    16ae:	6e 0d       	add	r22, r14
    16b0:	7f 1d       	adc	r23, r15
    16b2:	80 1f       	adc	r24, r16
    16b4:	91 1f       	adc	r25, r17
    16b6:	0e 94 2a 03 	call	0x654	; 0x654 <cmd17Fast>
		d = readByteFast();															// Atributo
    16ba:	0e 94 90 02 	call	0x520	; 0x520 <readByteFast>
    16be:	48 2e       	mov	r4, r24
		readByteFast(); readByteFast(); // discard CRC bytes
    16c0:	0e 94 90 02 	call	0x520	; 0x520 <readByteFast>
    16c4:	0e 94 90 02 	call	0x520	; 0x520 <readByteFast>
		if (d & 0x1e) 																// Arquivo de sistema
    16c8:	84 2d       	mov	r24, r4
    16ca:	8e 71       	andi	r24, 0x1E	; 30
    16cc:	d9 f5       	brne	.+118    	; 0x1744 <makeFileNameList+0x170>
			continue;
		if (d == 0xf) 																// Entrada LFN
    16ce:	94 2d       	mov	r25, r4
    16d0:	9f 30       	cpi	r25, 0x0F	; 15
    16d2:	c1 f1       	breq	.+112    	; 0x1744 <makeFileNameList+0x170>
			continue;
		// check extension
		cmdFast(16, 3);
    16d4:	80 e1       	ldi	r24, 0x10	; 16
    16d6:	43 e0       	ldi	r20, 0x03	; 3
    16d8:	50 e0       	ldi	r21, 0x00	; 0
    16da:	60 e0       	ldi	r22, 0x00	; 0
    16dc:	70 e0       	ldi	r23, 0x00	; 0
    16de:	0e 94 fa 02 	call	0x5f4	; 0x5f4 <cmdFast>
		cmd17Fast(rootAddr + i * 32 + 8);
    16e2:	60 91 13 08 	lds	r22, 0x0813
    16e6:	70 91 14 08 	lds	r23, 0x0814
    16ea:	80 91 15 08 	lds	r24, 0x0815
    16ee:	90 91 16 08 	lds	r25, 0x0816
    16f2:	68 5f       	subi	r22, 0xF8	; 248
    16f4:	7f 4f       	sbci	r23, 0xFF	; 255
    16f6:	8f 4f       	sbci	r24, 0xFF	; 255
    16f8:	9f 4f       	sbci	r25, 0xFF	; 255
    16fa:	6e 0d       	add	r22, r14
    16fc:	7f 1d       	adc	r23, r15
    16fe:	80 1f       	adc	r24, r16
    1700:	91 1f       	adc	r25, r17
    1702:	0e 94 2a 03 	call	0x654	; 0x654 <cmd17Fast>
		for (j = 0; j != 3; j++)
			ext[j]=readByteFast();
    1706:	0e 94 90 02 	call	0x520	; 0x520 <readByteFast>
    170a:	89 83       	std	Y+1, r24	; 0x01
    170c:	0e 94 90 02 	call	0x520	; 0x520 <readByteFast>
    1710:	8a 83       	std	Y+2, r24	; 0x02
    1712:	0e 94 90 02 	call	0x520	; 0x520 <readByteFast>
    1716:	8b 83       	std	Y+3, r24	; 0x03
		readByteFast(); readByteFast(); // discard CRC bytes
    1718:	0e 94 90 02 	call	0x520	; 0x520 <readByteFast>
    171c:	0e 94 90 02 	call	0x520	; 0x520 <readByteFast>
		if (memcmp(ext, targExt, 3) == 0) {											// Extensão achada
    1720:	c4 01       	movw	r24, r8
    1722:	b3 01       	movw	r22, r6
    1724:	43 e0       	ldi	r20, 0x03	; 3
    1726:	50 e0       	ldi	r21, 0x00	; 0
    1728:	0e 94 0c 15 	call	0x2a18	; 0x2a18 <memcmp>
    172c:	00 97       	sbiw	r24, 0x00	; 0
    172e:	51 f4       	brne	.+20     	; 0x1744 <makeFileNameList+0x170>
			list[entryNum++] = i;
    1730:	f5 01       	movw	r30, r10
    1732:	ee 0f       	add	r30, r30
    1734:	ff 1f       	adc	r31, r31
    1736:	e2 0d       	add	r30, r2
    1738:	f3 1d       	adc	r31, r3
    173a:	d1 82       	std	Z+1, r13	; 0x01
    173c:	c0 82       	st	Z, r12
    173e:	08 94       	sec
    1740:	a1 1c       	adc	r10, r1
    1742:	b1 1c       	adc	r11, r1

	lcd_gotoxy(0, 0);
	lcd_puts_p(MSG5);

	// find extension
	for (i = 0; i != 512; i++) {
    1744:	08 94       	sec
    1746:	c1 1c       	adc	r12, r1
    1748:	d1 1c       	adc	r13, r1
    174a:	80 e2       	ldi	r24, 0x20	; 32
    174c:	90 e0       	ldi	r25, 0x00	; 0
    174e:	a0 e0       	ldi	r26, 0x00	; 0
    1750:	b0 e0       	ldi	r27, 0x00	; 0
    1752:	e8 0e       	add	r14, r24
    1754:	f9 1e       	adc	r15, r25
    1756:	0a 1f       	adc	r16, r26
    1758:	1b 1f       	adc	r17, r27
    175a:	90 e0       	ldi	r25, 0x00	; 0
    175c:	c9 16       	cp	r12, r25
    175e:	92 e0       	ldi	r25, 0x02	; 2
    1760:	d9 06       	cpc	r13, r25
    1762:	09 f0       	breq	.+2      	; 0x1766 <makeFileNameList+0x192>
    1764:	66 cf       	rjmp	.-308    	; 0x1632 <makeFileNameList+0x5e>
    1766:	25 01       	movw	r4, r10
		if (memcmp(ext, targExt, 3) == 0) {											// Extensão achada
			list[entryNum++] = i;
		}
	}
	// sort
	if (entryNum > 1)
    1768:	a2 e0       	ldi	r26, 0x02	; 2
    176a:	aa 16       	cp	r10, r26
    176c:	b1 04       	cpc	r11, r1
    176e:	08 f4       	brcc	.+2      	; 0x1772 <makeFileNameList+0x19e>
    1770:	61 c0       	rjmp	.+194    	; 0x1834 <makeFileNameList+0x260>
		for (i = 0; i <= (entryNum - 2); i++) {
    1772:	f5 01       	movw	r30, r10
    1774:	32 97       	sbiw	r30, 0x02	; 2
    1776:	fd 8b       	std	Y+21, r31	; 0x15
    1778:	ec 8b       	std	Y+20, r30	; 0x14
    177a:	45 01       	movw	r8, r10
    177c:	08 94       	sec
    177e:	81 08       	sbc	r8, r1
    1780:	91 08       	sbc	r9, r1
    1782:	66 24       	eor	r6, r6
    1784:	77 24       	eor	r7, r7
    1786:	14 e0       	ldi	r17, 0x04	; 4
    1788:	c1 2e       	mov	r12, r17
    178a:	d1 2c       	mov	r13, r1
    178c:	cc 0e       	add	r12, r28
    178e:	dd 1e       	adc	r13, r29
    1790:	bc e0       	ldi	r27, 0x0C	; 12
    1792:	ab 2e       	mov	r10, r27
    1794:	b1 2c       	mov	r11, r1
    1796:	ac 0e       	add	r10, r28
    1798:	bd 1e       	adc	r11, r29
			for (j = 1; j <= (entryNum - i - 1); j++) {
    179a:	81 14       	cp	r8, r1
    179c:	91 04       	cpc	r9, r1
    179e:	d1 f1       	breq	.+116    	; 0x1814 <makeFileNameList+0x240>
    17a0:	81 01       	movw	r16, r2
    17a2:	a1 e0       	ldi	r26, 0x01	; 1
    17a4:	ea 2e       	mov	r14, r26
    17a6:	f1 2c       	mov	r15, r1
    17a8:	08 c0       	rjmp	.+16     	; 0x17ba <makeFileNameList+0x1e6>
    17aa:	08 94       	sec
    17ac:	e1 1c       	adc	r14, r1
    17ae:	f1 1c       	adc	r15, r1
    17b0:	0e 5f       	subi	r16, 0xFE	; 254
    17b2:	1f 4f       	sbci	r17, 0xFF	; 255
    17b4:	8e 14       	cp	r8, r14
    17b6:	9f 04       	cpc	r9, r15
    17b8:	68 f1       	brcs	.+90     	; 0x1814 <makeFileNameList+0x240>
				getFileName(list[j], name1);
    17ba:	d8 01       	movw	r26, r16
    17bc:	12 96       	adiw	r26, 0x02	; 2
    17be:	8d 91       	ld	r24, X+
    17c0:	9c 91       	ld	r25, X
    17c2:	13 97       	sbiw	r26, 0x03	; 3
    17c4:	b6 01       	movw	r22, r12
    17c6:	0e 94 37 03 	call	0x66e	; 0x66e <getFileName>
				getFileName(list[j-1], name2);
    17ca:	f8 01       	movw	r30, r16
    17cc:	80 81       	ld	r24, Z
    17ce:	91 81       	ldd	r25, Z+1	; 0x01
    17d0:	b5 01       	movw	r22, r10
    17d2:	0e 94 37 03 	call	0x66e	; 0x66e <getFileName>
			if (memcmp(name1, name2, 8) < 0) {
    17d6:	c6 01       	movw	r24, r12
    17d8:	b5 01       	movw	r22, r10
    17da:	48 e0       	ldi	r20, 0x08	; 8
    17dc:	50 e0       	ldi	r21, 0x00	; 0
    17de:	0e 94 0c 15 	call	0x2a18	; 0x2a18 <memcmp>
    17e2:	97 ff       	sbrs	r25, 7
    17e4:	e2 cf       	rjmp	.-60     	; 0x17aa <makeFileNameList+0x1d6>
				k = list[j];
    17e6:	d8 01       	movw	r26, r16
    17e8:	12 96       	adiw	r26, 0x02	; 2
    17ea:	8d 91       	ld	r24, X+
    17ec:	9c 91       	ld	r25, X
    17ee:	13 97       	sbiw	r26, 0x03	; 3
				list[j] = list[j - 1];
    17f0:	2d 91       	ld	r18, X+
    17f2:	3c 91       	ld	r19, X
    17f4:	11 97       	sbiw	r26, 0x01	; 1
    17f6:	13 96       	adiw	r26, 0x03	; 3
    17f8:	3c 93       	st	X, r19
    17fa:	2e 93       	st	-X, r18
    17fc:	12 97       	sbiw	r26, 0x02	; 2
				list[j - 1]=k;
    17fe:	11 96       	adiw	r26, 0x01	; 1
    1800:	9c 93       	st	X, r25
    1802:	8e 93       	st	-X, r24
		}
	}
	// sort
	if (entryNum > 1)
		for (i = 0; i <= (entryNum - 2); i++) {
			for (j = 1; j <= (entryNum - i - 1); j++) {
    1804:	08 94       	sec
    1806:	e1 1c       	adc	r14, r1
    1808:	f1 1c       	adc	r15, r1
    180a:	0e 5f       	subi	r16, 0xFE	; 254
    180c:	1f 4f       	sbci	r17, 0xFF	; 255
    180e:	8e 14       	cp	r8, r14
    1810:	9f 04       	cpc	r9, r15
    1812:	98 f6       	brcc	.-90     	; 0x17ba <makeFileNameList+0x1e6>
			list[entryNum++] = i;
		}
	}
	// sort
	if (entryNum > 1)
		for (i = 0; i <= (entryNum - 2); i++) {
    1814:	08 94       	sec
    1816:	61 1c       	adc	r6, r1
    1818:	71 1c       	adc	r7, r1
    181a:	08 94       	sec
    181c:	81 08       	sbc	r8, r1
    181e:	91 08       	sbc	r9, r1
    1820:	ec 89       	ldd	r30, Y+20	; 0x14
    1822:	fd 89       	ldd	r31, Y+21	; 0x15
    1824:	e6 15       	cp	r30, r6
    1826:	f7 05       	cpc	r31, r7
    1828:	08 f0       	brcs	.+2      	; 0x182c <makeFileNameList+0x258>
    182a:	b7 cf       	rjmp	.-146    	; 0x179a <makeFileNameList+0x1c6>
    182c:	03 c0       	rjmp	.+6      	; 0x1834 <makeFileNameList+0x260>

	// find extension
	for (i = 0; i != 512; i++) {
		unsigned char ext[3], d;

		if (bit_is_set(PIND, 3)) return 512;										// Cartão removido
    182e:	41 2c       	mov	r4, r1
    1830:	f2 e0       	ldi	r31, 0x02	; 2
    1832:	5f 2e       	mov	r5, r31
				list[j - 1]=k;
			}
		}
	}
	return entryNum;
}
    1834:	c2 01       	movw	r24, r4
    1836:	65 96       	adiw	r28, 0x15	; 21
    1838:	0f b6       	in	r0, 0x3f	; 63
    183a:	f8 94       	cli
    183c:	de bf       	out	0x3e, r29	; 62
    183e:	0f be       	out	0x3f, r0	; 63
    1840:	cd bf       	out	0x3d, r28	; 61
    1842:	cf 91       	pop	r28
    1844:	df 91       	pop	r29
    1846:	1f 91       	pop	r17
    1848:	0f 91       	pop	r16
    184a:	ff 90       	pop	r15
    184c:	ef 90       	pop	r14
    184e:	df 90       	pop	r13
    1850:	cf 90       	pop	r12
    1852:	bf 90       	pop	r11
    1854:	af 90       	pop	r10
    1856:	9f 90       	pop	r9
    1858:	8f 90       	pop	r8
    185a:	7f 90       	pop	r7
    185c:	6f 90       	pop	r6
    185e:	5f 90       	pop	r5
    1860:	4f 90       	pop	r4
    1862:	3f 90       	pop	r3
    1864:	2f 90       	pop	r2
    1866:	08 95       	ret

00001868 <chooseANicFile>:

/******************************************************************************/
// choose a NIC file from a NIC file name list
unsigned char chooseANicFile(void *tempBuff, unsigned char btfExists, char *filebase)
{
    1868:	2f 92       	push	r2
    186a:	3f 92       	push	r3
    186c:	4f 92       	push	r4
    186e:	5f 92       	push	r5
    1870:	6f 92       	push	r6
    1872:	7f 92       	push	r7
    1874:	8f 92       	push	r8
    1876:	9f 92       	push	r9
    1878:	af 92       	push	r10
    187a:	bf 92       	push	r11
    187c:	cf 92       	push	r12
    187e:	df 92       	push	r13
    1880:	ef 92       	push	r14
    1882:	ff 92       	push	r15
    1884:	0f 93       	push	r16
    1886:	1f 93       	push	r17
    1888:	df 93       	push	r29
    188a:	cf 93       	push	r28
    188c:	cd b7       	in	r28, 0x3d	; 61
    188e:	de b7       	in	r29, 0x3e	; 62
    1890:	2b 97       	sbiw	r28, 0x0b	; 11
    1892:	0f b6       	in	r0, 0x3f	; 63
    1894:	f8 94       	cli
    1896:	de bf       	out	0x3e, r29	; 62
    1898:	0f be       	out	0x3f, r0	; 63
    189a:	cd bf       	out	0x3d, r28	; 61
    189c:	08 2f       	mov	r16, r24
    189e:	e9 2e       	mov	r14, r25
    18a0:	c6 2e       	mov	r12, r22
    18a2:	49 87       	std	Y+9, r20	; 0x09
    18a4:	5a 87       	std	Y+10, r21	; 0x0a
	unsigned short *list = (unsigned short *)tempBuff;
    18a6:	88 2e       	mov	r8, r24
    18a8:	99 2e       	mov	r9, r25
	unsigned short num = makeFileNameList(list, "NIC");
    18aa:	c4 01       	movw	r24, r8
    18ac:	60 e0       	ldi	r22, 0x00	; 0
    18ae:	71 e0       	ldi	r23, 0x01	; 1
    18b0:	0e 94 ea 0a 	call	0x15d4	; 0x15d4 <makeFileNameList>
    18b4:	1c 01       	movw	r2, r24
	char name[8];
	short cur = 0, prevCur = -1;
	unsigned long i;
	unsigned char flagb = 0xFF;

	lcd_gotoxy(0, 0);
    18b6:	80 e0       	ldi	r24, 0x00	; 0
    18b8:	60 e0       	ldi	r22, 0x00	; 0
    18ba:	0e 94 5e 01 	call	0x2bc	; 0x2bc <lcd_gotoxy>
	lcd_puts_p(MSG6);
    18be:	81 e1       	ldi	r24, 0x11	; 17
    18c0:	91 e0       	ldi	r25, 0x01	; 1
    18c2:	0e 94 7b 01 	call	0x2f6	; 0x2f6 <lcd_puts_p>

	// if there is at least one NIC file,
	if (num > 0) {
    18c6:	21 14       	cp	r2, r1
    18c8:	31 04       	cpc	r3, r1
    18ca:	09 f4       	brne	.+2      	; 0x18ce <chooseANicFile+0x66>
    18cc:	45 c0       	rjmp	.+138    	; 0x1958 <chooseANicFile+0xf0>
		// determine first file
		if (btfExists) {
    18ce:	cc 20       	and	r12, r12
    18d0:	09 f0       	breq	.+2      	; 0x18d4 <chooseANicFile+0x6c>
    18d2:	89 c0       	rjmp	.+274    	; 0x19e6 <chooseANicFile+0x17e>
unsigned char chooseANicFile(void *tempBuff, unsigned char btfExists, char *filebase)
{
	unsigned short *list = (unsigned short *)tempBuff;
	unsigned short num = makeFileNameList(list, "NIC");
	char name[8];
	short cur = 0, prevCur = -1;
    18d4:	ee 24       	eor	r14, r14
    18d6:	ff 24       	eor	r15, r15
					break;
				}
			}
		}
		while (1) {
			if (bit_is_set(PIND, 3)) return 0;			// Cartão foi removido
    18d8:	4b 99       	sbic	0x09, 3	; 9
    18da:	3e c0       	rjmp	.+124    	; 0x1958 <chooseANicFile+0xf0>
    18dc:	2f ef       	ldi	r18, 0xFF	; 255
    18de:	4f ef       	ldi	r20, 0xFF	; 255
    18e0:	5f ef       	ldi	r21, 0xFF	; 255
			if (bit_is_clear(PIND, 7)) {				// down button pushed !
				if (flagb & 0x02) {
					_delay_ms(100);
					while (bit_is_clear(PIND, 7)) nop();
					cur--;
					if (cur < 0) cur = num-1;
    18e2:	61 01       	movw	r12, r2
    18e4:	08 94       	sec
    18e6:	c1 08       	sbc	r12, r1
    18e8:	d1 08       	sbc	r13, r1

			// display file name
			if (prevCur != cur) {
				prevCur = cur;

				getFileName(list[cur], name);
    18ea:	8e 01       	movw	r16, r28
    18ec:	0f 5f       	subi	r16, 0xFF	; 255
    18ee:	1f 4f       	sbci	r17, 0xFF	; 255
				}
			}
		}
		while (1) {
			if (bit_is_set(PIND, 3)) return 0;			// Cartão foi removido
			if (bit_is_clear(PINB, 5)) {				// up button pushed !
    18f0:	1d 99       	sbic	0x03, 5	; 3
    18f2:	a1 c0       	rjmp	.+322    	; 0x1a36 <chooseANicFile+0x1ce>
				if (flagb & 0x01) {
    18f4:	20 fd       	sbrc	r18, 0
    18f6:	5f c0       	rjmp	.+190    	; 0x19b6 <chooseANicFile+0x14e>
					_delay_ms(100);
					while (bit_is_clear(PINB, 5)) nop();
					cur++;
					if (cur == num) cur = 0;
				}
				flagb &= ~0x01;
    18f8:	2e 7f       	andi	r18, 0xFE	; 254
			} else {
				flagb |= 0x01;
			}

			if (bit_is_clear(PIND, 7)) {				// down button pushed !
    18fa:	4f 99       	sbic	0x09, 7	; 9
    18fc:	9f c0       	rjmp	.+318    	; 0x1a3c <chooseANicFile+0x1d4>
				if (flagb & 0x02) {
    18fe:	21 fd       	sbrc	r18, 1
    1900:	45 c0       	rjmp	.+138    	; 0x198c <chooseANicFile+0x124>
					_delay_ms(100);
					while (bit_is_clear(PIND, 7)) nop();
					cur--;
					if (cur < 0) cur = num-1;
				}
				flagb &= ~0x02;
    1902:	2d 7f       	andi	r18, 0xFD	; 253
			} else {
				flagb |= 0x02;
			}
			if (bit_is_clear(PIND, 6)) {				// enter button pushed !
    1904:	4e 99       	sbic	0x09, 6	; 9
    1906:	0c c0       	rjmp	.+24     	; 0x1920 <chooseANicFile+0xb8>
    1908:	80 e0       	ldi	r24, 0x00	; 0
    190a:	90 e0       	ldi	r25, 0x00	; 0
    190c:	31 e0       	ldi	r19, 0x01	; 1
				unsigned char flg = 1;

				for (i=0; i!=100; i++) if (bit_is_set(PIND, 6)) flg = 0;
    190e:	4e 99       	sbic	0x09, 6	; 9
    1910:	30 e0       	ldi	r19, 0x00	; 0
    1912:	01 96       	adiw	r24, 0x01	; 1
    1914:	84 36       	cpi	r24, 0x64	; 100
    1916:	91 05       	cpc	r25, r1
    1918:	d1 f7       	brne	.-12     	; 0x190e <chooseANicFile+0xa6>
				if (flg) {
    191a:	33 23       	and	r19, r19
    191c:	09 f0       	breq	.+2      	; 0x1920 <chooseANicFile+0xb8>
    191e:	90 c0       	rjmp	.+288    	; 0x1a40 <chooseANicFile+0x1d8>
					break;
				}
			}

			// display file name
			if (prevCur != cur) {
    1920:	4e 15       	cp	r20, r14
    1922:	5f 05       	cpc	r21, r15
    1924:	89 f0       	breq	.+34     	; 0x1948 <chooseANicFile+0xe0>
				prevCur = cur;

				getFileName(list[cur], name);
    1926:	f7 01       	movw	r30, r14
    1928:	ee 0f       	add	r30, r30
    192a:	ff 1f       	adc	r31, r31
    192c:	e8 0d       	add	r30, r8
    192e:	f9 1d       	adc	r31, r9
    1930:	80 81       	ld	r24, Z
    1932:	91 81       	ldd	r25, Z+1	; 0x01
    1934:	b8 01       	movw	r22, r16
    1936:	2b 87       	std	Y+11, r18	; 0x0b
    1938:	0e 94 37 03 	call	0x66e	; 0x66e <getFileName>
				dispStr(name, 1);
    193c:	c8 01       	movw	r24, r16
    193e:	61 e0       	ldi	r22, 0x01	; 1
    1940:	0e 94 8d 01 	call	0x31a	; 0x31a <dispStr>
    1944:	a7 01       	movw	r20, r14
    1946:	2b 85       	ldd	r18, Y+11	; 0x0b
    1948:	a3 e2       	ldi	r26, 0x23	; 35
    194a:	b4 ef       	ldi	r27, 0xF4	; 244
    194c:	11 97       	sbiw	r26, 0x01	; 1
    194e:	f1 f7       	brne	.-4      	; 0x194c <chooseANicFile+0xe4>
    1950:	00 c0       	rjmp	.+0      	; 0x1952 <chooseANicFile+0xea>
    1952:	00 00       	nop
					break;
				}
			}
		}
		while (1) {
			if (bit_is_set(PIND, 3)) return 0;			// Cartão foi removido
    1954:	4b 9b       	sbis	0x09, 3	; 9
    1956:	cc cf       	rjmp	.-104    	; 0x18f0 <chooseANicFile+0x88>
    1958:	80 e0       	ldi	r24, 0x00	; 0

		return 1;
	} else {
		return 0;
	}
}
    195a:	2b 96       	adiw	r28, 0x0b	; 11
    195c:	0f b6       	in	r0, 0x3f	; 63
    195e:	f8 94       	cli
    1960:	de bf       	out	0x3e, r29	; 62
    1962:	0f be       	out	0x3f, r0	; 63
    1964:	cd bf       	out	0x3d, r28	; 61
    1966:	cf 91       	pop	r28
    1968:	df 91       	pop	r29
    196a:	1f 91       	pop	r17
    196c:	0f 91       	pop	r16
    196e:	ff 90       	pop	r15
    1970:	ef 90       	pop	r14
    1972:	df 90       	pop	r13
    1974:	cf 90       	pop	r12
    1976:	bf 90       	pop	r11
    1978:	af 90       	pop	r10
    197a:	9f 90       	pop	r9
    197c:	8f 90       	pop	r8
    197e:	7f 90       	pop	r7
    1980:	6f 90       	pop	r6
    1982:	5f 90       	pop	r5
    1984:	4f 90       	pop	r4
    1986:	3f 90       	pop	r3
    1988:	2f 90       	pop	r2
    198a:	08 95       	ret
    198c:	8f e1       	ldi	r24, 0x1F	; 31
    198e:	91 ea       	ldi	r25, 0xA1	; 161
    1990:	a7 e0       	ldi	r26, 0x07	; 7
    1992:	81 50       	subi	r24, 0x01	; 1
    1994:	90 40       	sbci	r25, 0x00	; 0
    1996:	a0 40       	sbci	r26, 0x00	; 0
    1998:	e1 f7       	brne	.-8      	; 0x1992 <chooseANicFile+0x12a>
    199a:	00 c0       	rjmp	.+0      	; 0x199c <chooseANicFile+0x134>
    199c:	00 00       	nop
			}

			if (bit_is_clear(PIND, 7)) {				// down button pushed !
				if (flagb & 0x02) {
					_delay_ms(100);
					while (bit_is_clear(PIND, 7)) nop();
    199e:	4f 99       	sbic	0x09, 7	; 9
    19a0:	03 c0       	rjmp	.+6      	; 0x19a8 <chooseANicFile+0x140>
    19a2:	00 00       	nop
    19a4:	4f 9b       	sbis	0x09, 7	; 9
    19a6:	fd cf       	rjmp	.-6      	; 0x19a2 <chooseANicFile+0x13a>
					cur--;
    19a8:	08 94       	sec
    19aa:	e1 08       	sbc	r14, r1
    19ac:	f1 08       	sbc	r15, r1
					if (cur < 0) cur = num-1;
    19ae:	f7 fe       	sbrs	r15, 7
    19b0:	a8 cf       	rjmp	.-176    	; 0x1902 <chooseANicFile+0x9a>
    19b2:	76 01       	movw	r14, r12
    19b4:	a6 cf       	rjmp	.-180    	; 0x1902 <chooseANicFile+0x9a>
    19b6:	8f e1       	ldi	r24, 0x1F	; 31
    19b8:	91 ea       	ldi	r25, 0xA1	; 161
    19ba:	a7 e0       	ldi	r26, 0x07	; 7
    19bc:	81 50       	subi	r24, 0x01	; 1
    19be:	90 40       	sbci	r25, 0x00	; 0
    19c0:	a0 40       	sbci	r26, 0x00	; 0
    19c2:	e1 f7       	brne	.-8      	; 0x19bc <chooseANicFile+0x154>
    19c4:	00 c0       	rjmp	.+0      	; 0x19c6 <chooseANicFile+0x15e>
    19c6:	00 00       	nop
		while (1) {
			if (bit_is_set(PIND, 3)) return 0;			// Cartão foi removido
			if (bit_is_clear(PINB, 5)) {				// up button pushed !
				if (flagb & 0x01) {
					_delay_ms(100);
					while (bit_is_clear(PINB, 5)) nop();
    19c8:	1d 99       	sbic	0x03, 5	; 3
    19ca:	03 c0       	rjmp	.+6      	; 0x19d2 <chooseANicFile+0x16a>
    19cc:	00 00       	nop
    19ce:	1d 9b       	sbis	0x03, 5	; 3
    19d0:	fd cf       	rjmp	.-6      	; 0x19cc <chooseANicFile+0x164>
					cur++;
    19d2:	08 94       	sec
    19d4:	e1 1c       	adc	r14, r1
    19d6:	f1 1c       	adc	r15, r1
					if (cur == num) cur = 0;
    19d8:	e2 14       	cp	r14, r2
    19da:	f3 04       	cpc	r15, r3
    19dc:	09 f0       	breq	.+2      	; 0x19e0 <chooseANicFile+0x178>
    19de:	8c cf       	rjmp	.-232    	; 0x18f8 <chooseANicFile+0x90>
    19e0:	ee 24       	eor	r14, r14
    19e2:	ff 24       	eor	r15, r15
    19e4:	89 cf       	rjmp	.-238    	; 0x18f8 <chooseANicFile+0x90>

	// if there is at least one NIC file,
	if (num > 0) {
		// determine first file
		if (btfExists) {
			for (i = 0; i < num; i++) {
    19e6:	21 01       	movw	r4, r2
    19e8:	66 24       	eor	r6, r6
    19ea:	77 24       	eor	r7, r7
    19ec:	a0 2e       	mov	r10, r16
    19ee:	be 2c       	mov	r11, r14
    19f0:	ee 24       	eor	r14, r14
    19f2:	ff 24       	eor	r15, r15
    19f4:	87 01       	movw	r16, r14
    19f6:	6e 01       	movw	r12, r28
    19f8:	08 94       	sec
    19fa:	c1 1c       	adc	r12, r1
    19fc:	d1 1c       	adc	r13, r1
				getFileName(list[i], name);
    19fe:	d5 01       	movw	r26, r10
    1a00:	8d 91       	ld	r24, X+
    1a02:	9d 91       	ld	r25, X+
    1a04:	5d 01       	movw	r10, r26
    1a06:	b6 01       	movw	r22, r12
    1a08:	0e 94 37 03 	call	0x66e	; 0x66e <getFileName>
				if (memcmp(name, filebase, 8)==0) {
    1a0c:	c6 01       	movw	r24, r12
    1a0e:	69 85       	ldd	r22, Y+9	; 0x09
    1a10:	7a 85       	ldd	r23, Y+10	; 0x0a
    1a12:	48 e0       	ldi	r20, 0x08	; 8
    1a14:	50 e0       	ldi	r21, 0x00	; 0
    1a16:	0e 94 0c 15 	call	0x2a18	; 0x2a18 <memcmp>
    1a1a:	00 97       	sbiw	r24, 0x00	; 0
    1a1c:	09 f4       	brne	.+2      	; 0x1a20 <chooseANicFile+0x1b8>
    1a1e:	5c cf       	rjmp	.-328    	; 0x18d8 <chooseANicFile+0x70>

	// if there is at least one NIC file,
	if (num > 0) {
		// determine first file
		if (btfExists) {
			for (i = 0; i < num; i++) {
    1a20:	08 94       	sec
    1a22:	e1 1c       	adc	r14, r1
    1a24:	f1 1c       	adc	r15, r1
    1a26:	01 1d       	adc	r16, r1
    1a28:	11 1d       	adc	r17, r1
    1a2a:	e4 14       	cp	r14, r4
    1a2c:	f5 04       	cpc	r15, r5
    1a2e:	06 05       	cpc	r16, r6
    1a30:	17 05       	cpc	r17, r7
    1a32:	28 f3       	brcs	.-54     	; 0x19fe <chooseANicFile+0x196>
    1a34:	4f cf       	rjmp	.-354    	; 0x18d4 <chooseANicFile+0x6c>
					cur++;
					if (cur == num) cur = 0;
				}
				flagb &= ~0x01;
			} else {
				flagb |= 0x01;
    1a36:	21 60       	ori	r18, 0x01	; 1
			}

			if (bit_is_clear(PIND, 7)) {				// down button pushed !
    1a38:	4f 9b       	sbis	0x09, 7	; 9
    1a3a:	61 cf       	rjmp	.-318    	; 0x18fe <chooseANicFile+0x96>
					cur--;
					if (cur < 0) cur = num-1;
				}
				flagb &= ~0x02;
			} else {
				flagb |= 0x02;
    1a3c:	22 60       	ori	r18, 0x02	; 2
    1a3e:	62 cf       	rjmp	.-316    	; 0x1904 <chooseANicFile+0x9c>
			if (bit_is_clear(PIND, 6)) {				// enter button pushed !
				unsigned char flg = 1;

				for (i=0; i!=100; i++) if (bit_is_set(PIND, 6)) flg = 0;
				if (flg) {
					while (bit_is_clear(PIND, 6)) nop();
    1a40:	4e 99       	sbic	0x09, 6	; 9
    1a42:	03 c0       	rjmp	.+6      	; 0x1a4a <chooseANicFile+0x1e2>
    1a44:	00 00       	nop
    1a46:	4e 9b       	sbis	0x09, 6	; 9
    1a48:	fd cf       	rjmp	.-6      	; 0x1a44 <chooseANicFile+0x1dc>
				getFileName(list[cur], name);
				dispStr(name, 1);
			}
			_delay_ms(10);
		}
		getFileName(list[cur], name);
    1a4a:	f7 01       	movw	r30, r14
    1a4c:	ee 0f       	add	r30, r30
    1a4e:	ff 1f       	adc	r31, r31
    1a50:	e8 0d       	add	r30, r8
    1a52:	f9 1d       	adc	r31, r9
    1a54:	80 81       	ld	r24, Z
    1a56:	91 81       	ldd	r25, Z+1	; 0x01
    1a58:	8e 01       	movw	r16, r28
    1a5a:	0f 5f       	subi	r16, 0xFF	; 255
    1a5c:	1f 4f       	sbci	r17, 0xFF	; 255
    1a5e:	b8 01       	movw	r22, r16
    1a60:	0e 94 37 03 	call	0x66e	; 0x66e <getFileName>
		memcpy(filebase, name, 8);
    1a64:	39 85       	ldd	r19, Y+9	; 0x09
    1a66:	2a 85       	ldd	r18, Y+10	; 0x0a
    1a68:	83 2f       	mov	r24, r19
    1a6a:	92 2f       	mov	r25, r18
    1a6c:	dc 01       	movw	r26, r24
    1a6e:	f8 01       	movw	r30, r16
    1a70:	88 e0       	ldi	r24, 0x08	; 8
    1a72:	01 90       	ld	r0, Z+
    1a74:	0d 92       	st	X+, r0
    1a76:	81 50       	subi	r24, 0x01	; 1
    1a78:	e1 f7       	brne	.-8      	; 0x1a72 <chooseANicFile+0x20a>

		return 1;
    1a7a:	81 e0       	ldi	r24, 0x01	; 1
    1a7c:	6e cf       	rjmp	.-292    	; 0x195a <chooseANicFile+0xf2>

00001a7e <init>:
}

/******************************************************************************/
// initialization called from check_eject
void init(unsigned char choose)
{
    1a7e:	cf 92       	push	r12
    1a80:	df 92       	push	r13
    1a82:	ef 92       	push	r14
    1a84:	ff 92       	push	r15
    1a86:	0f 93       	push	r16
    1a88:	1f 93       	push	r17
    1a8a:	df 93       	push	r29
    1a8c:	cf 93       	push	r28
    1a8e:	cd b7       	in	r28, 0x3d	; 61
    1a90:	de b7       	in	r29, 0x3e	; 62
    1a92:	66 97       	sbiw	r28, 0x16	; 22
    1a94:	0f b6       	in	r0, 0x3f	; 63
    1a96:	f8 94       	cli
    1a98:	de bf       	out	0x3e, r29	; 62
    1a9a:	0f be       	out	0x3f, r0	; 63
    1a9c:	cd bf       	out	0x3d, r28	; 61
    1a9e:	c8 2e       	mov	r12, r24
	unsigned char i;
	char str[5];
	char filebase[8], btfbase[8];
	unsigned char btfExists, choosen;

	inited = 0;
    1aa0:	10 92 61 08 	sts	0x0861, r1
	PORTB = 0b00110000;	// red LED on
    1aa4:	80 e3       	ldi	r24, 0x30	; 48
    1aa6:	85 b9       	out	0x05, r24	; 5

	// initialize the SD card
	PORTD = NCLKNDI_CS;
    1aa8:	82 ec       	ldi	r24, 0xC2	; 194
    1aaa:	8b b9       	out	0x0b, r24	; 11
	for (i = 0; i != 200; i++) {
    1aac:	10 e0       	ldi	r17, 0x00	; 0
		PORTD = _CLK_DI_CS;
    1aae:	42 ef       	ldi	r20, 0xF2	; 242
    1ab0:	e4 2e       	mov	r14, r20
		wait5(WAIT);
		PORTD = NCLK_DI_CS;
    1ab2:	02 ed       	ldi	r16, 0xD2	; 210
	PORTB = 0b00110000;	// red LED on

	// initialize the SD card
	PORTD = NCLKNDI_CS;
	for (i = 0; i != 200; i++) {
		PORTD = _CLK_DI_CS;
    1ab4:	eb b8       	out	0x0b, r14	; 11
		wait5(WAIT);
    1ab6:	81 e0       	ldi	r24, 0x01	; 1
    1ab8:	90 e0       	ldi	r25, 0x00	; 0
    1aba:	0e 94 27 14 	call	0x284e	; 0x284e <wait5>
		PORTD = NCLK_DI_CS;
    1abe:	0b b9       	out	0x0b, r16	; 11
		wait5(WAIT);
    1ac0:	81 e0       	ldi	r24, 0x01	; 1
    1ac2:	90 e0       	ldi	r25, 0x00	; 0
    1ac4:	0e 94 27 14 	call	0x284e	; 0x284e <wait5>
	inited = 0;
	PORTB = 0b00110000;	// red LED on

	// initialize the SD card
	PORTD = NCLKNDI_CS;
	for (i = 0; i != 200; i++) {
    1ac8:	1f 5f       	subi	r17, 0xFF	; 255
    1aca:	18 3c       	cpi	r17, 0xC8	; 200
    1acc:	99 f7       	brne	.-26     	; 0x1ab4 <init+0x36>
		PORTD = _CLK_DI_CS;
		wait5(WAIT);
		PORTD = NCLK_DI_CS;
		wait5(WAIT);
	 }	// input 200 clock
 	PORTD = NCLKNDINCS;
    1ace:	80 ec       	ldi	r24, 0xC0	; 192
    1ad0:	8b b9       	out	0x0b, r24	; 11
	
	cmd_(0, 0);	// command 0
    1ad2:	80 e0       	ldi	r24, 0x00	; 0
    1ad4:	40 e0       	ldi	r20, 0x00	; 0
    1ad6:	50 e0       	ldi	r21, 0x00	; 0
    1ad8:	ba 01       	movw	r22, r20
    1ada:	0e 94 b7 02 	call	0x56e	; 0x56e <cmd_>
    1ade:	04 c0       	rjmp	.+8      	; 0x1ae8 <init+0x6a>
 	do {	
		if (bit_is_set(PIND, 3)) return;												// Cartão removido
		ch = readByteSlow();
    1ae0:	0e 94 5c 02 	call	0x4b8	; 0x4b8 <readByteSlow>
	} while (ch != 0x01);
    1ae4:	81 30       	cpi	r24, 0x01	; 1
    1ae6:	89 f0       	breq	.+34     	; 0x1b0a <init+0x8c>
	 }	// input 200 clock
 	PORTD = NCLKNDINCS;
	
	cmd_(0, 0);	// command 0
 	do {	
		if (bit_is_set(PIND, 3)) return;												// Cartão removido
    1ae8:	4b 9b       	sbis	0x09, 3	; 9
    1aea:	fa cf       	rjmp	.-12     	; 0x1ae0 <init+0x62>
	formatting = 0;
	writePtr = &(writeData[buffNum][0]);
	cmdFast(16, (unsigned long)512);
	buffClear();
	inited = 1;
}
    1aec:	66 96       	adiw	r28, 0x16	; 22
    1aee:	0f b6       	in	r0, 0x3f	; 63
    1af0:	f8 94       	cli
    1af2:	de bf       	out	0x3e, r29	; 62
    1af4:	0f be       	out	0x3f, r0	; 63
    1af6:	cd bf       	out	0x3d, r28	; 61
    1af8:	cf 91       	pop	r28
    1afa:	df 91       	pop	r29
    1afc:	1f 91       	pop	r17
    1afe:	0f 91       	pop	r16
    1b00:	ff 90       	pop	r15
    1b02:	ef 90       	pop	r14
    1b04:	df 90       	pop	r13
    1b06:	cf 90       	pop	r12
    1b08:	08 95       	ret
 	do {	
		if (bit_is_set(PIND, 3)) return;												// Cartão removido
		ch = readByteSlow();
	} while (ch != 0x01);

	PORTD = NCLKNDI_CS;
    1b0a:	82 ec       	ldi	r24, 0xC2	; 194
    1b0c:	8b b9       	out	0x0b, r24	; 11
	while (1) {
		if (bit_is_set(PIND, 3))
			return;
		PORTD = NCLKNDINCS;
    1b0e:	00 ec       	ldi	r16, 0xC0	; 192
		cmd_(55, 0);	// command 55
		ch = getRespSlow();
		if (ch == 0xff) return;
		if (ch & 0xfe) continue;
		// if (ch == 0x00) break;
		PORTD = NCLKNDI_CS;
    1b10:	12 ec       	ldi	r17, 0xC2	; 194
		ch = readByteSlow();
	} while (ch != 0x01);

	PORTD = NCLKNDI_CS;
	while (1) {
		if (bit_is_set(PIND, 3))
    1b12:	4b 99       	sbic	0x09, 3	; 9
    1b14:	eb cf       	rjmp	.-42     	; 0x1aec <init+0x6e>
			return;
		PORTD = NCLKNDINCS;
    1b16:	0b b9       	out	0x0b, r16	; 11
		cmd_(55, 0);	// command 55
    1b18:	87 e3       	ldi	r24, 0x37	; 55
    1b1a:	40 e0       	ldi	r20, 0x00	; 0
    1b1c:	50 e0       	ldi	r21, 0x00	; 0
    1b1e:	ba 01       	movw	r22, r20
    1b20:	0e 94 b7 02 	call	0x56e	; 0x56e <cmd_>
		ch = getRespSlow();
    1b24:	0e 94 e8 02 	call	0x5d0	; 0x5d0 <getRespSlow>
		if (ch == 0xff) return;
    1b28:	8f 3f       	cpi	r24, 0xFF	; 255
    1b2a:	01 f3       	breq	.-64     	; 0x1aec <init+0x6e>
		if (ch & 0xfe) continue;
    1b2c:	8e 7f       	andi	r24, 0xFE	; 254
    1b2e:	89 f7       	brne	.-30     	; 0x1b12 <init+0x94>
		// if (ch == 0x00) break;
		PORTD = NCLKNDI_CS;
    1b30:	1b b9       	out	0x0b, r17	; 11
		PORTD = NCLKNDINCS;
    1b32:	0b b9       	out	0x0b, r16	; 11
		cmd_(41, 0);	// command 41	
    1b34:	89 e2       	ldi	r24, 0x29	; 41
    1b36:	40 e0       	ldi	r20, 0x00	; 0
    1b38:	50 e0       	ldi	r21, 0x00	; 0
    1b3a:	ba 01       	movw	r22, r20
    1b3c:	0e 94 b7 02 	call	0x56e	; 0x56e <cmd_>
		if (!(ch = getRespSlow()))
    1b40:	0e 94 e8 02 	call	0x5d0	; 0x5d0 <getRespSlow>
    1b44:	88 23       	and	r24, r24
    1b46:	21 f0       	breq	.+8      	; 0x1b50 <init+0xd2>
			break;
		if (ch == 0xff)
    1b48:	8f 3f       	cpi	r24, 0xFF	; 255
    1b4a:	81 f2       	breq	.-96     	; 0x1aec <init+0x6e>
			return;
		PORTD = NCLKNDI_CS;
    1b4c:	1b b9       	out	0x0b, r17	; 11
    1b4e:	e1 cf       	rjmp	.-62     	; 0x1b12 <init+0x94>
	}

	// BPB address
	cmdFast(16, 5);
    1b50:	80 e1       	ldi	r24, 0x10	; 16
    1b52:	45 e0       	ldi	r20, 0x05	; 5
    1b54:	50 e0       	ldi	r21, 0x00	; 0
    1b56:	60 e0       	ldi	r22, 0x00	; 0
    1b58:	70 e0       	ldi	r23, 0x00	; 0
    1b5a:	0e 94 fa 02 	call	0x5f4	; 0x5f4 <cmdFast>
	cmd17Fast(54);
    1b5e:	66 e3       	ldi	r22, 0x36	; 54
    1b60:	70 e0       	ldi	r23, 0x00	; 0
    1b62:	80 e0       	ldi	r24, 0x00	; 0
    1b64:	90 e0       	ldi	r25, 0x00	; 0
    1b66:	0e 94 2a 03 	call	0x654	; 0x654 <cmd17Fast>
    1b6a:	32 e0       	ldi	r19, 0x02	; 2
    1b6c:	e3 2e       	mov	r14, r19
    1b6e:	f1 2c       	mov	r15, r1
    1b70:	ec 0e       	add	r14, r28
    1b72:	fd 1e       	adc	r15, r29
	}
}

/******************************************************************************/
// initialization called from check_eject
void init(unsigned char choose)
    1b74:	8e 01       	movw	r16, r28
    1b76:	09 5f       	subi	r16, 0xF9	; 249
    1b78:	1f 4f       	sbci	r17, 0xFF	; 255

	// BPB address
	cmdFast(16, 5);
	cmd17Fast(54);
	for (i = 0; i < 5; i++)
		str[i] = readByteFast();
    1b7a:	0e 94 90 02 	call	0x520	; 0x520 <readByteFast>
    1b7e:	f7 01       	movw	r30, r14
    1b80:	81 93       	st	Z+, r24
    1b82:	7f 01       	movw	r14, r30
	}

	// BPB address
	cmdFast(16, 5);
	cmd17Fast(54);
	for (i = 0; i < 5; i++)
    1b84:	e0 17       	cp	r30, r16
    1b86:	f1 07       	cpc	r31, r17
    1b88:	c1 f7       	brne	.-16     	; 0x1b7a <init+0xfc>
		str[i] = readByteFast();
	readByteFast(); readByteFast(); // discard CRC
    1b8a:	0e 94 90 02 	call	0x520	; 0x520 <readByteFast>
    1b8e:	0e 94 90 02 	call	0x520	; 0x520 <readByteFast>
	if ((str[0] == 'F') && (str[1] == 'A') && (str[2] == 'T') &&
    1b92:	8a 81       	ldd	r24, Y+2	; 0x02
    1b94:	86 34       	cpi	r24, 0x46	; 70
    1b96:	09 f4       	brne	.+2      	; 0x1b9a <init+0x11c>
    1b98:	c5 c1       	rjmp	.+906    	; 0x1f24 <init+0x4a6>
		(str[3] == '1') && (str[4] == '6')) {
		bpbAddr = 0;
	} else {
		cmdFast(16, 4);
    1b9a:	80 e1       	ldi	r24, 0x10	; 16
    1b9c:	44 e0       	ldi	r20, 0x04	; 4
    1b9e:	50 e0       	ldi	r21, 0x00	; 0
    1ba0:	60 e0       	ldi	r22, 0x00	; 0
    1ba2:	70 e0       	ldi	r23, 0x00	; 0
    1ba4:	0e 94 fa 02 	call	0x5f4	; 0x5f4 <cmdFast>
		cmd17Fast((unsigned long)0x1c6);
    1ba8:	66 ec       	ldi	r22, 0xC6	; 198
    1baa:	71 e0       	ldi	r23, 0x01	; 1
    1bac:	80 e0       	ldi	r24, 0x00	; 0
    1bae:	90 e0       	ldi	r25, 0x00	; 0
    1bb0:	0e 94 2a 03 	call	0x654	; 0x654 <cmd17Fast>
		bpbAddr = readByteFast();
    1bb4:	0e 94 90 02 	call	0x520	; 0x520 <readByteFast>
    1bb8:	90 e0       	ldi	r25, 0x00	; 0
    1bba:	a0 e0       	ldi	r26, 0x00	; 0
    1bbc:	b0 e0       	ldi	r27, 0x00	; 0
    1bbe:	80 93 0d 08 	sts	0x080D, r24
    1bc2:	90 93 0e 08 	sts	0x080E, r25
    1bc6:	a0 93 0f 08 	sts	0x080F, r26
    1bca:	b0 93 10 08 	sts	0x0810, r27
		bpbAddr += (unsigned long)readByteFast()*0x100;
    1bce:	0e 94 90 02 	call	0x520	; 0x520 <readByteFast>
    1bd2:	90 e0       	ldi	r25, 0x00	; 0
    1bd4:	a0 e0       	ldi	r26, 0x00	; 0
    1bd6:	b0 e0       	ldi	r27, 0x00	; 0
    1bd8:	22 27       	eor	r18, r18
    1bda:	38 2f       	mov	r19, r24
    1bdc:	49 2f       	mov	r20, r25
    1bde:	5a 2f       	mov	r21, r26
    1be0:	80 91 0d 08 	lds	r24, 0x080D
    1be4:	90 91 0e 08 	lds	r25, 0x080E
    1be8:	a0 91 0f 08 	lds	r26, 0x080F
    1bec:	b0 91 10 08 	lds	r27, 0x0810
    1bf0:	82 0f       	add	r24, r18
    1bf2:	93 1f       	adc	r25, r19
    1bf4:	a4 1f       	adc	r26, r20
    1bf6:	b5 1f       	adc	r27, r21
    1bf8:	80 93 0d 08 	sts	0x080D, r24
    1bfc:	90 93 0e 08 	sts	0x080E, r25
    1c00:	a0 93 0f 08 	sts	0x080F, r26
    1c04:	b0 93 10 08 	sts	0x0810, r27
		bpbAddr += (unsigned long)readByteFast()*0x10000;
    1c08:	0e 94 90 02 	call	0x520	; 0x520 <readByteFast>
    1c0c:	90 e0       	ldi	r25, 0x00	; 0
    1c0e:	a0 e0       	ldi	r26, 0x00	; 0
    1c10:	b0 e0       	ldi	r27, 0x00	; 0
    1c12:	ac 01       	movw	r20, r24
    1c14:	33 27       	eor	r19, r19
    1c16:	22 27       	eor	r18, r18
    1c18:	80 91 0d 08 	lds	r24, 0x080D
    1c1c:	90 91 0e 08 	lds	r25, 0x080E
    1c20:	a0 91 0f 08 	lds	r26, 0x080F
    1c24:	b0 91 10 08 	lds	r27, 0x0810
    1c28:	82 0f       	add	r24, r18
    1c2a:	93 1f       	adc	r25, r19
    1c2c:	a4 1f       	adc	r26, r20
    1c2e:	b5 1f       	adc	r27, r21
    1c30:	80 93 0d 08 	sts	0x080D, r24
    1c34:	90 93 0e 08 	sts	0x080E, r25
    1c38:	a0 93 0f 08 	sts	0x080F, r26
    1c3c:	b0 93 10 08 	sts	0x0810, r27
		bpbAddr += (unsigned long)readByteFast()*0x1000000;
    1c40:	0e 94 90 02 	call	0x520	; 0x520 <readByteFast>
    1c44:	80 91 0d 08 	lds	r24, 0x080D
    1c48:	90 91 0e 08 	lds	r25, 0x080E
    1c4c:	a0 91 0f 08 	lds	r26, 0x080F
    1c50:	b0 91 10 08 	lds	r27, 0x0810
		bpbAddr *= 512;
    1c54:	e9 e0       	ldi	r30, 0x09	; 9
    1c56:	88 0f       	add	r24, r24
    1c58:	99 1f       	adc	r25, r25
    1c5a:	aa 1f       	adc	r26, r26
    1c5c:	bb 1f       	adc	r27, r27
    1c5e:	ea 95       	dec	r30
    1c60:	d1 f7       	brne	.-12     	; 0x1c56 <init+0x1d8>
    1c62:	80 93 0d 08 	sts	0x080D, r24
    1c66:	90 93 0e 08 	sts	0x080E, r25
    1c6a:	a0 93 0f 08 	sts	0x080F, r26
    1c6e:	b0 93 10 08 	sts	0x0810, r27
		readByteFast(); readByteFast(); // discard CRC bytes
    1c72:	0e 94 90 02 	call	0x520	; 0x520 <readByteFast>
    1c76:	0e 94 90 02 	call	0x520	; 0x520 <readByteFast>
	}
	if (bit_is_set(PIND, 3)) return;
    1c7a:	4b 99       	sbic	0x09, 3	; 9
    1c7c:	37 cf       	rjmp	.-402    	; 0x1aec <init+0x6e>

	// sectorsPerCluster and reservedSectors
	{
		unsigned short reservedSectors;
		volatile unsigned char k;
		cmdFast(16, 3);
    1c7e:	80 e1       	ldi	r24, 0x10	; 16
    1c80:	43 e0       	ldi	r20, 0x03	; 3
    1c82:	50 e0       	ldi	r21, 0x00	; 0
    1c84:	60 e0       	ldi	r22, 0x00	; 0
    1c86:	70 e0       	ldi	r23, 0x00	; 0
    1c88:	0e 94 fa 02 	call	0x5f4	; 0x5f4 <cmdFast>
		cmd17Fast(bpbAddr + 0x0D);
    1c8c:	60 91 0d 08 	lds	r22, 0x080D
    1c90:	70 91 0e 08 	lds	r23, 0x080E
    1c94:	80 91 0f 08 	lds	r24, 0x080F
    1c98:	90 91 10 08 	lds	r25, 0x0810
    1c9c:	63 5f       	subi	r22, 0xF3	; 243
    1c9e:	7f 4f       	sbci	r23, 0xFF	; 255
    1ca0:	8f 4f       	sbci	r24, 0xFF	; 255
    1ca2:	9f 4f       	sbci	r25, 0xFF	; 255
    1ca4:	0e 94 2a 03 	call	0x654	; 0x654 <cmd17Fast>
		sectorsPerCluster = k = readByteFast();
    1ca8:	0e 94 90 02 	call	0x520	; 0x520 <readByteFast>
    1cac:	89 83       	std	Y+1, r24	; 0x01
    1cae:	89 81       	ldd	r24, Y+1	; 0x01
    1cb0:	80 93 09 08 	sts	0x0809, r24

		sectorsPerCluster2 = 0;
    1cb4:	10 92 18 01 	sts	0x0118, r1
		while (k != 1) {
    1cb8:	89 81       	ldd	r24, Y+1	; 0x01
    1cba:	81 30       	cpi	r24, 0x01	; 1
    1cbc:	69 f0       	breq	.+26     	; 0x1cd8 <init+0x25a>
    1cbe:	91 e0       	ldi	r25, 0x01	; 1
    1cc0:	01 c0       	rjmp	.+2      	; 0x1cc4 <init+0x246>
    1cc2:	92 2f       	mov	r25, r18
			sectorsPerCluster2++;
			k >>= 1;
    1cc4:	89 81       	ldd	r24, Y+1	; 0x01
    1cc6:	86 95       	lsr	r24
    1cc8:	89 83       	std	Y+1, r24	; 0x01
		cmdFast(16, 3);
		cmd17Fast(bpbAddr + 0x0D);
		sectorsPerCluster = k = readByteFast();

		sectorsPerCluster2 = 0;
		while (k != 1) {
    1cca:	89 81       	ldd	r24, Y+1	; 0x01
    1ccc:	29 2f       	mov	r18, r25
    1cce:	2f 5f       	subi	r18, 0xFF	; 255
    1cd0:	81 30       	cpi	r24, 0x01	; 1
    1cd2:	b9 f7       	brne	.-18     	; 0x1cc2 <init+0x244>
    1cd4:	90 93 18 01 	sts	0x0118, r25
			sectorsPerCluster2++;
			k >>= 1;
		}

		reservedSectors = readByteFast();
    1cd8:	0e 94 90 02 	call	0x520	; 0x520 <readByteFast>
    1cdc:	e8 2e       	mov	r14, r24
    1cde:	ff 24       	eor	r15, r15
		reservedSectors += (unsigned short)readByteFast()*0x100;
    1ce0:	0e 94 90 02 	call	0x520	; 0x520 <readByteFast>
    1ce4:	d8 2e       	mov	r13, r24
		readByteFast(); readByteFast(); // discard CRC bytes	
    1ce6:	0e 94 90 02 	call	0x520	; 0x520 <readByteFast>
    1cea:	0e 94 90 02 	call	0x520	; 0x520 <readByteFast>
			sectorsPerCluster2++;
			k >>= 1;
		}

		reservedSectors = readByteFast();
		reservedSectors += (unsigned short)readByteFast()*0x100;
    1cee:	3d 2d       	mov	r19, r13
    1cf0:	20 e0       	ldi	r18, 0x00	; 0
    1cf2:	c9 01       	movw	r24, r18
    1cf4:	8e 0d       	add	r24, r14
    1cf6:	9f 1d       	adc	r25, r15
		readByteFast(); readByteFast(); // discard CRC bytes	
		// sectorsPerCluster = 0x40 at 2GB, 0x10 at 512MB
		// reservedSectors = 2 at 2GB
		fatAddr = bpbAddr + (unsigned long)512*reservedSectors;
    1cf8:	a0 e0       	ldi	r26, 0x00	; 0
    1cfa:	b0 e0       	ldi	r27, 0x00	; 0
    1cfc:	79 e0       	ldi	r23, 0x09	; 9
    1cfe:	88 0f       	add	r24, r24
    1d00:	99 1f       	adc	r25, r25
    1d02:	aa 1f       	adc	r26, r26
    1d04:	bb 1f       	adc	r27, r27
    1d06:	7a 95       	dec	r23
    1d08:	d1 f7       	brne	.-12     	; 0x1cfe <init+0x280>
    1d0a:	20 91 0d 08 	lds	r18, 0x080D
    1d0e:	30 91 0e 08 	lds	r19, 0x080E
    1d12:	40 91 0f 08 	lds	r20, 0x080F
    1d16:	50 91 10 08 	lds	r21, 0x0810
    1d1a:	82 0f       	add	r24, r18
    1d1c:	93 1f       	adc	r25, r19
    1d1e:	a4 1f       	adc	r26, r20
    1d20:	b5 1f       	adc	r27, r21
    1d22:	80 93 05 08 	sts	0x0805, r24
    1d26:	90 93 06 08 	sts	0x0806, r25
    1d2a:	a0 93 07 08 	sts	0x0807, r26
    1d2e:	b0 93 08 08 	sts	0x0808, r27
	}
	if (bit_is_set(PIND, 3)) return;
    1d32:	4b 99       	sbic	0x09, 3	; 9
    1d34:	db ce       	rjmp	.-586    	; 0x1aec <init+0x6e>

	{
		// sectorsPerFat and rootAddr
		cmdFast(16, 2);
    1d36:	80 e1       	ldi	r24, 0x10	; 16
    1d38:	42 e0       	ldi	r20, 0x02	; 2
    1d3a:	50 e0       	ldi	r21, 0x00	; 0
    1d3c:	60 e0       	ldi	r22, 0x00	; 0
    1d3e:	70 e0       	ldi	r23, 0x00	; 0
    1d40:	0e 94 fa 02 	call	0x5f4	; 0x5f4 <cmdFast>
		cmd17Fast(bpbAddr +0x16);
    1d44:	60 91 0d 08 	lds	r22, 0x080D
    1d48:	70 91 0e 08 	lds	r23, 0x080E
    1d4c:	80 91 0f 08 	lds	r24, 0x080F
    1d50:	90 91 10 08 	lds	r25, 0x0810
    1d54:	6a 5e       	subi	r22, 0xEA	; 234
    1d56:	7f 4f       	sbci	r23, 0xFF	; 255
    1d58:	8f 4f       	sbci	r24, 0xFF	; 255
    1d5a:	9f 4f       	sbci	r25, 0xFF	; 255
    1d5c:	0e 94 2a 03 	call	0x654	; 0x654 <cmd17Fast>
		sectorsPerFat = readByteFast();
    1d60:	0e 94 90 02 	call	0x520	; 0x520 <readByteFast>
    1d64:	80 93 fc 07 	sts	0x07FC, r24
    1d68:	10 92 fd 07 	sts	0x07FD, r1
		sectorsPerFat += (unsigned short)readByteFast() * 0x100;
    1d6c:	0e 94 90 02 	call	0x520	; 0x520 <readByteFast>
    1d70:	38 2f       	mov	r19, r24
    1d72:	20 e0       	ldi	r18, 0x00	; 0
    1d74:	80 91 fc 07 	lds	r24, 0x07FC
    1d78:	90 91 fd 07 	lds	r25, 0x07FD
    1d7c:	82 0f       	add	r24, r18
    1d7e:	93 1f       	adc	r25, r19
    1d80:	90 93 fd 07 	sts	0x07FD, r25
    1d84:	80 93 fc 07 	sts	0x07FC, r24
		readByteFast(); readByteFast(); // discard CRC bytes
    1d88:	0e 94 90 02 	call	0x520	; 0x520 <readByteFast>
    1d8c:	0e 94 90 02 	call	0x520	; 0x520 <readByteFast>
		// sectorsPerFat =  at 512MB,  0xEF at 2GB
		rootAddr = fatAddr + ((unsigned long)sectorsPerFat * 2 * 512);
    1d90:	80 91 fc 07 	lds	r24, 0x07FC
    1d94:	90 91 fd 07 	lds	r25, 0x07FD
    1d98:	a0 e0       	ldi	r26, 0x00	; 0
    1d9a:	b0 e0       	ldi	r27, 0x00	; 0
    1d9c:	6a e0       	ldi	r22, 0x0A	; 10
    1d9e:	88 0f       	add	r24, r24
    1da0:	99 1f       	adc	r25, r25
    1da2:	aa 1f       	adc	r26, r26
    1da4:	bb 1f       	adc	r27, r27
    1da6:	6a 95       	dec	r22
    1da8:	d1 f7       	brne	.-12     	; 0x1d9e <init+0x320>
    1daa:	20 91 05 08 	lds	r18, 0x0805
    1dae:	30 91 06 08 	lds	r19, 0x0806
    1db2:	40 91 07 08 	lds	r20, 0x0807
    1db6:	50 91 08 08 	lds	r21, 0x0808
    1dba:	82 0f       	add	r24, r18
    1dbc:	93 1f       	adc	r25, r19
    1dbe:	a4 1f       	adc	r26, r20
    1dc0:	b5 1f       	adc	r27, r21
    1dc2:	80 93 13 08 	sts	0x0813, r24
    1dc6:	90 93 14 08 	sts	0x0814, r25
    1dca:	a0 93 15 08 	sts	0x0815, r26
    1dce:	b0 93 16 08 	sts	0x0816, r27
		userAddr = rootAddr+(unsigned long)512 * 32;
    1dd2:	80 50       	subi	r24, 0x00	; 0
    1dd4:	90 4c       	sbci	r25, 0xC0	; 192
    1dd6:	af 4f       	sbci	r26, 0xFF	; 255
    1dd8:	bf 4f       	sbci	r27, 0xFF	; 255
    1dda:	80 93 01 08 	sts	0x0801, r24
    1dde:	90 93 02 08 	sts	0x0802, r25
    1de2:	a0 93 03 08 	sts	0x0803, r26
    1de6:	b0 93 04 08 	sts	0x0804, r27
	}
	if (bit_is_set(PIND, 3)) return;
    1dea:	4b 99       	sbic	0x09, 3	; 9
    1dec:	7f ce       	rjmp	.-770    	; 0x1aec <init+0x6e>

	// find "BTF" boot file
	btfDir = findExt("BTF", (unsigned char *)0, btfbase, 0);
    1dee:	5f e0       	ldi	r21, 0x0F	; 15
    1df0:	e5 2e       	mov	r14, r21
    1df2:	f1 2c       	mov	r15, r1
    1df4:	ec 0e       	add	r14, r28
    1df6:	fd 1e       	adc	r15, r29
    1df8:	84 e0       	ldi	r24, 0x04	; 4
    1dfa:	91 e0       	ldi	r25, 0x01	; 1
    1dfc:	60 e0       	ldi	r22, 0x00	; 0
    1dfe:	70 e0       	ldi	r23, 0x00	; 0
    1e00:	a7 01       	movw	r20, r14
    1e02:	20 e0       	ldi	r18, 0x00	; 0
    1e04:	0e 94 6c 03 	call	0x6d8	; 0x6d8 <findExt>
    1e08:	90 93 f9 07 	sts	0x07F9, r25
    1e0c:	80 93 f8 07 	sts	0x07F8, r24
	btfExists = (btfDir != 512);
    1e10:	dd 24       	eor	r13, r13
    1e12:	d3 94       	inc	r13
    1e14:	f2 e0       	ldi	r31, 0x02	; 2
    1e16:	80 30       	cpi	r24, 0x00	; 0
    1e18:	9f 07       	cpc	r25, r31
    1e1a:	09 f4       	brne	.+2      	; 0x1e1e <init+0x3a0>
    1e1c:	dd 24       	eor	r13, r13

	// choose a NIC file from a NIC file list
	if (choose) {
    1e1e:	cc 20       	and	r12, r12
    1e20:	09 f0       	breq	.+2      	; 0x1e24 <init+0x3a6>
    1e22:	ec c0       	rjmp	.+472    	; 0x1ffc <init+0x57e>
		choosen = chooseANicFile(&writeData[0][0], btfExists, btfbase);
	} else choosen = 0;
    1e24:	cc 24       	eor	r12, r12

	lcd_clear();
    1e26:	0e 94 57 01 	call	0x2ae	; 0x2ae <lcd_clear>
	lcd_puts_p(MSG7);
    1e2a:	82 e2       	ldi	r24, 0x22	; 34
    1e2c:	91 e0       	ldi	r25, 0x01	; 1
    1e2e:	0e 94 7b 01 	call	0x2f6	; 0x2f6 <lcd_puts_p>

	if (btfExists || choosen)
    1e32:	dd 20       	and	r13, r13
    1e34:	09 f0       	breq	.+2      	; 0x1e38 <init+0x3ba>
    1e36:	ea c0       	rjmp	.+468    	; 0x200c <init+0x58e>
    1e38:	cc 20       	and	r12, r12
    1e3a:	09 f0       	breq	.+2      	; 0x1e3e <init+0x3c0>
    1e3c:	d5 c0       	rjmp	.+426    	; 0x1fe8 <init+0x56a>
		memcpy(filebase, btfbase, 8);

	// find "NIC" extension
	nicDir = findExt("NIC", &protect, filebase, btfExists || choosen);
    1e3e:	20 e0       	ldi	r18, 0x00	; 0
    1e40:	30 e0       	ldi	r19, 0x00	; 0
    1e42:	80 e0       	ldi	r24, 0x00	; 0
    1e44:	91 e0       	ldi	r25, 0x01	; 1
    1e46:	6f e5       	ldi	r22, 0x5F	; 95
    1e48:	78 e0       	ldi	r23, 0x08	; 8
    1e4a:	a8 01       	movw	r20, r16
    1e4c:	0e 94 6c 03 	call	0x6d8	; 0x6d8 <findExt>
    1e50:	9c 01       	movw	r18, r24
    1e52:	90 93 0c 08 	sts	0x080C, r25
    1e56:	80 93 0b 08 	sts	0x080B, r24

	if (nicDir == 512) { // create NIC file if not exists
    1e5a:	82 e0       	ldi	r24, 0x02	; 2
    1e5c:	20 30       	cpi	r18, 0x00	; 0
    1e5e:	38 07       	cpc	r19, r24
    1e60:	09 f4       	brne	.+2      	; 0x1e64 <init+0x3e6>
    1e62:	93 c0       	rjmp	.+294    	; 0x1f8a <init+0x50c>
		nicDir = findExt("NIC", &protect, filebase, btfExists);
		if (nicDir == 512) return;
		// convert DSK image to NIC image
		dsk2Nic();
	}
	if (bit_is_set(PIND, 3)) return;
    1e64:	4b 99       	sbic	0x09, 3	; 9
    1e66:	42 ce       	rjmp	.-892    	; 0x1aec <init+0x6e>

	// create "BTF" file if not exist
	if (!btfExists) {
    1e68:	dd 20       	and	r13, r13
    1e6a:	09 f4       	brne	.+2      	; 0x1e6e <init+0x3f0>
    1e6c:	74 c0       	rjmp	.+232    	; 0x1f56 <init+0x4d8>
		btfDir = findExt("BTF", (unsigned char *)0, filebase, 1);
		btfExists = (btfDir != 512);
	}

	// rewrite the file name part of "BTF"
	if (btfExists && (choosen || (memcmp(filebase, btfbase, 8) != 0))) {
    1e6e:	cc 20       	and	r12, r12
    1e70:	41 f4       	brne	.+16     	; 0x1e82 <init+0x404>
    1e72:	c8 01       	movw	r24, r16
    1e74:	b7 01       	movw	r22, r14
    1e76:	48 e0       	ldi	r20, 0x08	; 8
    1e78:	50 e0       	ldi	r21, 0x00	; 0
    1e7a:	0e 94 0c 15 	call	0x2a18	; 0x2a18 <memcmp>
    1e7e:	00 97       	sbiw	r24, 0x00	; 0
    1e80:	09 f1       	breq	.+66     	; 0x1ec4 <init+0x446>
		writeSD(rootAddr + btfDir * 32, (unsigned char *)filebase, 8);
    1e82:	60 91 f8 07 	lds	r22, 0x07F8
    1e86:	70 91 f9 07 	lds	r23, 0x07F9
    1e8a:	66 0f       	add	r22, r22
    1e8c:	77 1f       	adc	r23, r23
    1e8e:	62 95       	swap	r22
    1e90:	72 95       	swap	r23
    1e92:	70 7f       	andi	r23, 0xF0	; 240
    1e94:	76 27       	eor	r23, r22
    1e96:	60 7f       	andi	r22, 0xF0	; 240
    1e98:	76 27       	eor	r23, r22
    1e9a:	80 e0       	ldi	r24, 0x00	; 0
    1e9c:	90 e0       	ldi	r25, 0x00	; 0
    1e9e:	20 91 13 08 	lds	r18, 0x0813
    1ea2:	30 91 14 08 	lds	r19, 0x0814
    1ea6:	40 91 15 08 	lds	r20, 0x0815
    1eaa:	50 91 16 08 	lds	r21, 0x0816
    1eae:	62 0f       	add	r22, r18
    1eb0:	73 1f       	adc	r23, r19
    1eb2:	84 1f       	adc	r24, r20
    1eb4:	95 1f       	adc	r25, r21
    1eb6:	a8 01       	movw	r20, r16
    1eb8:	28 e0       	ldi	r18, 0x08	; 8
    1eba:	30 e0       	ldi	r19, 0x00	; 0
    1ebc:	0e 94 c2 05 	call	0xb84	; 0xb84 <writeSD>
		duplicateFat();
    1ec0:	0e 94 48 06 	call	0xc90	; 0xc90 <duplicateFat>
	}

	// display file name
	lcd_clear();
    1ec4:	0e 94 57 01 	call	0x2ae	; 0x2ae <lcd_clear>
	dispStr(filebase, 0);
    1ec8:	c8 01       	movw	r24, r16
    1eca:	60 e0       	ldi	r22, 0x00	; 0
    1ecc:	0e 94 8d 01 	call	0x31a	; 0x31a <dispStr>

	prevFatNumNic = 0xff;
    1ed0:	8f ef       	ldi	r24, 0xFF	; 255
    1ed2:	80 93 fe 07 	sts	0x07FE, r24
	prevFatNumDsk = 0xff;
    1ed6:	80 93 0a 08 	sts	0x080A, r24
	bitbyte = 0;
    1eda:	10 92 fb 07 	sts	0x07FB, r1
    1ede:	10 92 fa 07 	sts	0x07FA, r1
	readPulse = 0;
    1ee2:	10 92 60 08 	sts	0x0860, r1
	magState = 0;
    1ee6:	10 92 00 08 	sts	0x0800, r1
	prepare = 1;
    1eea:	11 e0       	ldi	r17, 0x01	; 1
    1eec:	10 93 12 08 	sts	0x0812, r17
	ph_track = 0;
    1ef0:	10 92 11 08 	sts	0x0811, r1
	sector = 0;
    1ef4:	10 92 ff 07 	sts	0x07FF, r1
	buffNum = 0;
    1ef8:	10 92 19 01 	sts	0x0119, r1
	formatting = 0;
    1efc:	10 92 1f 01 	sts	0x011F, r1
	writePtr = &(writeData[buffNum][0]);
    1f00:	80 e2       	ldi	r24, 0x20	; 32
    1f02:	91 e0       	ldi	r25, 0x01	; 1
    1f04:	90 93 18 08 	sts	0x0818, r25
    1f08:	80 93 17 08 	sts	0x0817, r24
	cmdFast(16, (unsigned long)512);
    1f0c:	80 e1       	ldi	r24, 0x10	; 16
    1f0e:	40 e0       	ldi	r20, 0x00	; 0
    1f10:	52 e0       	ldi	r21, 0x02	; 2
    1f12:	60 e0       	ldi	r22, 0x00	; 0
    1f14:	70 e0       	ldi	r23, 0x00	; 0
    1f16:	0e 94 fa 02 	call	0x5f4	; 0x5f4 <cmdFast>
	buffClear();
    1f1a:	0e 94 b0 01 	call	0x360	; 0x360 <buffClear>
	inited = 1;
    1f1e:	10 93 61 08 	sts	0x0861, r17
    1f22:	e4 cd       	rjmp	.-1080   	; 0x1aec <init+0x6e>
	cmdFast(16, 5);
	cmd17Fast(54);
	for (i = 0; i < 5; i++)
		str[i] = readByteFast();
	readByteFast(); readByteFast(); // discard CRC
	if ((str[0] == 'F') && (str[1] == 'A') && (str[2] == 'T') &&
    1f24:	8b 81       	ldd	r24, Y+3	; 0x03
    1f26:	81 34       	cpi	r24, 0x41	; 65
    1f28:	09 f0       	breq	.+2      	; 0x1f2c <init+0x4ae>
    1f2a:	37 ce       	rjmp	.-914    	; 0x1b9a <init+0x11c>
    1f2c:	8c 81       	ldd	r24, Y+4	; 0x04
    1f2e:	84 35       	cpi	r24, 0x54	; 84
    1f30:	09 f0       	breq	.+2      	; 0x1f34 <init+0x4b6>
    1f32:	33 ce       	rjmp	.-922    	; 0x1b9a <init+0x11c>
    1f34:	8d 81       	ldd	r24, Y+5	; 0x05
    1f36:	81 33       	cpi	r24, 0x31	; 49
    1f38:	09 f0       	breq	.+2      	; 0x1f3c <init+0x4be>
    1f3a:	2f ce       	rjmp	.-930    	; 0x1b9a <init+0x11c>
		(str[3] == '1') && (str[4] == '6')) {
    1f3c:	8e 81       	ldd	r24, Y+6	; 0x06
    1f3e:	86 33       	cpi	r24, 0x36	; 54
    1f40:	09 f0       	breq	.+2      	; 0x1f44 <init+0x4c6>
    1f42:	2b ce       	rjmp	.-938    	; 0x1b9a <init+0x11c>
		bpbAddr = 0;
    1f44:	10 92 0d 08 	sts	0x080D, r1
    1f48:	10 92 0e 08 	sts	0x080E, r1
    1f4c:	10 92 0f 08 	sts	0x080F, r1
    1f50:	10 92 10 08 	sts	0x0810, r1
    1f54:	92 ce       	rjmp	.-732    	; 0x1c7a <init+0x1fc>
	}
	if (bit_is_set(PIND, 3)) return;

	// create "BTF" file if not exist
	if (!btfExists) {
		createFile(filebase, "BTF", (unsigned short)0);
    1f56:	c8 01       	movw	r24, r16
    1f58:	64 e0       	ldi	r22, 0x04	; 4
    1f5a:	71 e0       	ldi	r23, 0x01	; 1
    1f5c:	40 e0       	ldi	r20, 0x00	; 0
    1f5e:	50 e0       	ldi	r21, 0x00	; 0
    1f60:	0e 94 d5 06 	call	0xdaa	; 0xdaa <createFile>
		btfDir = findExt("BTF", (unsigned char *)0, filebase, 1);
    1f64:	84 e0       	ldi	r24, 0x04	; 4
    1f66:	91 e0       	ldi	r25, 0x01	; 1
    1f68:	60 e0       	ldi	r22, 0x00	; 0
    1f6a:	70 e0       	ldi	r23, 0x00	; 0
    1f6c:	a8 01       	movw	r20, r16
    1f6e:	21 e0       	ldi	r18, 0x01	; 1
    1f70:	0e 94 6c 03 	call	0x6d8	; 0x6d8 <findExt>
    1f74:	9c 01       	movw	r18, r24
    1f76:	90 93 f9 07 	sts	0x07F9, r25
    1f7a:	80 93 f8 07 	sts	0x07F8, r24
		btfExists = (btfDir != 512);
	}

	// rewrite the file name part of "BTF"
	if (btfExists && (choosen || (memcmp(filebase, btfbase, 8) != 0))) {
    1f7e:	82 e0       	ldi	r24, 0x02	; 2
    1f80:	20 30       	cpi	r18, 0x00	; 0
    1f82:	38 07       	cpc	r19, r24
    1f84:	09 f4       	brne	.+2      	; 0x1f88 <init+0x50a>
    1f86:	9e cf       	rjmp	.-196    	; 0x1ec4 <init+0x446>
    1f88:	72 cf       	rjmp	.-284    	; 0x1e6e <init+0x3f0>
	// find "NIC" extension
	nicDir = findExt("NIC", &protect, filebase, btfExists || choosen);

	if (nicDir == 512) { // create NIC file if not exists
		// find "DSK" extension
		dskDir = findExt("DSK", (unsigned char *)0, filebase, btfExists);
    1f8a:	88 e0       	ldi	r24, 0x08	; 8
    1f8c:	91 e0       	ldi	r25, 0x01	; 1
    1f8e:	60 e0       	ldi	r22, 0x00	; 0
    1f90:	70 e0       	ldi	r23, 0x00	; 0
    1f92:	a8 01       	movw	r20, r16
    1f94:	2d 2d       	mov	r18, r13
    1f96:	0e 94 6c 03 	call	0x6d8	; 0x6d8 <findExt>
    1f9a:	90 93 f7 07 	sts	0x07F7, r25
    1f9e:	80 93 f6 07 	sts	0x07F6, r24
		if (dskDir == 512) return;
    1fa2:	e2 e0       	ldi	r30, 0x02	; 2
    1fa4:	80 30       	cpi	r24, 0x00	; 0
    1fa6:	9e 07       	cpc	r25, r30
    1fa8:	09 f4       	brne	.+2      	; 0x1fac <init+0x52e>
    1faa:	a0 cd       	rjmp	.-1216   	; 0x1aec <init+0x6e>
		if (!createFile(filebase, "NIC", (unsigned short)560)) return;
    1fac:	c8 01       	movw	r24, r16
    1fae:	60 e0       	ldi	r22, 0x00	; 0
    1fb0:	71 e0       	ldi	r23, 0x01	; 1
    1fb2:	40 e3       	ldi	r20, 0x30	; 48
    1fb4:	52 e0       	ldi	r21, 0x02	; 2
    1fb6:	0e 94 d5 06 	call	0xdaa	; 0xdaa <createFile>
    1fba:	00 97       	sbiw	r24, 0x00	; 0
    1fbc:	09 f4       	brne	.+2      	; 0x1fc0 <init+0x542>
    1fbe:	96 cd       	rjmp	.-1236   	; 0x1aec <init+0x6e>
		nicDir = findExt("NIC", &protect, filebase, btfExists);
    1fc0:	80 e0       	ldi	r24, 0x00	; 0
    1fc2:	91 e0       	ldi	r25, 0x01	; 1
    1fc4:	6f e5       	ldi	r22, 0x5F	; 95
    1fc6:	78 e0       	ldi	r23, 0x08	; 8
    1fc8:	a8 01       	movw	r20, r16
    1fca:	2d 2d       	mov	r18, r13
    1fcc:	0e 94 6c 03 	call	0x6d8	; 0x6d8 <findExt>
    1fd0:	90 93 0c 08 	sts	0x080C, r25
    1fd4:	80 93 0b 08 	sts	0x080B, r24
		if (nicDir == 512) return;
    1fd8:	f2 e0       	ldi	r31, 0x02	; 2
    1fda:	80 30       	cpi	r24, 0x00	; 0
    1fdc:	9f 07       	cpc	r25, r31
    1fde:	09 f4       	brne	.+2      	; 0x1fe2 <init+0x564>
    1fe0:	85 cd       	rjmp	.-1270   	; 0x1aec <init+0x6e>
		// convert DSK image to NIC image
		dsk2Nic();
    1fe2:	0e 94 55 08 	call	0x10aa	; 0x10aa <dsk2Nic>
    1fe6:	3e cf       	rjmp	.-388    	; 0x1e64 <init+0x3e6>

	lcd_clear();
	lcd_puts_p(MSG7);

	if (btfExists || choosen)
		memcpy(filebase, btfbase, 8);
    1fe8:	d8 01       	movw	r26, r16
    1fea:	f7 01       	movw	r30, r14
    1fec:	88 e0       	ldi	r24, 0x08	; 8
    1fee:	01 90       	ld	r0, Z+
    1ff0:	0d 92       	st	X+, r0
    1ff2:	81 50       	subi	r24, 0x01	; 1
    1ff4:	e1 f7       	brne	.-8      	; 0x1fee <init+0x570>

	// find "NIC" extension
	nicDir = findExt("NIC", &protect, filebase, btfExists || choosen);
    1ff6:	21 e0       	ldi	r18, 0x01	; 1
    1ff8:	30 e0       	ldi	r19, 0x00	; 0
    1ffa:	23 cf       	rjmp	.-442    	; 0x1e42 <init+0x3c4>
	btfDir = findExt("BTF", (unsigned char *)0, btfbase, 0);
	btfExists = (btfDir != 512);

	// choose a NIC file from a NIC file list
	if (choose) {
		choosen = chooseANicFile(&writeData[0][0], btfExists, btfbase);
    1ffc:	80 e2       	ldi	r24, 0x20	; 32
    1ffe:	91 e0       	ldi	r25, 0x01	; 1
    2000:	6d 2d       	mov	r22, r13
    2002:	a7 01       	movw	r20, r14
    2004:	0e 94 34 0c 	call	0x1868	; 0x1868 <chooseANicFile>
    2008:	c8 2e       	mov	r12, r24
    200a:	0d cf       	rjmp	.-486    	; 0x1e26 <init+0x3a8>

	lcd_clear();
	lcd_puts_p(MSG7);

	if (btfExists || choosen)
		memcpy(filebase, btfbase, 8);
    200c:	d8 01       	movw	r26, r16
    200e:	f7 01       	movw	r30, r14
    2010:	88 e0       	ldi	r24, 0x08	; 8
    2012:	01 90       	ld	r0, Z+
    2014:	0d 92       	st	X+, r0
    2016:	81 50       	subi	r24, 0x01	; 1
    2018:	e1 f7       	brne	.-8      	; 0x2012 <init+0x594>
    201a:	ed cf       	rjmp	.-38     	; 0x1ff6 <init+0x578>

0000201c <check_eject>:
void check_eject(void)
{
	unsigned long i;
	static unsigned char f = 1;

	if (bit_is_set(PIND, 3)) {
    201c:	4b 9b       	sbis	0x09, 3	; 9
    201e:	0e c0       	rjmp	.+28     	; 0x203c <check_eject+0x20>
    2020:	80 e0       	ldi	r24, 0x00	; 0
    2022:	90 e0       	ldi	r25, 0x00	; 0
    2024:	a5 e0       	ldi	r26, 0x05	; 5
    2026:	b0 e0       	ldi	r27, 0x00	; 0
		for (i = 0; i != 0x50000; i++)
			if (bit_is_clear(PIND, 3)) return;
    2028:	4b 9b       	sbis	0x09, 3	; 9
    202a:	07 c0       	rjmp	.+14     	; 0x203a <check_eject+0x1e>
    202c:	01 97       	sbiw	r24, 0x01	; 1
    202e:	a1 09       	sbc	r26, r1
    2030:	b1 09       	sbc	r27, r1
{
	unsigned long i;
	static unsigned char f = 1;

	if (bit_is_set(PIND, 3)) {
		for (i = 0; i != 0x50000; i++)
    2032:	09 f4       	brne	.+2      	; 0x2036 <check_eject+0x1a>
    2034:	38 c0       	rjmp	.+112    	; 0x20a6 <check_eject+0x8a>
			if (bit_is_clear(PIND, 3)) return;
    2036:	4b 99       	sbic	0x09, 3	; 9
    2038:	f9 cf       	rjmp	.-14     	; 0x202c <check_eject+0x10>
    203a:	08 95       	ret
		if (f) {
			lcd_clear();
			lcd_puts_p(MSG8);
			f = 0;
		}
	} else if (bit_is_clear(PIND, 6) && bit_is_set(PINC, 0)) { // drive disabled
    203c:	4e 9b       	sbis	0x09, 6	; 9
    203e:	11 c0       	rjmp	.+34     	; 0x2062 <check_eject+0x46>
				TIMSK0 |= (1<<TOIE0);
				EIMSK |= (1<<INT0);
			}
			sei();
		}
	} else if (!inited) { // if not initialized
    2040:	80 91 61 08 	lds	r24, 0x0861
    2044:	88 23       	and	r24, r24
    2046:	c9 f7       	brne	.-14     	; 0x203a <check_eject+0x1e>
    2048:	80 e0       	ldi	r24, 0x00	; 0
    204a:	90 e0       	ldi	r25, 0x00	; 0
    204c:	a5 e0       	ldi	r26, 0x05	; 5
    204e:	b0 e0       	ldi	r27, 0x00	; 0
    2050:	05 c0       	rjmp	.+10     	; 0x205c <check_eject+0x40>
		for (i = 0; i != 0x50000; i++) {
			if (bit_is_set(PIND, 3)) return;
    2052:	01 97       	sbiw	r24, 0x01	; 1
    2054:	a1 09       	sbc	r26, r1
    2056:	b1 09       	sbc	r27, r1
				EIMSK |= (1<<INT0);
			}
			sei();
		}
	} else if (!inited) { // if not initialized
		for (i = 0; i != 0x50000; i++) {
    2058:	09 f4       	brne	.+2      	; 0x205c <check_eject+0x40>
    205a:	3d c0       	rjmp	.+122    	; 0x20d6 <check_eject+0xba>
			if (bit_is_set(PIND, 3)) return;
    205c:	4b 9b       	sbis	0x09, 3	; 9
    205e:	f9 cf       	rjmp	.-14     	; 0x2052 <check_eject+0x36>
    2060:	08 95       	ret
		if (f) {
			lcd_clear();
			lcd_puts_p(MSG8);
			f = 0;
		}
	} else if (bit_is_clear(PIND, 6) && bit_is_set(PINC, 0)) { // drive disabled
    2062:	30 9b       	sbis	0x06, 0	; 6
    2064:	ed cf       	rjmp	.-38     	; 0x2040 <check_eject+0x24>
    2066:	80 e0       	ldi	r24, 0x00	; 0
    2068:	90 e0       	ldi	r25, 0x00	; 0
    206a:	21 e0       	ldi	r18, 0x01	; 1
		unsigned char flg = 1;

		for (i = 0; i != 100; i++)
			if (bit_is_set(PIND,6))
    206c:	4e 99       	sbic	0x09, 6	; 9
				flg = 0;
    206e:	20 e0       	ldi	r18, 0x00	; 0
		}
	} else if (bit_is_clear(PIND, 6) && bit_is_set(PINC, 0)) { // drive disabled
		unsigned char flg = 1;

		for (i = 0; i != 100; i++)
			if (bit_is_set(PIND,6))
    2070:	01 96       	adiw	r24, 0x01	; 1
			f = 0;
		}
	} else if (bit_is_clear(PIND, 6) && bit_is_set(PINC, 0)) { // drive disabled
		unsigned char flg = 1;

		for (i = 0; i != 100; i++)
    2072:	84 36       	cpi	r24, 0x64	; 100
    2074:	91 05       	cpc	r25, r1
    2076:	d1 f7       	brne	.-12     	; 0x206c <check_eject+0x50>
			if (bit_is_set(PIND,6))
				flg = 0;
		if (flg) {
    2078:	22 23       	and	r18, r18
    207a:	f9 f2       	breq	.-66     	; 0x203a <check_eject+0x1e>
			while (bit_is_clear(PIND, 6))
    207c:	4e 99       	sbic	0x09, 6	; 9
    207e:	03 c0       	rjmp	.+6      	; 0x2086 <check_eject+0x6a>
				nop();
    2080:	00 00       	nop

		for (i = 0; i != 100; i++)
			if (bit_is_set(PIND,6))
				flg = 0;
		if (flg) {
			while (bit_is_clear(PIND, 6))
    2082:	4e 9b       	sbis	0x09, 6	; 9
    2084:	fd cf       	rjmp	.-6      	; 0x2080 <check_eject+0x64>
				nop();
			// enter button pushed !
			cli();
    2086:	f8 94       	cli
			init(1);
    2088:	81 e0       	ldi	r24, 0x01	; 1
    208a:	0e 94 3f 0d 	call	0x1a7e	; 0x1a7e <init>
			if (inited) {
    208e:	80 91 61 08 	lds	r24, 0x0861
    2092:	88 23       	and	r24, r24
    2094:	31 f0       	breq	.+12     	; 0x20a2 <check_eject+0x86>
				TIMSK0 |= (1<<TOIE0);
    2096:	80 91 6e 00 	lds	r24, 0x006E
    209a:	81 60       	ori	r24, 0x01	; 1
    209c:	80 93 6e 00 	sts	0x006E, r24
				EIMSK |= (1<<INT0);
    20a0:	e8 9a       	sbi	0x1d, 0	; 29
			}
			sei();
    20a2:	78 94       	sei
    20a4:	08 95       	ret

	if (bit_is_set(PIND, 3)) {
		for (i = 0; i != 0x50000; i++)
			if (bit_is_clear(PIND, 3)) return;
		// SD card removed !
		TIMSK0 &= ~(1<<TOIE0);
    20a6:	80 91 6e 00 	lds	r24, 0x006E
    20aa:	8e 7f       	andi	r24, 0xFE	; 254
    20ac:	80 93 6e 00 	sts	0x006E, r24
		EIMSK &= ~(1<<INT0);
    20b0:	e8 98       	cbi	0x1d, 0	; 29
		inited = 0;
    20b2:	10 92 61 08 	sts	0x0861, r1
		prepare = 0;
    20b6:	10 92 12 08 	sts	0x0812, r1
		if (f) {
    20ba:	80 91 0d 01 	lds	r24, 0x010D
    20be:	88 23       	and	r24, r24
    20c0:	09 f4       	brne	.+2      	; 0x20c4 <check_eject+0xa8>
    20c2:	bb cf       	rjmp	.-138    	; 0x203a <check_eject+0x1e>
			lcd_clear();
    20c4:	0e 94 57 01 	call	0x2ae	; 0x2ae <lcd_clear>
			lcd_puts_p(MSG8);
    20c8:	83 e3       	ldi	r24, 0x33	; 51
    20ca:	91 e0       	ldi	r25, 0x01	; 1
    20cc:	0e 94 7b 01 	call	0x2f6	; 0x2f6 <lcd_puts_p>
			f = 0;
    20d0:	10 92 0d 01 	sts	0x010D, r1
    20d4:	08 95       	ret
	} else if (!inited) { // if not initialized
		for (i = 0; i != 0x50000; i++) {
			if (bit_is_set(PIND, 3)) return;
		}
		// SD card inserted !
		cli();
    20d6:	f8 94       	cli
		init(0);
    20d8:	80 e0       	ldi	r24, 0x00	; 0
    20da:	0e 94 3f 0d 	call	0x1a7e	; 0x1a7e <init>
		if (inited) {
    20de:	80 91 61 08 	lds	r24, 0x0861
    20e2:	88 23       	and	r24, r24
    20e4:	31 f0       	breq	.+12     	; 0x20f2 <check_eject+0xd6>
			TIMSK0 |= (1<<TOIE0);
    20e6:	80 91 6e 00 	lds	r24, 0x006E
    20ea:	81 60       	ori	r24, 0x01	; 1
    20ec:	80 93 6e 00 	sts	0x006E, r24
			EIMSK |= (1<<INT0);
    20f0:	e8 9a       	sbi	0x1d, 0	; 29
		}
		sei();
    20f2:	78 94       	sei
		f = 1;
    20f4:	81 e0       	ldi	r24, 0x01	; 1
    20f6:	80 93 0d 01 	sts	0x010D, r24
    20fa:	08 95       	ret

000020fc <writeBackSub2>:
	}
}

/******************************************************************************/
void writeBackSub2(unsigned char bn, unsigned char sc, unsigned char track)
{
    20fc:	cf 92       	push	r12
    20fe:	df 92       	push	r13
    2100:	ef 92       	push	r14
    2102:	ff 92       	push	r15
    2104:	0f 93       	push	r16
    2106:	1f 93       	push	r17
    2108:	cf 93       	push	r28
    210a:	df 93       	push	r29
    210c:	c8 2e       	mov	r12, r24
    210e:	16 2f       	mov	r17, r22
    2110:	d4 2e       	mov	r13, r20
	unsigned char c,d;
	unsigned short i;
	unsigned short long_sector = (unsigned short)track*16+sc;
	unsigned short long_cluster = (long_sector>>sectorsPerCluster2);
    2112:	30 91 18 01 	lds	r19, 0x0118
	unsigned char fatNum = long_cluster/FAT_NIC_ELEMS;
	unsigned short ft;

	if (bit_is_set(PIND, 3)) return;
    2116:	4b 99       	sbic	0x09, 3	; 9
    2118:	35 c1       	rjmp	.+618    	; 0x2384 <writeBackSub2+0x288>
/******************************************************************************/
void writeBackSub2(unsigned char bn, unsigned char sc, unsigned char track)
{
	unsigned char c,d;
	unsigned short i;
	unsigned short long_sector = (unsigned short)track*16+sc;
    211a:	c4 2f       	mov	r28, r20
    211c:	d0 e0       	ldi	r29, 0x00	; 0
    211e:	c2 95       	swap	r28
    2120:	d2 95       	swap	r29
    2122:	d0 7f       	andi	r29, 0xF0	; 240
    2124:	dc 27       	eor	r29, r28
    2126:	c0 7f       	andi	r28, 0xF0	; 240
    2128:	dc 27       	eor	r29, r28
    212a:	c6 0f       	add	r28, r22
    212c:	d1 1d       	adc	r29, r1
	unsigned short long_cluster = (long_sector>>sectorsPerCluster2);
    212e:	7e 01       	movw	r14, r28
    2130:	03 2e       	mov	r0, r19
    2132:	02 c0       	rjmp	.+4      	; 0x2138 <writeBackSub2+0x3c>
    2134:	f6 94       	lsr	r15
    2136:	e7 94       	ror	r14
    2138:	0a 94       	dec	r0
    213a:	e2 f7       	brpl	.-8      	; 0x2134 <writeBackSub2+0x38>
	unsigned char fatNum = long_cluster/FAT_NIC_ELEMS;
    213c:	c7 01       	movw	r24, r14
    213e:	63 e2       	ldi	r22, 0x23	; 35
    2140:	70 e0       	ldi	r23, 0x00	; 0
    2142:	0e 94 e5 14 	call	0x29ca	; 0x29ca <__udivmodhi4>
    2146:	26 2f       	mov	r18, r22
	unsigned short ft;

	if (bit_is_set(PIND, 3)) return;

	if (fatNum != prevFatNumNic) {
    2148:	80 91 fe 07 	lds	r24, 0x07FE
    214c:	86 17       	cp	r24, r22
    214e:	b9 f0       	breq	.+46     	; 0x217e <writeBackSub2+0x82>
		prevFatNumNic = fatNum;
    2150:	60 93 fe 07 	sts	0x07FE, r22
		prepareFat(nicDir, fatNic, ((560 + sectorsPerCluster - 1) >> sectorsPerCluster2), fatNum, FAT_NIC_ELEMS);
    2154:	40 91 09 08 	lds	r20, 0x0809
    2158:	50 e0       	ldi	r21, 0x00	; 0
    215a:	41 5d       	subi	r20, 0xD1	; 209
    215c:	5d 4f       	sbci	r21, 0xFD	; 253
    215e:	02 c0       	rjmp	.+4      	; 0x2164 <writeBackSub2+0x68>
    2160:	55 95       	asr	r21
    2162:	47 95       	ror	r20
    2164:	3a 95       	dec	r19
    2166:	e2 f7       	brpl	.-8      	; 0x2160 <writeBackSub2+0x64>
    2168:	80 91 0b 08 	lds	r24, 0x080B
    216c:	90 91 0c 08 	lds	r25, 0x080C
    2170:	69 e1       	ldi	r22, 0x19	; 25
    2172:	78 e0       	ldi	r23, 0x08	; 8
    2174:	03 e2       	ldi	r16, 0x23	; 35
    2176:	0e 94 01 05 	call	0xa02	; 0xa02 <prepareFat>
    217a:	30 91 18 01 	lds	r19, 0x0118
	}
	ft = fatNic[long_cluster % FAT_NIC_ELEMS];
    217e:	c7 01       	movw	r24, r14
    2180:	63 e2       	ldi	r22, 0x23	; 35
    2182:	70 e0       	ldi	r23, 0x00	; 0
    2184:	0e 94 e5 14 	call	0x29ca	; 0x29ca <__udivmodhi4>
    2188:	88 0f       	add	r24, r24
    218a:	99 1f       	adc	r25, r25
    218c:	87 5e       	subi	r24, 0xE7	; 231
    218e:	97 4f       	sbci	r25, 0xF7	; 247
    2190:	fc 01       	movw	r30, r24
    2192:	40 81       	ld	r20, Z
    2194:	51 81       	ldd	r21, Z+1	; 0x01
	
	PORTD = NCLKNDI_CS;
    2196:	82 ec       	ldi	r24, 0xC2	; 194
    2198:	8b b9       	out	0x0b, r24	; 11
	PORTD = NCLKNDINCS;
    219a:	80 ec       	ldi	r24, 0xC0	; 192
    219c:	8b b9       	out	0x0b, r24	; 11

	cmdFast(24, (unsigned long)userAddr + (((unsigned long)(ft - 2) << sectorsPerCluster2) + (unsigned long)(long_sector & (sectorsPerCluster - 1))) * 512);
    219e:	42 50       	subi	r20, 0x02	; 2
    21a0:	50 40       	sbci	r21, 0x00	; 0
    21a2:	60 e0       	ldi	r22, 0x00	; 0
    21a4:	70 e0       	ldi	r23, 0x00	; 0
    21a6:	04 c0       	rjmp	.+8      	; 0x21b0 <writeBackSub2+0xb4>
    21a8:	44 0f       	add	r20, r20
    21aa:	55 1f       	adc	r21, r21
    21ac:	66 1f       	adc	r22, r22
    21ae:	77 1f       	adc	r23, r23
    21b0:	3a 95       	dec	r19
    21b2:	d2 f7       	brpl	.-12     	; 0x21a8 <writeBackSub2+0xac>
    21b4:	80 91 09 08 	lds	r24, 0x0809
    21b8:	90 e0       	ldi	r25, 0x00	; 0
    21ba:	01 97       	sbiw	r24, 0x01	; 1
    21bc:	8c 23       	and	r24, r28
    21be:	9d 23       	and	r25, r29
    21c0:	a0 e0       	ldi	r26, 0x00	; 0
    21c2:	b0 e0       	ldi	r27, 0x00	; 0
    21c4:	48 0f       	add	r20, r24
    21c6:	59 1f       	adc	r21, r25
    21c8:	6a 1f       	adc	r22, r26
    21ca:	7b 1f       	adc	r23, r27
    21cc:	e9 e0       	ldi	r30, 0x09	; 9
    21ce:	44 0f       	add	r20, r20
    21d0:	55 1f       	adc	r21, r21
    21d2:	66 1f       	adc	r22, r22
    21d4:	77 1f       	adc	r23, r23
    21d6:	ea 95       	dec	r30
    21d8:	d1 f7       	brne	.-12     	; 0x21ce <writeBackSub2+0xd2>
    21da:	80 91 01 08 	lds	r24, 0x0801
    21de:	90 91 02 08 	lds	r25, 0x0802
    21e2:	a0 91 03 08 	lds	r26, 0x0803
    21e6:	b0 91 04 08 	lds	r27, 0x0804
    21ea:	48 0f       	add	r20, r24
    21ec:	59 1f       	adc	r21, r25
    21ee:	6a 1f       	adc	r22, r26
    21f0:	7b 1f       	adc	r23, r27
    21f2:	88 e1       	ldi	r24, 0x18	; 24
    21f4:	0e 94 fa 02 	call	0x5f4	; 0x5f4 <cmdFast>

	writeByteFast(0xff);
    21f8:	8f ef       	ldi	r24, 0xFF	; 255
    21fa:	0e 94 42 02 	call	0x484	; 0x484 <writeByteFast>
	writeByteFast(0xfe);
    21fe:	8e ef       	ldi	r24, 0xFE	; 254
    2200:	0e 94 42 02 	call	0x484	; 0x484 <writeByteFast>
    2204:	80 eb       	ldi	r24, 0xB0	; 176
    2206:	90 e0       	ldi	r25, 0x00	; 0
	// 22 ffs
	for (i = 0; i < 22 * 8; i++) {
		PORTD = NCLK_DINCS;
    2208:	30 ed       	ldi	r19, 0xD0	; 208
		PORTD = _CLK_DINCS;
    220a:	20 ef       	ldi	r18, 0xF0	; 240

	writeByteFast(0xff);
	writeByteFast(0xfe);
	// 22 ffs
	for (i = 0; i < 22 * 8; i++) {
		PORTD = NCLK_DINCS;
    220c:	3b b9       	out	0x0b, r19	; 11
		PORTD = _CLK_DINCS;
    220e:	2b b9       	out	0x0b, r18	; 11
    2210:	01 97       	sbiw	r24, 0x01	; 1
	cmdFast(24, (unsigned long)userAddr + (((unsigned long)(ft - 2) << sectorsPerCluster2) + (unsigned long)(long_sector & (sectorsPerCluster - 1))) * 512);

	writeByteFast(0xff);
	writeByteFast(0xfe);
	// 22 ffs
	for (i = 0; i < 22 * 8; i++) {
    2212:	e1 f7       	brne	.-8      	; 0x220c <writeBackSub2+0x110>
		PORTD = NCLK_DINCS;
		PORTD = _CLK_DINCS;
	}
	PORTD = NCLKNDINCS;
    2214:	80 ec       	ldi	r24, 0xC0	; 192
    2216:	8b b9       	out	0x0b, r24	; 11

	// sync header
	writeByteFast(0x03);
    2218:	83 e0       	ldi	r24, 0x03	; 3
    221a:	0e 94 42 02 	call	0x484	; 0x484 <writeByteFast>
	writeByteFast(0xfc);
    221e:	8c ef       	ldi	r24, 0xFC	; 252
    2220:	0e 94 42 02 	call	0x484	; 0x484 <writeByteFast>
	writeByteFast(0xff);
    2224:	8f ef       	ldi	r24, 0xFF	; 255
    2226:	0e 94 42 02 	call	0x484	; 0x484 <writeByteFast>
	writeByteFast(0x3f);
    222a:	8f e3       	ldi	r24, 0x3F	; 63
    222c:	0e 94 42 02 	call	0x484	; 0x484 <writeByteFast>
	writeByteFast(0xcf);
    2230:	8f ec       	ldi	r24, 0xCF	; 207
    2232:	0e 94 42 02 	call	0x484	; 0x484 <writeByteFast>
	writeByteFast(0xf3);
    2236:	83 ef       	ldi	r24, 0xF3	; 243
    2238:	0e 94 42 02 	call	0x484	; 0x484 <writeByteFast>
	writeByteFast(0xfc);
    223c:	8c ef       	ldi	r24, 0xFC	; 252
    223e:	0e 94 42 02 	call	0x484	; 0x484 <writeByteFast>
	writeByteFast(0xff);
    2242:	8f ef       	ldi	r24, 0xFF	; 255
    2244:	0e 94 42 02 	call	0x484	; 0x484 <writeByteFast>
	writeByteFast(0x3f);
    2248:	8f e3       	ldi	r24, 0x3F	; 63
    224a:	0e 94 42 02 	call	0x484	; 0x484 <writeByteFast>
	writeByteFast(0xcf);
    224e:	8f ec       	ldi	r24, 0xCF	; 207
    2250:	0e 94 42 02 	call	0x484	; 0x484 <writeByteFast>
	writeByteFast(0xf3);
    2254:	83 ef       	ldi	r24, 0xF3	; 243
    2256:	0e 94 42 02 	call	0x484	; 0x484 <writeByteFast>
	writeByteFast(0xfc);
    225a:	8c ef       	ldi	r24, 0xFC	; 252
    225c:	0e 94 42 02 	call	0x484	; 0x484 <writeByteFast>

	// address header
	writeByteFast(0xd5);
    2260:	85 ed       	ldi	r24, 0xD5	; 213
    2262:	0e 94 42 02 	call	0x484	; 0x484 <writeByteFast>
	writeByteFast(0xAA);
    2266:	8a ea       	ldi	r24, 0xAA	; 170
    2268:	0e 94 42 02 	call	0x484	; 0x484 <writeByteFast>
	writeByteFast(0x96);
    226c:	86 e9       	ldi	r24, 0x96	; 150
    226e:	0e 94 42 02 	call	0x484	; 0x484 <writeByteFast>
	writeByteFast((volume >> 1) | 0xaa);
    2272:	8f ef       	ldi	r24, 0xFF	; 255
    2274:	0e 94 42 02 	call	0x484	; 0x484 <writeByteFast>
	writeByteFast(volume | 0xaa);
    2278:	8e ef       	ldi	r24, 0xFE	; 254
    227a:	0e 94 42 02 	call	0x484	; 0x484 <writeByteFast>
	writeByteFast((track >> 1) | 0xaa);
    227e:	8d 2d       	mov	r24, r13
    2280:	86 95       	lsr	r24
    2282:	8a 6a       	ori	r24, 0xAA	; 170
    2284:	0e 94 42 02 	call	0x484	; 0x484 <writeByteFast>
	writeByteFast(track | 0xaa);
    2288:	8d 2d       	mov	r24, r13
    228a:	8a 6a       	ori	r24, 0xAA	; 170
    228c:	0e 94 42 02 	call	0x484	; 0x484 <writeByteFast>
	writeByteFast((sc >> 1) | 0xaa);
    2290:	81 2f       	mov	r24, r17
    2292:	86 95       	lsr	r24
    2294:	8a 6a       	ori	r24, 0xAA	; 170
    2296:	0e 94 42 02 	call	0x484	; 0x484 <writeByteFast>
	writeByteFast(sc | 0xaa);
    229a:	81 2f       	mov	r24, r17
    229c:	8a 6a       	ori	r24, 0xAA	; 170
    229e:	0e 94 42 02 	call	0x484	; 0x484 <writeByteFast>
	c = (volume ^ track ^ sc);
    22a2:	0e ef       	ldi	r16, 0xFE	; 254
    22a4:	01 27       	eor	r16, r17
    22a6:	0d 25       	eor	r16, r13
	writeByteFast((c >> 1) | 0xaa);
    22a8:	80 2f       	mov	r24, r16
    22aa:	86 95       	lsr	r24
    22ac:	8a 6a       	ori	r24, 0xAA	; 170
    22ae:	0e 94 42 02 	call	0x484	; 0x484 <writeByteFast>
	writeByteFast(c | 0xaa);
    22b2:	80 2f       	mov	r24, r16
    22b4:	8a 6a       	ori	r24, 0xAA	; 170
    22b6:	0e 94 42 02 	call	0x484	; 0x484 <writeByteFast>
	writeByteFast(0xde);
    22ba:	8e ed       	ldi	r24, 0xDE	; 222
    22bc:	0e 94 42 02 	call	0x484	; 0x484 <writeByteFast>
	writeByteFast(0xAA);
    22c0:	8a ea       	ldi	r24, 0xAA	; 170
    22c2:	0e 94 42 02 	call	0x484	; 0x484 <writeByteFast>
	writeByteFast(0xeb);
    22c6:	8b ee       	ldi	r24, 0xEB	; 235
    22c8:	0e 94 42 02 	call	0x484	; 0x484 <writeByteFast>

	// sync header
	writeByteFast(0xff);	
    22cc:	8f ef       	ldi	r24, 0xFF	; 255
    22ce:	0e 94 42 02 	call	0x484	; 0x484 <writeByteFast>
	writeByteFast(0xff);
    22d2:	8f ef       	ldi	r24, 0xFF	; 255
    22d4:	0e 94 42 02 	call	0x484	; 0x484 <writeByteFast>
	writeByteFast(0xff);
    22d8:	8f ef       	ldi	r24, 0xFF	; 255
    22da:	0e 94 42 02 	call	0x484	; 0x484 <writeByteFast>
	writeByteFast(0xff);
    22de:	8f ef       	ldi	r24, 0xFF	; 255
    22e0:	0e 94 42 02 	call	0x484	; 0x484 <writeByteFast>
	writeByteFast(0xff);
    22e4:	8f ef       	ldi	r24, 0xFF	; 255
    22e6:	0e 94 42 02 	call	0x484	; 0x484 <writeByteFast>
		}
	}
}

/******************************************************************************/
void writeBackSub2(unsigned char bn, unsigned char sc, unsigned char track)
    22ea:	dd 24       	eor	r13, r13
    22ec:	8e e5       	ldi	r24, 0x5E	; 94
    22ee:	91 e0       	ldi	r25, 0x01	; 1
    22f0:	c8 9e       	mul	r12, r24
    22f2:	f0 01       	movw	r30, r0
    22f4:	c9 9e       	mul	r12, r25
    22f6:	f0 0d       	add	r31, r0
    22f8:	d8 9e       	mul	r13, r24
    22fa:	f0 0d       	add	r31, r0
    22fc:	11 24       	eor	r1, r1
    22fe:	e0 5e       	subi	r30, 0xE0	; 224
    2300:	fe 4f       	sbci	r31, 0xFE	; 254
	writeByteFast(0xff);
	writeByteFast(0xff);
	writeByteFast(0xff);

	// data
	for (i = 0; i < 349; i++) {
    2302:	20 e0       	ldi	r18, 0x00	; 0
    2304:	30 e0       	ldi	r19, 0x00	; 0
		for (d = 0b10000000; d; d >>= 1) {
			if (c & d) {
				PORTD = NCLK_DINCS;
				PORTD = _CLK_DINCS;
			} else {
				PORTD = NCLKNDINCS;
    2306:	10 ec       	ldi	r17, 0xC0	; 192
				PORTD = _CLKNDINCS;
    2308:	b0 ee       	ldi	r27, 0xE0	; 224
	// data
	for (i = 0; i < 349; i++) {
		c = writeData[bn][i];
		for (d = 0b10000000; d; d >>= 1) {
			if (c & d) {
				PORTD = NCLK_DINCS;
    230a:	a0 ed       	ldi	r26, 0xD0	; 208
				PORTD = _CLK_DINCS;
    230c:	70 ef       	ldi	r23, 0xF0	; 240
	writeByteFast(0xff);
	writeByteFast(0xff);

	// data
	for (i = 0; i < 349; i++) {
		c = writeData[bn][i];
    230e:	61 91       	ld	r22, Z+
    2310:	88 e0       	ldi	r24, 0x08	; 8
    2312:	90 e0       	ldi	r25, 0x00	; 0
		for (d = 0b10000000; d; d >>= 1) {
    2314:	40 e8       	ldi	r20, 0x80	; 128
    2316:	05 c0       	rjmp	.+10     	; 0x2322 <writeBackSub2+0x226>
			if (c & d) {
				PORTD = NCLK_DINCS;
    2318:	ab b9       	out	0x0b, r26	; 11
				PORTD = _CLK_DINCS;
    231a:	7b b9       	out	0x0b, r23	; 11
	writeByteFast(0xff);

	// data
	for (i = 0; i < 349; i++) {
		c = writeData[bn][i];
		for (d = 0b10000000; d; d >>= 1) {
    231c:	46 95       	lsr	r20
    231e:	01 97       	sbiw	r24, 0x01	; 1
    2320:	41 f0       	breq	.+16     	; 0x2332 <writeBackSub2+0x236>
			if (c & d) {
    2322:	54 2f       	mov	r21, r20
    2324:	56 23       	and	r21, r22
    2326:	c1 f7       	brne	.-16     	; 0x2318 <writeBackSub2+0x21c>
				PORTD = NCLK_DINCS;
				PORTD = _CLK_DINCS;
			} else {
				PORTD = NCLKNDINCS;
    2328:	1b b9       	out	0x0b, r17	; 11
				PORTD = _CLKNDINCS;
    232a:	bb b9       	out	0x0b, r27	; 11
	writeByteFast(0xff);

	// data
	for (i = 0; i < 349; i++) {
		c = writeData[bn][i];
		for (d = 0b10000000; d; d >>= 1) {
    232c:	46 95       	lsr	r20
    232e:	01 97       	sbiw	r24, 0x01	; 1
    2330:	c1 f7       	brne	.-16     	; 0x2322 <writeBackSub2+0x226>
	writeByteFast(0xff);
	writeByteFast(0xff);
	writeByteFast(0xff);

	// data
	for (i = 0; i < 349; i++) {
    2332:	2f 5f       	subi	r18, 0xFF	; 255
    2334:	3f 4f       	sbci	r19, 0xFF	; 255
    2336:	81 e0       	ldi	r24, 0x01	; 1
    2338:	2d 35       	cpi	r18, 0x5D	; 93
    233a:	38 07       	cpc	r19, r24
    233c:	41 f7       	brne	.-48     	; 0x230e <writeBackSub2+0x212>
				PORTD = NCLKNDINCS;
				PORTD = _CLKNDINCS;
			}
		}
	}
	PORTD = NCLKNDINCS;
    233e:	80 ec       	ldi	r24, 0xC0	; 192
    2340:	8b b9       	out	0x0b, r24	; 11
    2342:	80 e7       	ldi	r24, 0x70	; 112
    2344:	90 e0       	ldi	r25, 0x00	; 0
	for (i = 0; i < 14 * 8; i++) {
		PORTD = NCLK_DINCS;
    2346:	30 ed       	ldi	r19, 0xD0	; 208
		PORTD = _CLK_DINCS;
    2348:	20 ef       	ldi	r18, 0xF0	; 240
			}
		}
	}
	PORTD = NCLKNDINCS;
	for (i = 0; i < 14 * 8; i++) {
		PORTD = NCLK_DINCS;
    234a:	3b b9       	out	0x0b, r19	; 11
		PORTD = _CLK_DINCS;
    234c:	2b b9       	out	0x0b, r18	; 11
    234e:	01 97       	sbiw	r24, 0x01	; 1
				PORTD = _CLKNDINCS;
			}
		}
	}
	PORTD = NCLKNDINCS;
	for (i = 0; i < 14 * 8; i++) {
    2350:	e1 f7       	brne	.-8      	; 0x234a <writeBackSub2+0x24e>
		PORTD = NCLK_DINCS;
		PORTD = _CLK_DINCS;
	}
	PORTD = NCLKNDINCS;
    2352:	80 ec       	ldi	r24, 0xC0	; 192
    2354:	8b b9       	out	0x0b, r24	; 11
    2356:	80 e0       	ldi	r24, 0x00	; 0
    2358:	93 e0       	ldi	r25, 0x03	; 3
	for (i = 0; i < 96 * 8; i++) {
		PORTD = NCLKNDINCS;
    235a:	30 ec       	ldi	r19, 0xC0	; 192
		PORTD = _CLKNDINCS;
    235c:	20 ee       	ldi	r18, 0xE0	; 224
		PORTD = NCLK_DINCS;
		PORTD = _CLK_DINCS;
	}
	PORTD = NCLKNDINCS;
	for (i = 0; i < 96 * 8; i++) {
		PORTD = NCLKNDINCS;
    235e:	10 ec       	ldi	r17, 0xC0	; 192
    2360:	3b b9       	out	0x0b, r19	; 11
		PORTD = _CLKNDINCS;
    2362:	2b b9       	out	0x0b, r18	; 11
    2364:	01 97       	sbiw	r24, 0x01	; 1
	for (i = 0; i < 14 * 8; i++) {
		PORTD = NCLK_DINCS;
		PORTD = _CLK_DINCS;
	}
	PORTD = NCLKNDINCS;
	for (i = 0; i < 96 * 8; i++) {
    2366:	d9 f7       	brne	.-10     	; 0x235e <writeBackSub2+0x262>
		PORTD = NCLKNDINCS;
		PORTD = _CLKNDINCS;
	}
	PORTD = NCLKNDINCS;
    2368:	1b b9       	out	0x0b, r17	; 11
	writeByteFast(0xff);
    236a:	8f ef       	ldi	r24, 0xFF	; 255
    236c:	0e 94 42 02 	call	0x484	; 0x484 <writeByteFast>
	writeByteFast(0xff);
    2370:	8f ef       	ldi	r24, 0xFF	; 255
    2372:	0e 94 42 02 	call	0x484	; 0x484 <writeByteFast>
	readByteFast();
    2376:	0e 94 90 02 	call	0x520	; 0x520 <readByteFast>
	waitFinish();
    237a:	0e 94 b0 02 	call	0x560	; 0x560 <waitFinish>
	
	PORTD = NCLKNDI_CS;
    237e:	82 ec       	ldi	r24, 0xC2	; 194
    2380:	8b b9       	out	0x0b, r24	; 11
	PORTD = NCLKNDINCS;
    2382:	1b b9       	out	0x0b, r17	; 11
}
    2384:	df 91       	pop	r29
    2386:	cf 91       	pop	r28
    2388:	1f 91       	pop	r17
    238a:	0f 91       	pop	r16
    238c:	ff 90       	pop	r15
    238e:	ef 90       	pop	r14
    2390:	df 90       	pop	r13
    2392:	cf 90       	pop	r12
    2394:	08 95       	ret

00002396 <writeBackSub>:

/******************************************************************************/
void writeBackSub(void)
{
    2396:	af 92       	push	r10
    2398:	bf 92       	push	r11
    239a:	df 92       	push	r13
    239c:	ef 92       	push	r14
    239e:	ff 92       	push	r15
    23a0:	0f 93       	push	r16
    23a2:	1f 93       	push	r17
    23a4:	df 93       	push	r29
    23a6:	cf 93       	push	r28
    23a8:	0f 92       	push	r0
    23aa:	cd b7       	in	r28, 0x3d	; 61
    23ac:	de b7       	in	r29, 0x3e	; 62
	unsigned char i, j;

	if (bit_is_set(PIND, 3)) return;
    23ae:	4b 99       	sbic	0x09, 3	; 9
    23b0:	0c c0       	rjmp	.+24     	; 0x23ca <writeBackSub+0x34>
    23b2:	13 e1       	ldi	r17, 0x13	; 19
    23b4:	a1 2e       	mov	r10, r17
    23b6:	11 e0       	ldi	r17, 0x01	; 1
    23b8:	b1 2e       	mov	r11, r17
	PORTD = NCLKNDI_CS;
	PORTD = NCLKNDINCS;
}

/******************************************************************************/
void writeBackSub(void)
    23ba:	f5 01       	movw	r30, r10
{
	unsigned char i, j;

	if (bit_is_set(PIND, 3)) return;
	for (j = 0; j < BUF_NUM; j++) {
		if (sectors[j] != 0xff) {
    23bc:	81 91       	ld	r24, Z+
    23be:	8f 3f       	cpi	r24, 0xFF	; 255
    23c0:	79 f4       	brne	.+30     	; 0x23e0 <writeBackSub+0x4a>
void writeBackSub(void)
{
	unsigned char i, j;

	if (bit_is_set(PIND, 3)) return;
	for (j = 0; j < BUF_NUM; j++) {
    23c2:	81 e0       	ldi	r24, 0x01	; 1
    23c4:	e8 31       	cpi	r30, 0x18	; 24
    23c6:	f8 07       	cpc	r31, r24
    23c8:	c9 f7       	brne	.-14     	; 0x23bc <writeBackSub+0x26>
			buffNum = 0;
			writePtr = &(writeData[buffNum][0]);
			break;
		}
	}
}
    23ca:	0f 90       	pop	r0
    23cc:	cf 91       	pop	r28
    23ce:	df 91       	pop	r29
    23d0:	1f 91       	pop	r17
    23d2:	0f 91       	pop	r16
    23d4:	ff 90       	pop	r15
    23d6:	ef 90       	pop	r14
    23d8:	df 90       	pop	r13
    23da:	bf 90       	pop	r11
    23dc:	af 90       	pop	r10
    23de:	08 95       	ret
{
	unsigned char i, j;

	if (bit_is_set(PIND, 3)) return;
	for (j = 0; j < BUF_NUM; j++) {
		if (sectors[j] != 0xff) {
    23e0:	ba e1       	ldi	r27, 0x1A	; 26
    23e2:	eb 2e       	mov	r14, r27
    23e4:	b1 e0       	ldi	r27, 0x01	; 1
    23e6:	fb 2e       	mov	r15, r27
    23e8:	02 e2       	ldi	r16, 0x22	; 34
    23ea:	11 e0       	ldi	r17, 0x01	; 1
    23ec:	90 e0       	ldi	r25, 0x00	; 0
			for (i = 0; i < BUF_NUM; i++) {
				if (sectors[i] != 0xff)
					writeBackSub2(i, sectors[i], tracks[i]);
				sectors[i] = 0xff;
    23ee:	dd 24       	eor	r13, r13
    23f0:	da 94       	dec	r13

	if (bit_is_set(PIND, 3)) return;
	for (j = 0; j < BUF_NUM; j++) {
		if (sectors[j] != 0xff) {
			for (i = 0; i < BUF_NUM; i++) {
				if (sectors[i] != 0xff)
    23f2:	f5 01       	movw	r30, r10
    23f4:	60 81       	ld	r22, Z
    23f6:	6f 3f       	cpi	r22, 0xFF	; 255
    23f8:	39 f0       	breq	.+14     	; 0x2408 <writeBackSub+0x72>
					writeBackSub2(i, sectors[i], tracks[i]);
    23fa:	89 2f       	mov	r24, r25
    23fc:	f7 01       	movw	r30, r14
    23fe:	40 81       	ld	r20, Z
    2400:	99 83       	std	Y+1, r25	; 0x01
    2402:	0e 94 7e 10 	call	0x20fc	; 0x20fc <writeBackSub2>
    2406:	99 81       	ldd	r25, Y+1	; 0x01
				sectors[i] = 0xff;
    2408:	f5 01       	movw	r30, r10
    240a:	d1 92       	st	Z+, r13
    240c:	5f 01       	movw	r10, r30
				tracks[i] = 0xff;
    240e:	f7 01       	movw	r30, r14
    2410:	d1 92       	st	Z+, r13
    2412:	7f 01       	movw	r14, r30
				writeData[i][2]=0;
    2414:	f8 01       	movw	r30, r16
    2416:	10 82       	st	Z, r1
	unsigned char i, j;

	if (bit_is_set(PIND, 3)) return;
	for (j = 0; j < BUF_NUM; j++) {
		if (sectors[j] != 0xff) {
			for (i = 0; i < BUF_NUM; i++) {
    2418:	9f 5f       	subi	r25, 0xFF	; 255
    241a:	02 5a       	subi	r16, 0xA2	; 162
    241c:	1e 4f       	sbci	r17, 0xFE	; 254
    241e:	95 30       	cpi	r25, 0x05	; 5
    2420:	41 f7       	brne	.-48     	; 0x23f2 <writeBackSub+0x5c>
					writeBackSub2(i, sectors[i], tracks[i]);
				sectors[i] = 0xff;
				tracks[i] = 0xff;
				writeData[i][2]=0;
			}
			buffNum = 0;
    2422:	10 92 19 01 	sts	0x0119, r1
			writePtr = &(writeData[buffNum][0]);
    2426:	80 e2       	ldi	r24, 0x20	; 32
    2428:	91 e0       	ldi	r25, 0x01	; 1
    242a:	90 93 18 08 	sts	0x0818, r25
    242e:	80 93 17 08 	sts	0x0817, r24
			break;
    2432:	cb cf       	rjmp	.-106    	; 0x23ca <writeBackSub+0x34>

00002434 <main>:
		f = 1;
	}
}

int main(void)
{
    2434:	9f 92       	push	r9
    2436:	af 92       	push	r10
    2438:	bf 92       	push	r11
    243a:	cf 92       	push	r12
    243c:	df 92       	push	r13
    243e:	ef 92       	push	r14
    2440:	ff 92       	push	r15
    2442:	0f 93       	push	r16
    2444:	1f 93       	push	r17
    2446:	cf 93       	push	r28
    2448:	df 93       	push	r29
	static unsigned char oldStp = 0, stp; // stepper motor input

	/* 1 = OUT, 0 = IN */
	DDRB = 0b00010000;	/* PB4 = LED */
    244a:	80 e1       	ldi	r24, 0x10	; 16
    244c:	84 b9       	out	0x04, r24	; 4
	DDRC = 0b00111010;  /* PC1 = READ PULSE/LCD D4, PC3 = WRITE PROTECT/LCD D5, PC4 = LCD RS, PC5 = LCD E */
    244e:	8a e3       	ldi	r24, 0x3A	; 58
    2450:	87 b9       	out	0x07, r24	; 7
	DDRD = 0b00110010;  /* PD1 = SD CS, PD4 = SD DI/LCD D6, PD5 = SD SCK/LCD D7 */
    2452:	82 e3       	ldi	r24, 0x32	; 50
    2454:	8a b9       	out	0x0a, r24	; 10

	PORTB = 0b00110000; /* PB4=1 - Led Aceso */
    2456:	80 e3       	ldi	r24, 0x30	; 48
    2458:	85 b9       	out	0x05, r24	; 5
	PORTC = 0b00000010; /* PC4=0 - LCD RS, PC5=0 - LCD Desabilitado */
    245a:	82 e0       	ldi	r24, 0x02	; 2
    245c:	88 b9       	out	0x08, r24	; 8
	PORTD = 0b11000010; /* PD1=0 - SD Desabilitado */
    245e:	92 ec       	ldi	r25, 0xC2	; 194
    2460:	9b b9       	out	0x0b, r25	; 11

	// timer interrupt
	OCR0A = 0;
    2462:	17 bc       	out	0x27, r1	; 39
	TCCR0A = 0;
    2464:	14 bc       	out	0x24, r1	; 36
	TCCR0B = 1;
    2466:	91 e0       	ldi	r25, 0x01	; 1
    2468:	95 bd       	out	0x25, r25	; 37

	// int0 interrupt
	MCUCR = 0b00000010;
    246a:	85 bf       	out	0x35, r24	; 53
	EICRA = 0b00000010;
    246c:	80 93 69 00 	sts	0x0069, r24

	sector = 0;
    2470:	10 92 ff 07 	sts	0x07FF, r1
	inited = 0;
    2474:	10 92 61 08 	sts	0x0861, r1
	readPulse = 0;
    2478:	10 92 60 08 	sts	0x0860, r1
	protect = 0;
    247c:	10 92 5f 08 	sts	0x085F, r1
	bitbyte = 0;
    2480:	10 92 fb 07 	sts	0x07FB, r1
    2484:	10 92 fa 07 	sts	0x07FA, r1
	magState = 0;
    2488:	10 92 00 08 	sts	0x0800, r1
	prepare = 1;
    248c:	90 93 12 08 	sts	0x0812, r25
	ph_track = 0;
    2490:	10 92 11 08 	sts	0x0811, r1
	buffNum = 0;
    2494:	10 92 19 01 	sts	0x0119, r1
	formatting = 0;
    2498:	10 92 1f 01 	sts	0x011F, r1
	writePtr = &(writeData[buffNum][0]);
    249c:	80 e2       	ldi	r24, 0x20	; 32
    249e:	91 e0       	ldi	r25, 0x01	; 1
    24a0:	90 93 18 08 	sts	0x0818, r25
    24a4:	80 93 17 08 	sts	0x0817, r24

	lcd_init();
    24a8:	0e 94 16 01 	call	0x22c	; 0x22c <lcd_init>
	lcd_clear();
    24ac:	0e 94 57 01 	call	0x2ae	; 0x2ae <lcd_clear>
	lcd_puts_p(MSG1);
    24b0:	8c ec       	ldi	r24, 0xCC	; 204
    24b2:	90 e0       	ldi	r25, 0x00	; 0
    24b4:	0e 94 7b 01 	call	0x2f6	; 0x2f6 <lcd_puts_p>
	lcd_gotoxy(0, 1);
    24b8:	80 e0       	ldi	r24, 0x00	; 0
    24ba:	61 e0       	ldi	r22, 0x01	; 1
    24bc:	0e 94 5e 01 	call	0x2bc	; 0x2bc <lcd_gotoxy>
	lcd_puts_p(MSG2);
    24c0:	8d ed       	ldi	r24, 0xDD	; 221
    24c2:	90 e0       	ldi	r25, 0x00	; 0
    24c4:	0e 94 7b 01 	call	0x2f6	; 0x2f6 <lcd_puts_p>
    24c8:	8f e3       	ldi	r24, 0x3F	; 63
    24ca:	9b e4       	ldi	r25, 0x4B	; 75
    24cc:	ac e4       	ldi	r26, 0x4C	; 76
    24ce:	81 50       	subi	r24, 0x01	; 1
    24d0:	90 40       	sbci	r25, 0x00	; 0
    24d2:	a0 40       	sbci	r26, 0x00	; 0
    24d4:	e1 f7       	brne	.-8      	; 0x24ce <main+0x9a>
    24d6:	00 c0       	rjmp	.+0      	; 0x24d8 <main+0xa4>
    24d8:	00 00       	nop
	_delay_ms(1000);

	while (1) {
		check_eject();
		if (bit_is_set(PINC, 0)) {											// disable drive
			PORTB = 0b00100000;												// red LED off
    24da:	e0 e2       	ldi	r30, 0x20	; 32
    24dc:	fe 2e       	mov	r15, r30
		} else {															// enable drive
			PORTB = 0b00110000;
    24de:	70 e3       	ldi	r23, 0x30	; 48
    24e0:	e7 2e       	mov	r14, r23
				sector = ((sector + 1) & 0xf);
				{
					unsigned char trk = (ph_track >> 2);
					unsigned short long_sector = (unsigned short)trk * 16 + sector;
					unsigned short long_cluster = (long_sector >> sectorsPerCluster2);
					unsigned char fatNum = long_cluster / FAT_NIC_ELEMS;
    24e2:	63 e2       	ldi	r22, 0x23	; 35
    24e4:	a6 2e       	mov	r10, r22
    24e6:	b1 2c       	mov	r11, r1
						bt >>= 4;
					ph_track += ((bt & 0x08) ? (0xf8 | bt) : bt);
					if (ph_track > 196)
						ph_track = 0;
					if (ph_track > 139)
						ph_track = 139;
    24e8:	5b e8       	ldi	r21, 0x8B	; 139
    24ea:	95 2e       	mov	r9, r21
	lcd_gotoxy(0, 1);
	lcd_puts_p(MSG2);
	_delay_ms(1000);

	while (1) {
		check_eject();
    24ec:	0e 94 0e 10 	call	0x201c	; 0x201c <check_eject>
		if (bit_is_set(PINC, 0)) {											// disable drive
    24f0:	30 9b       	sbis	0x06, 0	; 6
    24f2:	05 c0       	rjmp	.+10     	; 0x24fe <main+0xca>
			PORTB = 0b00100000;												// red LED off
    24f4:	f5 b8       	out	0x05, r15	; 5
	lcd_gotoxy(0, 1);
	lcd_puts_p(MSG2);
	_delay_ms(1000);

	while (1) {
		check_eject();
    24f6:	0e 94 0e 10 	call	0x201c	; 0x201c <check_eject>
		if (bit_is_set(PINC, 0)) {											// disable drive
    24fa:	30 99       	sbic	0x06, 0	; 6
    24fc:	fb cf       	rjmp	.-10     	; 0x24f4 <main+0xc0>
			PORTB = 0b00100000;												// red LED off
		} else {															// enable drive
			PORTB = 0b00110000;
    24fe:	e5 b8       	out	0x05, r14	; 5
			// protect = ((PIND&0b10000000)>>4);
			stp = (PINB & 0b00001111);
    2500:	83 b1       	in	r24, 0x03	; 3
    2502:	8f 70       	andi	r24, 0x0F	; 15
    2504:	80 93 11 01 	sts	0x0111, r24
			if (stp != oldStp) {
    2508:	90 91 12 01 	lds	r25, 0x0112
    250c:	89 17       	cp	r24, r25
    250e:	71 f0       	breq	.+28     	; 0x252c <main+0xf8>
				oldStp = stp;
    2510:	80 93 12 01 	sts	0x0112, r24
				unsigned char ofs =
    2514:	88 30       	cpi	r24, 0x08	; 8
    2516:	09 f4       	brne	.+2      	; 0x251a <main+0xe6>
    2518:	ac c0       	rjmp	.+344    	; 0x2672 <main+0x23e>
    251a:	84 30       	cpi	r24, 0x04	; 4
    251c:	09 f4       	brne	.+2      	; 0x2520 <main+0xec>
    251e:	c7 c0       	rjmp	.+398    	; 0x26ae <main+0x27a>
    2520:	82 30       	cpi	r24, 0x02	; 2
    2522:	09 f4       	brne	.+2      	; 0x2526 <main+0xf2>
    2524:	c6 c0       	rjmp	.+396    	; 0x26b2 <main+0x27e>
    2526:	81 30       	cpi	r24, 0x01	; 1
    2528:	09 f4       	brne	.+2      	; 0x252c <main+0xf8>
    252a:	c5 c0       	rjmp	.+394    	; 0x26b6 <main+0x282>
						ph_track = 0;
					if (ph_track > 139)
						ph_track = 139;
				}
			}
			if (inited && prepare) {
    252c:	80 91 61 08 	lds	r24, 0x0861
    2530:	88 23       	and	r24, r24
    2532:	e1 f2       	breq	.-72     	; 0x24ec <main+0xb8>
    2534:	80 91 12 08 	lds	r24, 0x0812
    2538:	88 23       	and	r24, r24
    253a:	c1 f2       	breq	.-80     	; 0x24ec <main+0xb8>
				cli();
    253c:	f8 94       	cli
				sector = ((sector + 1) & 0xf);
    253e:	30 91 ff 07 	lds	r19, 0x07FF
    2542:	3f 5f       	subi	r19, 0xFF	; 255
    2544:	3f 70       	andi	r19, 0x0F	; 15
    2546:	30 93 ff 07 	sts	0x07FF, r19
				{
					unsigned char trk = (ph_track >> 2);
    254a:	10 91 11 08 	lds	r17, 0x0811
    254e:	16 95       	lsr	r17
    2550:	16 95       	lsr	r17
					unsigned short long_sector = (unsigned short)trk * 16 + sector;
    2552:	c1 2f       	mov	r28, r17
    2554:	d0 e0       	ldi	r29, 0x00	; 0
    2556:	c2 95       	swap	r28
    2558:	d2 95       	swap	r29
    255a:	d0 7f       	andi	r29, 0xF0	; 240
    255c:	dc 27       	eor	r29, r28
    255e:	c0 7f       	andi	r28, 0xF0	; 240
    2560:	dc 27       	eor	r29, r28
    2562:	c3 0f       	add	r28, r19
    2564:	d1 1d       	adc	r29, r1
					unsigned short long_cluster = (long_sector >> sectorsPerCluster2);
    2566:	e0 91 18 01 	lds	r30, 0x0118
    256a:	6e 01       	movw	r12, r28
    256c:	0e 2e       	mov	r0, r30
    256e:	02 c0       	rjmp	.+4      	; 0x2574 <main+0x140>
    2570:	d6 94       	lsr	r13
    2572:	c7 94       	ror	r12
    2574:	0a 94       	dec	r0
    2576:	e2 f7       	brpl	.-8      	; 0x2570 <main+0x13c>
					unsigned char fatNum = long_cluster / FAT_NIC_ELEMS;
    2578:	c6 01       	movw	r24, r12
    257a:	b5 01       	movw	r22, r10
    257c:	0e 94 e5 14 	call	0x29ca	; 0x29ca <__udivmodhi4>
    2580:	26 2f       	mov	r18, r22
					unsigned short ft;

					if (fatNum != prevFatNumNic) {
    2582:	80 91 fe 07 	lds	r24, 0x07FE
    2586:	86 17       	cp	r24, r22
    2588:	b9 f0       	breq	.+46     	; 0x25b8 <main+0x184>
						prevFatNumNic = fatNum;
    258a:	60 93 fe 07 	sts	0x07FE, r22
						prepareFat(nicDir, fatNic, ((560+sectorsPerCluster-1)>>sectorsPerCluster2), fatNum, FAT_NIC_ELEMS);
    258e:	40 91 09 08 	lds	r20, 0x0809
    2592:	50 e0       	ldi	r21, 0x00	; 0
    2594:	41 5d       	subi	r20, 0xD1	; 209
    2596:	5d 4f       	sbci	r21, 0xFD	; 253
    2598:	02 c0       	rjmp	.+4      	; 0x259e <main+0x16a>
    259a:	55 95       	asr	r21
    259c:	47 95       	ror	r20
    259e:	ea 95       	dec	r30
    25a0:	e2 f7       	brpl	.-8      	; 0x259a <main+0x166>
    25a2:	80 91 0b 08 	lds	r24, 0x080B
    25a6:	90 91 0c 08 	lds	r25, 0x080C
    25aa:	69 e1       	ldi	r22, 0x19	; 25
    25ac:	78 e0       	ldi	r23, 0x08	; 8
    25ae:	03 e2       	ldi	r16, 0x23	; 35
    25b0:	0e 94 01 05 	call	0xa02	; 0xa02 <prepareFat>
    25b4:	30 91 ff 07 	lds	r19, 0x07FF
					}
					ft = fatNic[long_cluster % FAT_NIC_ELEMS];
    25b8:	c6 01       	movw	r24, r12
    25ba:	b5 01       	movw	r22, r10
    25bc:	0e 94 e5 14 	call	0x29ca	; 0x29ca <__udivmodhi4>
    25c0:	88 0f       	add	r24, r24
    25c2:	99 1f       	adc	r25, r25
    25c4:	87 5e       	subi	r24, 0xE7	; 231
    25c6:	97 4f       	sbci	r25, 0xF7	; 247
    25c8:	dc 01       	movw	r26, r24
    25ca:	cd 90       	ld	r12, X+
    25cc:	dc 90       	ld	r13, X
    25ce:	11 97       	sbiw	r26, 0x01	; 1

					if (((sectors[0]==sector)&&(tracks[0]==trk))
    25d0:	80 91 13 01 	lds	r24, 0x0113
    25d4:	83 17       	cp	r24, r19
    25d6:	09 f4       	brne	.+2      	; 0x25da <main+0x1a6>
    25d8:	70 c0       	rjmp	.+224    	; 0x26ba <main+0x286>
						|| ((sectors[1]==sector)&&(tracks[1]==trk))
    25da:	80 91 14 01 	lds	r24, 0x0114
    25de:	83 17       	cp	r24, r19
    25e0:	09 f4       	brne	.+2      	; 0x25e4 <main+0x1b0>
    25e2:	73 c0       	rjmp	.+230    	; 0x26ca <main+0x296>
						|| ((sectors[2]==sector)&&(tracks[2]==trk))
    25e4:	80 91 15 01 	lds	r24, 0x0115
    25e8:	83 17       	cp	r24, r19
    25ea:	09 f4       	brne	.+2      	; 0x25ee <main+0x1ba>
    25ec:	77 c0       	rjmp	.+238    	; 0x26dc <main+0x2a8>
						|| ((sectors[3]==sector)&&(tracks[3]==trk))
    25ee:	80 91 16 01 	lds	r24, 0x0116
    25f2:	83 17       	cp	r24, r19
    25f4:	09 f4       	brne	.+2      	; 0x25f8 <main+0x1c4>
    25f6:	7b c0       	rjmp	.+246    	; 0x26ee <main+0x2ba>
						|| ((sectors[4]==sector)&&(tracks[4]==trk))
    25f8:	80 91 17 01 	lds	r24, 0x0117
    25fc:	83 17       	cp	r24, r19
    25fe:	09 f4       	brne	.+2      	; 0x2602 <main+0x1ce>
    2600:	7f c0       	rjmp	.+254    	; 0x2700 <main+0x2cc>
					) writeBackSub();

					cmd17Fast(userAddr + (((unsigned long)(ft-2) << sectorsPerCluster2)
    2602:	b6 01       	movw	r22, r12
    2604:	62 50       	subi	r22, 0x02	; 2
    2606:	70 40       	sbci	r23, 0x00	; 0
    2608:	80 e0       	ldi	r24, 0x00	; 0
    260a:	90 e0       	ldi	r25, 0x00	; 0
    260c:	00 90 18 01 	lds	r0, 0x0118
    2610:	04 c0       	rjmp	.+8      	; 0x261a <main+0x1e6>
    2612:	66 0f       	add	r22, r22
    2614:	77 1f       	adc	r23, r23
    2616:	88 1f       	adc	r24, r24
    2618:	99 1f       	adc	r25, r25
    261a:	0a 94       	dec	r0
    261c:	d2 f7       	brpl	.-12     	; 0x2612 <main+0x1de>
						+ (long_sector & (sectorsPerCluster - 1))) * 512);
    261e:	20 91 09 08 	lds	r18, 0x0809
    2622:	30 e0       	ldi	r19, 0x00	; 0
    2624:	21 50       	subi	r18, 0x01	; 1
    2626:	30 40       	sbci	r19, 0x00	; 0
    2628:	2c 23       	and	r18, r28
    262a:	3d 23       	and	r19, r29
    262c:	40 e0       	ldi	r20, 0x00	; 0
    262e:	50 e0       	ldi	r21, 0x00	; 0
    2630:	62 0f       	add	r22, r18
    2632:	73 1f       	adc	r23, r19
    2634:	84 1f       	adc	r24, r20
    2636:	95 1f       	adc	r25, r21
    2638:	09 e0       	ldi	r16, 0x09	; 9
    263a:	66 0f       	add	r22, r22
    263c:	77 1f       	adc	r23, r23
    263e:	88 1f       	adc	r24, r24
    2640:	99 1f       	adc	r25, r25
    2642:	0a 95       	dec	r16
    2644:	d1 f7       	brne	.-12     	; 0x263a <main+0x206>
						|| ((sectors[2]==sector)&&(tracks[2]==trk))
						|| ((sectors[3]==sector)&&(tracks[3]==trk))
						|| ((sectors[4]==sector)&&(tracks[4]==trk))
					) writeBackSub();

					cmd17Fast(userAddr + (((unsigned long)(ft-2) << sectorsPerCluster2)
    2646:	20 91 01 08 	lds	r18, 0x0801
    264a:	30 91 02 08 	lds	r19, 0x0802
    264e:	40 91 03 08 	lds	r20, 0x0803
    2652:	50 91 04 08 	lds	r21, 0x0804
    2656:	62 0f       	add	r22, r18
    2658:	73 1f       	adc	r23, r19
    265a:	84 1f       	adc	r24, r20
    265c:	95 1f       	adc	r25, r21
    265e:	0e 94 2a 03 	call	0x654	; 0x654 <cmd17Fast>
						+ (long_sector & (sectorsPerCluster - 1))) * 512);
					bitbyte = 0;
    2662:	10 92 fb 07 	sts	0x07FB, r1
    2666:	10 92 fa 07 	sts	0x07FA, r1
					prepare = 0;	
    266a:	10 92 12 08 	sts	0x0812, r1
				}	
				sei();
    266e:	78 94       	sei
    2670:	3d cf       	rjmp	.-390    	; 0x24ec <main+0xb8>
			PORTB = 0b00110000;
			// protect = ((PIND&0b10000000)>>4);
			stp = (PINB & 0b00001111);
			if (stp != oldStp) {
				oldStp = stp;
				unsigned char ofs =
    2672:	92 e0       	ldi	r25, 0x02	; 2
					((stp==0b00001000) ? 2 :
					((stp==0b00000100) ? 4 :
					((stp==0b00000010) ? 6 :
					((stp==0b00000001) ? 0 : 0xff))));
				if (ofs != 0xff) {
					ofs = ((ofs+ph_track)&7);
    2674:	80 91 11 08 	lds	r24, 0x0811
    2678:	98 0f       	add	r25, r24
    267a:	97 70       	andi	r25, 0x07	; 7
					unsigned char bt = pgm_read_byte_near(stepper_table + (ofs >> 1));
    267c:	e9 2f       	mov	r30, r25
    267e:	e6 95       	lsr	r30
    2680:	f0 e0       	ldi	r31, 0x00	; 0
    2682:	e8 59       	subi	r30, 0x98	; 152
    2684:	ff 4f       	sbci	r31, 0xFF	; 255
    2686:	e4 91       	lpm	r30, Z+
					oldStp = stp;
					if (ofs & 1)
    2688:	90 ff       	sbrs	r25, 0
						bt &= 0x0f;
					else
						bt >>= 4;
    268a:	e2 95       	swap	r30
    268c:	ef 70       	andi	r30, 0x0F	; 15
					ph_track += ((bt & 0x08) ? (0xf8 | bt) : bt);
    268e:	e3 fd       	sbrc	r30, 3
    2690:	e8 6f       	ori	r30, 0xF8	; 248
    2692:	e8 0f       	add	r30, r24
    2694:	e0 93 11 08 	sts	0x0811, r30
					if (ph_track > 196)
    2698:	e5 3c       	cpi	r30, 0xC5	; 197
    269a:	18 f0       	brcs	.+6      	; 0x26a2 <main+0x26e>
						ph_track = 0;
    269c:	10 92 11 08 	sts	0x0811, r1
    26a0:	45 cf       	rjmp	.-374    	; 0x252c <main+0xf8>
					if (ph_track > 139)
    26a2:	ec 38       	cpi	r30, 0x8C	; 140
    26a4:	08 f4       	brcc	.+2      	; 0x26a8 <main+0x274>
    26a6:	42 cf       	rjmp	.-380    	; 0x252c <main+0xf8>
						ph_track = 139;
    26a8:	90 92 11 08 	sts	0x0811, r9
    26ac:	3f cf       	rjmp	.-386    	; 0x252c <main+0xf8>
			PORTB = 0b00110000;
			// protect = ((PIND&0b10000000)>>4);
			stp = (PINB & 0b00001111);
			if (stp != oldStp) {
				oldStp = stp;
				unsigned char ofs =
    26ae:	94 e0       	ldi	r25, 0x04	; 4
    26b0:	e1 cf       	rjmp	.-62     	; 0x2674 <main+0x240>
    26b2:	96 e0       	ldi	r25, 0x06	; 6
    26b4:	df cf       	rjmp	.-66     	; 0x2674 <main+0x240>
    26b6:	90 e0       	ldi	r25, 0x00	; 0
    26b8:	dd cf       	rjmp	.-70     	; 0x2674 <main+0x240>
						prevFatNumNic = fatNum;
						prepareFat(nicDir, fatNic, ((560+sectorsPerCluster-1)>>sectorsPerCluster2), fatNum, FAT_NIC_ELEMS);
					}
					ft = fatNic[long_cluster % FAT_NIC_ELEMS];

					if (((sectors[0]==sector)&&(tracks[0]==trk))
    26ba:	80 91 1a 01 	lds	r24, 0x011A
    26be:	81 17       	cp	r24, r17
    26c0:	09 f0       	breq	.+2      	; 0x26c4 <main+0x290>
    26c2:	8b cf       	rjmp	.-234    	; 0x25da <main+0x1a6>
						|| ((sectors[1]==sector)&&(tracks[1]==trk))
						|| ((sectors[2]==sector)&&(tracks[2]==trk))
						|| ((sectors[3]==sector)&&(tracks[3]==trk))
						|| ((sectors[4]==sector)&&(tracks[4]==trk))
					) writeBackSub();
    26c4:	0e 94 cb 11 	call	0x2396	; 0x2396 <writeBackSub>
    26c8:	9c cf       	rjmp	.-200    	; 0x2602 <main+0x1ce>
						prepareFat(nicDir, fatNic, ((560+sectorsPerCluster-1)>>sectorsPerCluster2), fatNum, FAT_NIC_ELEMS);
					}
					ft = fatNic[long_cluster % FAT_NIC_ELEMS];

					if (((sectors[0]==sector)&&(tracks[0]==trk))
						|| ((sectors[1]==sector)&&(tracks[1]==trk))
    26ca:	80 91 1b 01 	lds	r24, 0x011B
    26ce:	81 17       	cp	r24, r17
    26d0:	c9 f3       	breq	.-14     	; 0x26c4 <main+0x290>
						|| ((sectors[2]==sector)&&(tracks[2]==trk))
    26d2:	80 91 15 01 	lds	r24, 0x0115
    26d6:	83 17       	cp	r24, r19
    26d8:	09 f0       	breq	.+2      	; 0x26dc <main+0x2a8>
    26da:	89 cf       	rjmp	.-238    	; 0x25ee <main+0x1ba>
    26dc:	80 91 1c 01 	lds	r24, 0x011C
    26e0:	81 17       	cp	r24, r17
    26e2:	81 f3       	breq	.-32     	; 0x26c4 <main+0x290>
						|| ((sectors[3]==sector)&&(tracks[3]==trk))
    26e4:	80 91 16 01 	lds	r24, 0x0116
    26e8:	83 17       	cp	r24, r19
    26ea:	09 f0       	breq	.+2      	; 0x26ee <main+0x2ba>
    26ec:	85 cf       	rjmp	.-246    	; 0x25f8 <main+0x1c4>
    26ee:	80 91 1d 01 	lds	r24, 0x011D
    26f2:	81 17       	cp	r24, r17
    26f4:	39 f3       	breq	.-50     	; 0x26c4 <main+0x290>
						|| ((sectors[4]==sector)&&(tracks[4]==trk))
    26f6:	80 91 17 01 	lds	r24, 0x0117
    26fa:	83 17       	cp	r24, r19
    26fc:	09 f0       	breq	.+2      	; 0x2700 <main+0x2cc>
    26fe:	81 cf       	rjmp	.-254    	; 0x2602 <main+0x1ce>
    2700:	80 91 1e 01 	lds	r24, 0x011E
    2704:	81 17       	cp	r24, r17
    2706:	09 f0       	breq	.+2      	; 0x270a <main+0x2d6>
    2708:	7c cf       	rjmp	.-264    	; 0x2602 <main+0x1ce>
					) writeBackSub();
    270a:	0e 94 cb 11 	call	0x2396	; 0x2396 <writeBackSub>
    270e:	79 cf       	rjmp	.-270    	; 0x2602 <main+0x1ce>

00002710 <writeBack>:
}

/******************************************************************************/
// write back writeData into the SD card
void writeBack(void)
{
    2710:	cf 93       	push	r28
    2712:	df 93       	push	r29
	static unsigned char sec;
	
	if (bit_is_set(PIND, 3)) return;
    2714:	4b 99       	sbic	0x09, 3	; 9
    2716:	14 c0       	rjmp	.+40     	; 0x2740 <writeBack+0x30>
	if (writeData[buffNum][2] == 0xAD) {
    2718:	30 91 19 01 	lds	r19, 0x0119
    271c:	83 2f       	mov	r24, r19
    271e:	90 e0       	ldi	r25, 0x00	; 0
    2720:	ce e5       	ldi	r28, 0x5E	; 94
    2722:	d1 e0       	ldi	r29, 0x01	; 1
    2724:	8c 9f       	mul	r24, r28
    2726:	f0 01       	movw	r30, r0
    2728:	8d 9f       	mul	r24, r29
    272a:	f0 0d       	add	r31, r0
    272c:	9c 9f       	mul	r25, r28
    272e:	f0 0d       	add	r31, r0
    2730:	11 24       	eor	r1, r1
    2732:	e0 5e       	subi	r30, 0xE0	; 224
    2734:	fe 4f       	sbci	r31, 0xFE	; 254
    2736:	22 81       	ldd	r18, Z+2	; 0x02
    2738:	2d 3a       	cpi	r18, 0xAD	; 173
    273a:	09 f1       	breq	.+66     	; 0x277e <writeBack+0x6e>
				cancelRead();
				prepare = 1;
			}
		}
	}
	if (writeData[buffNum][2] == 0x96) {
    273c:	26 39       	cpi	r18, 0x96	; 150
    273e:	19 f0       	breq	.+6      	; 0x2746 <writeBack+0x36>
		sec = (((writeData[buffNum][7] & 0x55) << 1) | (writeData[buffNum][8] & 0x55));
		formatting = 1;
	}
}
    2740:	df 91       	pop	r29
    2742:	cf 91       	pop	r28
    2744:	08 95       	ret
				prepare = 1;
			}
		}
	}
	if (writeData[buffNum][2] == 0x96) {
		sec = (((writeData[buffNum][7] & 0x55) << 1) | (writeData[buffNum][8] & 0x55));
    2746:	2e e5       	ldi	r18, 0x5E	; 94
    2748:	31 e0       	ldi	r19, 0x01	; 1
    274a:	82 9f       	mul	r24, r18
    274c:	f0 01       	movw	r30, r0
    274e:	83 9f       	mul	r24, r19
    2750:	f0 0d       	add	r31, r0
    2752:	92 9f       	mul	r25, r18
    2754:	f0 0d       	add	r31, r0
    2756:	11 24       	eor	r1, r1
    2758:	e0 5e       	subi	r30, 0xE0	; 224
    275a:	fe 4f       	sbci	r31, 0xFE	; 254
    275c:	87 81       	ldd	r24, Z+7	; 0x07
    275e:	90 e0       	ldi	r25, 0x00	; 0
    2760:	85 75       	andi	r24, 0x55	; 85
    2762:	90 70       	andi	r25, 0x00	; 0
    2764:	88 0f       	add	r24, r24
    2766:	99 1f       	adc	r25, r25
    2768:	20 85       	ldd	r18, Z+8	; 0x08
    276a:	25 75       	andi	r18, 0x55	; 85
    276c:	28 2b       	or	r18, r24
    276e:	20 93 10 01 	sts	0x0110, r18
		formatting = 1;
    2772:	81 e0       	ldi	r24, 0x01	; 1
    2774:	80 93 1f 01 	sts	0x011F, r24
	}
}
    2778:	df 91       	pop	r29
    277a:	cf 91       	pop	r28
    277c:	08 95       	ret
{
	static unsigned char sec;
	
	if (bit_is_set(PIND, 3)) return;
	if (writeData[buffNum][2] == 0xAD) {
		if (!formatting) {
    277e:	20 91 1f 01 	lds	r18, 0x011F
    2782:	22 23       	and	r18, r18
    2784:	71 f5       	brne	.+92     	; 0x27e2 <writeBack+0xd2>
			sectors[buffNum] = sector;
    2786:	20 91 ff 07 	lds	r18, 0x07FF
    278a:	fc 01       	movw	r30, r24
    278c:	ed 5e       	subi	r30, 0xED	; 237
    278e:	fe 4f       	sbci	r31, 0xFE	; 254
    2790:	20 83       	st	Z, r18
			tracks[buffNum] = (ph_track >> 2);
    2792:	fc 01       	movw	r30, r24
    2794:	e6 5e       	subi	r30, 0xE6	; 230
    2796:	fe 4f       	sbci	r31, 0xFE	; 254
    2798:	80 91 11 08 	lds	r24, 0x0811
    279c:	86 95       	lsr	r24
    279e:	86 95       	lsr	r24
    27a0:	80 83       	st	Z, r24
			sector = ((((sector == 0xf) || (sector == 0xd)) ? (sector + 2) : (sector + 1)) & 0xf);
    27a2:	2f 30       	cpi	r18, 0x0F	; 15
    27a4:	d1 f1       	breq	.+116    	; 0x281a <writeBack+0x10a>
    27a6:	2d 30       	cpi	r18, 0x0D	; 13
    27a8:	c1 f1       	breq	.+112    	; 0x281a <writeBack+0x10a>
    27aa:	2f 5f       	subi	r18, 0xFF	; 255
    27ac:	2f 70       	andi	r18, 0x0F	; 15
    27ae:	20 93 ff 07 	sts	0x07FF, r18
			if (buffNum == (BUF_NUM - 1)) {
    27b2:	34 30       	cpi	r19, 0x04	; 4
    27b4:	a9 f1       	breq	.+106    	; 0x2820 <writeBack+0x110>
				// cancel reading
				cancelRead();
				writeBackSub();
				prepare = 1;
			} else {
				buffNum++;
    27b6:	3f 5f       	subi	r19, 0xFF	; 255
    27b8:	30 93 19 01 	sts	0x0119, r19
				writePtr = &(writeData[buffNum][0]);
    27bc:	83 2f       	mov	r24, r19
    27be:	90 e0       	ldi	r25, 0x00	; 0
    27c0:	2e e5       	ldi	r18, 0x5E	; 94
    27c2:	31 e0       	ldi	r19, 0x01	; 1
    27c4:	82 9f       	mul	r24, r18
    27c6:	f0 01       	movw	r30, r0
    27c8:	83 9f       	mul	r24, r19
    27ca:	f0 0d       	add	r31, r0
    27cc:	92 9f       	mul	r25, r18
    27ce:	f0 0d       	add	r31, r0
    27d0:	11 24       	eor	r1, r1
    27d2:	e0 5e       	subi	r30, 0xE0	; 224
    27d4:	fe 4f       	sbci	r31, 0xFE	; 254
    27d6:	f0 93 18 08 	sts	0x0818, r31
    27da:	e0 93 17 08 	sts	0x0817, r30
    27de:	22 81       	ldd	r18, Z+2	; 0x02
    27e0:	ad cf       	rjmp	.-166    	; 0x273c <writeBack+0x2c>
			}
		} else {
			sector = sec;
    27e2:	80 91 10 01 	lds	r24, 0x0110
    27e6:	80 93 ff 07 	sts	0x07FF, r24
			formatting = 0;
    27ea:	10 92 1f 01 	sts	0x011F, r1
			if (sec == 0xf) {
    27ee:	8f 30       	cpi	r24, 0x0F	; 15
    27f0:	09 f0       	breq	.+2      	; 0x27f4 <writeBack+0xe4>
    27f2:	a6 cf       	rjmp	.-180    	; 0x2740 <writeBack+0x30>
				// cancel reading
				cancelRead();
    27f4:	0e 94 e0 01 	call	0x3c0	; 0x3c0 <cancelRead>
				prepare = 1;
    27f8:	81 e0       	ldi	r24, 0x01	; 1
    27fa:	80 93 12 08 	sts	0x0812, r24
    27fe:	80 91 19 01 	lds	r24, 0x0119
    2802:	90 e0       	ldi	r25, 0x00	; 0
    2804:	8c 9f       	mul	r24, r28
    2806:	f0 01       	movw	r30, r0
    2808:	8d 9f       	mul	r24, r29
    280a:	f0 0d       	add	r31, r0
    280c:	9c 9f       	mul	r25, r28
    280e:	f0 0d       	add	r31, r0
    2810:	11 24       	eor	r1, r1
    2812:	e0 5e       	subi	r30, 0xE0	; 224
    2814:	fe 4f       	sbci	r31, 0xFE	; 254
    2816:	22 81       	ldd	r18, Z+2	; 0x02
    2818:	91 cf       	rjmp	.-222    	; 0x273c <writeBack+0x2c>
	if (bit_is_set(PIND, 3)) return;
	if (writeData[buffNum][2] == 0xAD) {
		if (!formatting) {
			sectors[buffNum] = sector;
			tracks[buffNum] = (ph_track >> 2);
			sector = ((((sector == 0xf) || (sector == 0xd)) ? (sector + 2) : (sector + 1)) & 0xf);
    281a:	2e 5f       	subi	r18, 0xFE	; 254
    281c:	2f 70       	andi	r18, 0x0F	; 15
    281e:	c7 cf       	rjmp	.-114    	; 0x27ae <writeBack+0x9e>
			if (buffNum == (BUF_NUM - 1)) {
				// cancel reading
				cancelRead();
    2820:	0e 94 e0 01 	call	0x3c0	; 0x3c0 <cancelRead>
				writeBackSub();
    2824:	0e 94 cb 11 	call	0x2396	; 0x2396 <writeBackSub>
				prepare = 1;
    2828:	81 e0       	ldi	r24, 0x01	; 1
    282a:	80 93 12 08 	sts	0x0812, r24
    282e:	80 91 19 01 	lds	r24, 0x0119
    2832:	90 e0       	ldi	r25, 0x00	; 0
    2834:	2e e5       	ldi	r18, 0x5E	; 94
    2836:	31 e0       	ldi	r19, 0x01	; 1
    2838:	82 9f       	mul	r24, r18
    283a:	f0 01       	movw	r30, r0
    283c:	83 9f       	mul	r24, r19
    283e:	f0 0d       	add	r31, r0
    2840:	92 9f       	mul	r25, r18
    2842:	f0 0d       	add	r31, r0
    2844:	11 24       	eor	r1, r1
    2846:	e0 5e       	subi	r30, 0xE0	; 224
    2848:	fe 4f       	sbci	r31, 0xFE	; 254
    284a:	22 81       	ldd	r18, Z+2	; 0x02
    284c:	77 cf       	rjmp	.-274    	; 0x273c <writeBack+0x2c>

0000284e <wait5>:
.global writeBack
.global writePtr

.func wait5
wait5:
	ldi r18,24
    284e:	28 e1       	ldi	r18, 0x18	; 24

00002850 <wait51>:
wait51:
	nop
    2850:	00 00       	nop
	dec r18
    2852:	2a 95       	dec	r18
	brne wait51
    2854:	e9 f7       	brne	.-6      	; 0x2850 <wait51>
	sbiw r24,1
    2856:	01 97       	sbiw	r24, 0x01	; 1
	brne wait5
    2858:	d1 f7       	brne	.-12     	; 0x284e <wait5>
	ret
    285a:	08 95       	ret

0000285c <wait1>:
.endfunc	
	
.func wait1
wait1:
	nop		; 1
    285c:	00 00       	nop
	nop		; 1
    285e:	00 00       	nop
	nop		; 1
    2860:	00 00       	nop
	nop		; 1
    2862:	00 00       	nop
	nop		; 1
    2864:	00 00       	nop
	nop		; 1
    2866:	00 00       	nop
	nop		; 1
    2868:	00 00       	nop
	nop		; 1
    286a:	00 00       	nop
.if CRYSTAL==27
	nop		; 1
.endif
	ret		; 4
    286c:	08 95       	ret

0000286e <__vector_16>:
.endfunc

/* Vetor timer0 overflow */
.func __vector_16
__vector_16:
	push	r26
    286e:	af 93       	push	r26
	in		r26, SREG
    2870:	af b7       	in	r26, 0x3f	; 63
	push	r26
    2872:	af 93       	push	r26
	push	r27
    2874:	bf 93       	push	r27
	push	r18
    2876:	2f 93       	push	r18
	lds		r26,readPulse
    2878:	a0 91 60 08 	lds	r26, 0x0860
	lds		r18,protect
    287c:	20 91 5f 08 	lds	r18, 0x085F
	or		r26,r18
    2880:	a2 2b       	or	r26, r18
	out 	PORTC,r26
    2882:	a8 b9       	out	0x08, r26	; 8
.if CRYSTAL==27	
	ldi		r26,170 ; 165=28Mhz; 27Mhz=170		; 1
.else
	ldi		r26,180 ;  ;ok 176; 185  	; 1
    2884:	a4 eb       	ldi	r26, 0xB4	; 180
.endif
	out		TCNT0,r26	; 1
    2886:	a6 bd       	out	0x26, r26	; 38
	ldi		r18,0		; 1
    2888:	20 e0       	ldi	r18, 0x00	; 0
	rcall	wait1		; 11
    288a:	e8 df       	rcall	.-48     	; 0x285c <wait1>
	lds		r26,protect	; 2
    288c:	a0 91 5f 08 	lds	r26, 0x085F
	out 	PORTC,r26
    2890:	a8 b9       	out	0x08, r26	; 8
	lds		r27,prepare
    2892:	b0 91 12 08 	lds	r27, 0x0812
	and		r27,r27
    2896:	bb 23       	and	r27, r27
	breq 	NOT_PREPARE
    2898:	41 f0       	breq	.+16     	; 0x28aa <NOT_PREPARE>
	sts		readPulse,r18
    289a:	20 93 60 08 	sts	0x0860, r18
	pop		r18
    289e:	2f 91       	pop	r18
	pop		r27
    28a0:	bf 91       	pop	r27
	pop		r26
    28a2:	af 91       	pop	r26
	out		SREG,r26	
    28a4:	af bf       	out	0x3f, r26	; 63
	pop		r26
    28a6:	af 91       	pop	r26
	reti
    28a8:	18 95       	reti

000028aa <NOT_PREPARE>:
NOT_PREPARE:
	ldi		r26,_CLK_DINCS	; 1
    28aa:	a0 e3       	ldi	r26, 0x30	; 48
	out		PORTD,r26		; 1
    28ac:	ab b9       	out	0x0b, r26	; 11
	in		r26,PIND		; 1
    28ae:	a9 b1       	in	r26, 0x09	; 9
	andi	r26,1			; 1
    28b0:	a1 70       	andi	r26, 0x01	; 1
	lsl		r26				; 1
    28b2:	aa 0f       	add	r26, r26
	mov		r18,r26			; 1
    28b4:	2a 2f       	mov	r18, r26
	ldi		r26,NCLK_DINCS	; 1
    28b6:	a0 e1       	ldi	r26, 0x10	; 16
	out		PORTD,r26		; 1
    28b8:	ab b9       	out	0x0b, r26	; 11
	lds		r26,bitbyte
    28ba:	a0 91 fa 07 	lds	r26, 0x07FA
	lds		r27,(bitbyte+1)
    28be:	b0 91 fb 07 	lds	r27, 0x07FB
	adiw	r26,1
    28c2:	11 96       	adiw	r26, 0x01	; 1
	sts		bitbyte,r26
    28c4:	a0 93 fa 07 	sts	0x07FA, r26
	sts		(bitbyte+1),r27
    28c8:	b0 93 fb 07 	sts	0x07FB, r27
	cpi		r26,((402*8)%256)
    28cc:	a0 39       	cpi	r26, 0x90	; 144
	brne	LBL1
    28ce:	89 f4       	brne	.+34     	; 0x28f2 <LBL1>
	cpi		r27,((402*8)/256)
    28d0:	bc 30       	cpi	r27, 0x0C	; 12
	brne	LBL1
    28d2:	79 f4       	brne	.+30     	; 0x28f2 <LBL1>
	; set prepare flag
	ldi		r26,1
    28d4:	a1 e0       	ldi	r26, 0x01	; 1
	sts		prepare,r26
    28d6:	a0 93 12 08 	sts	0x0812, r26
	; discard 112 byte (including CRC 2 byte)
	push	r28
    28da:	cf 93       	push	r28
	ldi		r28,112
    28dc:	c0 e7       	ldi	r28, 0x70	; 112

000028de <DSC_LP2>:
DSC_LP2:
	ldi		r26,8
    28de:	a8 e0       	ldi	r26, 0x08	; 8

000028e0 <DSC_LP1>:
DSC_LP1:
	ldi		r27,_CLK_DINCS	; 1
    28e0:	b0 e3       	ldi	r27, 0x30	; 48
	out		PORTD,r27		; 1
    28e2:	bb b9       	out	0x0b, r27	; 11
	ldi		r27,NCLK_DINCS	; 1
    28e4:	b0 e1       	ldi	r27, 0x10	; 16
	out		PORTD,r27
    28e6:	bb b9       	out	0x0b, r27	; 11
	dec		r26
    28e8:	aa 95       	dec	r26
	brne	DSC_LP1
    28ea:	d1 f7       	brne	.-12     	; 0x28e0 <DSC_LP1>
	dec		r28
    28ec:	ca 95       	dec	r28
	brne	DSC_LP2
    28ee:	b9 f7       	brne	.-18     	; 0x28de <DSC_LP2>
	pop		r28
    28f0:	cf 91       	pop	r28

000028f2 <LBL1>:
LBL1:
	sts		readPulse,r18
    28f2:	20 93 60 08 	sts	0x0860, r18
	pop		r18
    28f6:	2f 91       	pop	r18
	pop		r27
    28f8:	bf 91       	pop	r27
	pop		r26
    28fa:	af 91       	pop	r26
	out		SREG,r26	
    28fc:	af bf       	out	0x3f, r26	; 63
	pop		r26
    28fe:	af 91       	pop	r26
	reti
    2900:	18 95       	reti

00002902 <__vector_1>:
.endfunc

/* Vetor INT0 */
.func __vector_1
__vector_1:
	push	r18			; 1
    2902:	2f 93       	push	r18
	in		r18, SREG	; 1
    2904:	2f b7       	in	r18, 0x3f	; 63
	push	r18			; 1
    2906:	2f 93       	push	r18
	sbic	PINC,0
    2908:	30 99       	sbic	0x06, 0	; 6
	rjmp	NOT_ENABLE
    290a:	5b c0       	rjmp	.+182    	; 0x29c2 <NOT_ENABLE>
	push	r19			; 2
    290c:	3f 93       	push	r19
	lds		r19,magState; 2
    290e:	30 91 00 08 	lds	r19, 0x0800

00002912 <WLP8>:
WLP8:
	; wait start bit 1
	in		r18,PINC	; 1
    2912:	26 b1       	in	r18, 0x06	; 6
	andi	r18,4		; 1
    2914:	24 70       	andi	r18, 0x04	; 4
	eor		r18,r19		; 1
    2916:	23 27       	eor	r18, r19
	breq	WLP8		; 2/1
    2918:	e1 f3       	breq	.-8      	; 0x2912 <WLP8>
	in		r18,PINC	; 1
    291a:	26 b1       	in	r18, 0x06	; 6
	andi	r18,4		; 1
    291c:	24 70       	andi	r18, 0x04	; 4
	sts		magState,r18; 2
    291e:	20 93 00 08 	sts	0x0800, r18
	ldi		r18, 8		; 1
    2922:	28 e0       	ldi	r18, 0x08	; 8

00002924 <WLP9>:
WLP9:
	dec		r18			; 1
    2924:	2a 95       	dec	r18
	brne	WLP9		; 2
    2926:	f1 f7       	brne	.-4      	; 0x2924 <WLP9>
	nop					; 1
    2928:	00 00       	nop
	push	r20			; 2
    292a:	4f 93       	push	r20
	push	r21			; 2
    292c:	5f 93       	push	r21
	push	r22			; 2
    292e:	6f 93       	push	r22
	push	r23			; 2
    2930:	7f 93       	push	r23
	push	r24			; 2
    2932:	8f 93       	push	r24
	push	r30			; 2
    2934:	ef 93       	push	r30
	push	r31			; 2
    2936:	ff 93       	push	r31
	ldi		r22,0		; 1 start storing
    2938:	60 e0       	ldi	r22, 0x00	; 0
	lds		r30,(writePtr)
    293a:	e0 91 17 08 	lds	r30, 0x0817
	lds		r31,(writePtr+1)
    293e:	f0 91 18 08 	lds	r31, 0x0818
	ldi		r19,lo8(349) ;1
    2942:	3d e5       	ldi	r19, 0x5D	; 93
	ldi		r20,hi8(349) ;1 
    2944:	41 e0       	ldi	r20, 0x01	; 1
	rjmp	ENTR		; 2
    2946:	0d c0       	rjmp	.+26     	; 0x2962 <ENTR>

00002948 <WLP2>:
WLP2:
	lds		r21,magState; 2
    2948:	50 91 00 08 	lds	r21, 0x0800

0000294c <WLP6>:
WLP6:
	; wait start bit 1
	in		r23,PINC	; 1
    294c:	76 b1       	in	r23, 0x06	; 6
	andi	r23,4		; 1
    294e:	74 70       	andi	r23, 0x04	; 4
	eor		r23,r21		; 1
    2950:	75 27       	eor	r23, r21
	breq	WLP6		; 2/1
    2952:	e1 f3       	breq	.-8      	; 0x294c <WLP6>
	in		r23,PINC	; 1
    2954:	76 b1       	in	r23, 0x06	; 6
	andi	r23,4		; 1
    2956:	74 70       	andi	r23, 0x04	; 4
	sts		magState,r23; 2
    2958:	70 93 00 08 	sts	0x0800, r23
	ldi		r23, 14		; 1
    295c:	7e e0       	ldi	r23, 0x0E	; 14

0000295e <WLP7>:
WLP7:
	dec		r23			; 1
    295e:	7a 95       	dec	r23
	brne	WLP7		; 2
    2960:	f1 f7       	brne	.-4      	; 0x295e <WLP7>

00002962 <ENTR>:
ENTR:
	ldi		r18,7		; 1
    2962:	27 e0       	ldi	r18, 0x07	; 7
	ldi		r24,1		; 1
    2964:	81 e0       	ldi	r24, 0x01	; 1

00002966 <WLP1>:
WLP1:
	in		r23,PIND	; 1
    2966:	79 b1       	in	r23, 0x09	; 9
	andi	r23,4		; 1
    2968:	74 70       	andi	r23, 0x04	; 4
	brne	WRITE_END	; 1	
    296a:	d9 f4       	brne	.+54     	; 0x29a2 <WRITE_END>
	nop					; 1	
    296c:	00 00       	nop
.if CRYSTAL==27	
	ldi		r23,30; 32=28Mhz  ;27mhz=30		; 1
.else
	nop
    296e:	00 00       	nop
	ldi		r23,27		; 1
    2970:	7b e1       	ldi	r23, 0x1B	; 27

00002972 <WLP3>:
.endif
WLP3:
	dec		r23			; 1
    2972:	7a 95       	dec	r23
	brne	WLP3		; 2
    2974:	f1 f7       	brne	.-4      	; 0x2972 <WLP3>

00002976 <WLP5>:
WLP5:
	in		r23,PINC	; 1
    2976:	76 b1       	in	r23, 0x06	; 6
	andi	r23,4		; 1
    2978:	74 70       	andi	r23, 0x04	; 4
	lds		r21,magState; 2
    297a:	50 91 00 08 	lds	r21, 0x0800
	sts		magState,r23; 2
    297e:	70 93 00 08 	sts	0x0800, r23
	eor		r23,r21		; 1
    2982:	75 27       	eor	r23, r21
	lsr		r23			; 1
    2984:	76 95       	lsr	r23
	lsr		r23			; 1
    2986:	76 95       	lsr	r23
	lsl		r24			; 1
    2988:	88 0f       	add	r24, r24
	or		r24,r23		; 1
    298a:	87 2b       	or	r24, r23
	dec		r18			; 1
    298c:	2a 95       	dec	r18
	brne	WLP1		; 2/1
    298e:	59 f7       	brne	.-42     	; 0x2966 <WLP1>
	cpi		r24,0xD5	; 1
    2990:	85 3d       	cpi	r24, 0xD5	; 213
	brne	NOT_START	; 2/1
    2992:	09 f4       	brne	.+2      	; 0x2996 <NOT_START>
	ldi		r22,1		; 1
    2994:	61 e0       	ldi	r22, 0x01	; 1

00002996 <NOT_START>:
NOT_START:
	cpi		r22,0		; 1
    2996:	60 30       	cpi	r22, 0x00	; 0
	breq	WLP2		; 1
    2998:	b9 f2       	breq	.-82     	; 0x2948 <WLP2>
	st		Z+,r24		; 2
    299a:	81 93       	st	Z+, r24
	subi	r19,1		; 1
    299c:	31 50       	subi	r19, 0x01	; 1
	sbci	r20,0		; 1
    299e:	40 40       	sbci	r20, 0x00	; 0
	brne	WLP2		; 2/1
    29a0:	99 f6       	brne	.-90     	; 0x2948 <WLP2>

000029a2 <WRITE_END>:
WRITE_END:

	push	r25
    29a2:	9f 93       	push	r25
	push	r26
    29a4:	af 93       	push	r26
	push	r27
    29a6:	bf 93       	push	r27
	call	writeBack
    29a8:	0e 94 88 13 	call	0x2710	; 0x2710 <writeBack>
	pop		r27
    29ac:	bf 91       	pop	r27
	pop		r26
    29ae:	af 91       	pop	r26
	pop		r25
    29b0:	9f 91       	pop	r25
	pop		r31
    29b2:	ff 91       	pop	r31
	pop		r30
    29b4:	ef 91       	pop	r30
	pop		r24
    29b6:	8f 91       	pop	r24
	pop		r23
    29b8:	7f 91       	pop	r23
	pop		r22
    29ba:	6f 91       	pop	r22
	pop		r21
    29bc:	5f 91       	pop	r21
	pop		r20
    29be:	4f 91       	pop	r20
	pop		r19
    29c0:	3f 91       	pop	r19

000029c2 <NOT_ENABLE>:
NOT_ENABLE:
	pop		r18
    29c2:	2f 91       	pop	r18
	out		SREG,r18	
    29c4:	2f bf       	out	0x3f, r18	; 63
	pop		r18
    29c6:	2f 91       	pop	r18
	reti
    29c8:	18 95       	reti

000029ca <__udivmodhi4>:
    29ca:	aa 1b       	sub	r26, r26
    29cc:	bb 1b       	sub	r27, r27
    29ce:	51 e1       	ldi	r21, 0x11	; 17
    29d0:	07 c0       	rjmp	.+14     	; 0x29e0 <__udivmodhi4_ep>

000029d2 <__udivmodhi4_loop>:
    29d2:	aa 1f       	adc	r26, r26
    29d4:	bb 1f       	adc	r27, r27
    29d6:	a6 17       	cp	r26, r22
    29d8:	b7 07       	cpc	r27, r23
    29da:	10 f0       	brcs	.+4      	; 0x29e0 <__udivmodhi4_ep>
    29dc:	a6 1b       	sub	r26, r22
    29de:	b7 0b       	sbc	r27, r23

000029e0 <__udivmodhi4_ep>:
    29e0:	88 1f       	adc	r24, r24
    29e2:	99 1f       	adc	r25, r25
    29e4:	5a 95       	dec	r21
    29e6:	a9 f7       	brne	.-22     	; 0x29d2 <__udivmodhi4_loop>
    29e8:	80 95       	com	r24
    29ea:	90 95       	com	r25
    29ec:	bc 01       	movw	r22, r24
    29ee:	cd 01       	movw	r24, r26
    29f0:	08 95       	ret

000029f2 <__divmodhi4>:
    29f2:	97 fb       	bst	r25, 7
    29f4:	09 2e       	mov	r0, r25
    29f6:	07 26       	eor	r0, r23
    29f8:	0a d0       	rcall	.+20     	; 0x2a0e <__divmodhi4_neg1>
    29fa:	77 fd       	sbrc	r23, 7
    29fc:	04 d0       	rcall	.+8      	; 0x2a06 <__divmodhi4_neg2>
    29fe:	e5 df       	rcall	.-54     	; 0x29ca <__udivmodhi4>
    2a00:	06 d0       	rcall	.+12     	; 0x2a0e <__divmodhi4_neg1>
    2a02:	00 20       	and	r0, r0
    2a04:	1a f4       	brpl	.+6      	; 0x2a0c <__divmodhi4_exit>

00002a06 <__divmodhi4_neg2>:
    2a06:	70 95       	com	r23
    2a08:	61 95       	neg	r22
    2a0a:	7f 4f       	sbci	r23, 0xFF	; 255

00002a0c <__divmodhi4_exit>:
    2a0c:	08 95       	ret

00002a0e <__divmodhi4_neg1>:
    2a0e:	f6 f7       	brtc	.-4      	; 0x2a0c <__divmodhi4_exit>
    2a10:	90 95       	com	r25
    2a12:	81 95       	neg	r24
    2a14:	9f 4f       	sbci	r25, 0xFF	; 255
    2a16:	08 95       	ret

00002a18 <memcmp>:
    2a18:	fb 01       	movw	r30, r22
    2a1a:	dc 01       	movw	r26, r24
    2a1c:	04 c0       	rjmp	.+8      	; 0x2a26 <memcmp+0xe>
    2a1e:	8d 91       	ld	r24, X+
    2a20:	01 90       	ld	r0, Z+
    2a22:	80 19       	sub	r24, r0
    2a24:	21 f4       	brne	.+8      	; 0x2a2e <memcmp+0x16>
    2a26:	41 50       	subi	r20, 0x01	; 1
    2a28:	50 40       	sbci	r21, 0x00	; 0
    2a2a:	c8 f7       	brcc	.-14     	; 0x2a1e <memcmp+0x6>
    2a2c:	88 1b       	sub	r24, r24
    2a2e:	99 0b       	sbc	r25, r25
    2a30:	08 95       	ret

00002a32 <_exit>:
    2a32:	f8 94       	cli

00002a34 <__stop_program>:
    2a34:	ff cf       	rjmp	.-2      	; 0x2a34 <__stop_program>
