   1               		.file	"sdisk2.c"
   2               	__SREG__ = 0x3f
   3               	__SP_H__ = 0x3e
   4               	__SP_L__ = 0x3d
   5               	__CCP__ = 0x34
   6               	__tmp_reg__ = 0
   7               	__zero_reg__ = 1
  15               	.Ltext0:
  16               	.global	lcd_port
  18               	lcd_port:
  19               	.LFB5:
  20               	.LM1:
  21               	.LVL0:
  22               	/* prologue: function */
  23               	/* frame size = 0 */
  24               	/* stack size = 0 */
  25               	.L__stack_usage = 0
  26               	.LM2:
  27 0000 4598      		cbi 40-32,5
  28               	.LM3:
  29 0002 80FF      		sbrs r24,0
  30 0004 00C0      		rjmp .L2
  31               	.LM4:
  32 0006 419A      		sbi 40-32,1
  33               	.LM5:
  34 0008 81FF      		sbrs r24,1
  35 000a 00C0      		rjmp .L4
  36               	.L12:
  37 000c 439A      		sbi 40-32,3
  38               	.LM6:
  39 000e 82FF      		sbrs r24,2
  40 0010 00C0      		rjmp .L6
  41               	.L13:
  42 0012 5C9A      		sbi 43-32,4
  43               	.LM7:
  44 0014 83FD      		sbrc r24,3
  45 0016 00C0      		rjmp .L11
  46               	.L8:
  47               	.LM8:
  48 0018 5D98      		cbi 43-32,5
  49               	.L9:
  50               	.LM9:
  51 001a 459A      		sbi 40-32,5
  52               	.LVL1:
  53               	.LBB48:
  54               	.LBB49:
  55               	.LM10:
  56 001c 88E0      		 ldi r24,lo8(8)
  57 001e 8A95      	    1:dec r24
  58 0020 01F4      	    brne 1b
  59               	.LVL2:
  60 0022 0000      		nop
  61               	.LBE49:
  62               	.LBE48:
  63               	.LM11:
  64 0024 4598      		cbi 40-32,5
  65               	.LVL3:
  66               	.LBB50:
  67               	.LBB51:
  68               	.LM12:
  69 0026 88E0      		 ldi r24,lo8(8)
  70 0028 8A95      	    1:dec r24
  71 002a 01F4      	    brne 1b
  72 002c 0000      		nop
  73               	/* epilogue start */
  74               	.LBE51:
  75               	.LBE50:
  76               	.LM13:
  77 002e 0895      		ret
  78               	.LVL4:
  79               	.L2:
  80               	.LM14:
  81 0030 4198      		cbi 40-32,1
  82               	.LM15:
  83 0032 81FD      		sbrc r24,1
  84 0034 00C0      		rjmp .L12
  85               	.L4:
  86 0036 4398      		cbi 40-32,3
  87               	.LM16:
  88 0038 82FD      		sbrc r24,2
  89 003a 00C0      		rjmp .L13
  90               	.L6:
  91 003c 5C98      		cbi 43-32,4
  92               	.LM17:
  93 003e 83FF      		sbrs r24,3
  94 0040 00C0      		rjmp .L8
  95               	.L11:
  96               	.LM18:
  97 0042 5D9A      		sbi 43-32,5
  98 0044 00C0      		rjmp .L9
  99               	.LFE5:
 101               	.global	lcd_cmd
 103               	lcd_cmd:
 104               	.LFB6:
 105               	.LM19:
 106               	.LVL5:
 107 0046 1F93      		push r17
 108               	/* prologue: function */
 109               	/* frame size = 0 */
 110               	/* stack size = 1 */
 111               	.L__stack_usage = 1
 112 0048 182F      		mov r17,r24
 113               	.LM20:
 114 004a 599A      		sbi 43-32,1
 115               	.LM21:
 116 004c 4498      		cbi 40-32,4
 117               	.LM22:
 118 004e 8295      		swap r24
 119               	.LVL6:
 120 0050 8F70      		andi r24,lo8(15)
 121 0052 0E94 0000 		call lcd_port
 122               	.LM23:
 123 0056 812F      		mov r24,r17
 124 0058 8F70      		andi r24,lo8(15)
 125 005a 0E94 0000 		call lcd_port
 126               	.LM24:
 127 005e 1C7F      		andi r17,lo8(-4)
 128               	.LVL7:
 129 0060 01F4      		brne .L17
 130               	.LVL8:
 131               	.LBB52:
 132               	.LBB53:
 133               	.LM25:
 134 0062 80E8      		 ldi r24,lo8(10624)
 135 0064 99E2      	    ldi r25,hi8(10624)
 136 0066 0197      	    1:sbiw r24,1
 137 0068 01F4      	    brne 1b
 138 006a 00C0      		rjmp .
 139 006c 0000      		nop
 140               	/* epilogue start */
 141               	.LBE53:
 142               	.LBE52:
 143               	.LM26:
 144 006e 1F91      		pop r17
 145 0070 0895      		ret
 146               	.LVL9:
 147               	.L17:
 148               	.LBB54:
 149               	.LBB55:
 150               	.LM27:
 151 0072 86E7      		 ldi r24,lo8(374)
 152 0074 91E0      	    ldi r25,hi8(374)
 153 0076 0197      	    1:sbiw r24,1
 154 0078 01F4      	    brne 1b
 155 007a 00C0      		rjmp .
 156 007c 0000      		nop
 157               	/* epilogue start */
 158               	.LBE55:
 159               	.LBE54:
 160               	.LM28:
 161 007e 1F91      		pop r17
 162 0080 0895      		ret
 163               	.LFE6:
 165               	.global	lcd_data
 167               	lcd_data:
 168               	.LFB7:
 169               	.LM29:
 170               	.LVL10:
 171 0082 1F93      		push r17
 172               	/* prologue: function */
 173               	/* frame size = 0 */
 174               	/* stack size = 1 */
 175               	.L__stack_usage = 1
 176 0084 182F      		mov r17,r24
 177               	.LM30:
 178 0086 599A      		sbi 43-32,1
 179               	.LM31:
 180 0088 449A      		sbi 40-32,4
 181               	.LM32:
 182 008a 8295      		swap r24
 183               	.LVL11:
 184 008c 8F70      		andi r24,lo8(15)
 185 008e 0E94 0000 		call lcd_port
 186               	.LM33:
 187 0092 812F      		mov r24,r17
 188 0094 8F70      		andi r24,lo8(15)
 189 0096 0E94 0000 		call lcd_port
 190               	.LVL12:
 191               	.LBB56:
 192               	.LBB57:
 193               	.LM34:
 194 009a 80E7      		 ldi r24,lo8(624)
 195 009c 92E0      	    ldi r25,hi8(624)
 196 009e 0197      	    1:sbiw r24,1
 197 00a0 01F4      	    brne 1b
 198 00a2 00C0      		rjmp .
 199 00a4 0000      		nop
 200               	/* epilogue start */
 201               	.LBE57:
 202               	.LBE56:
 203               	.LM35:
 204 00a6 1F91      		pop r17
 205               	.LVL13:
 206 00a8 0895      		ret
 207               	.LFE7:
 209               	.global	lcd_init
 211               	lcd_init:
 212               	.LFB8:
 213               	.LM36:
 214               	/* prologue: function */
 215               	/* frame size = 0 */
 216               	/* stack size = 0 */
 217               	.L__stack_usage = 0
 218               	.LM37:
 219 00aa 4498      		cbi 40-32,4
 220               	.LVL14:
 221               	.LBB58:
 222               	.LBB59:
 223               	.LM38:
 224 00ac 8FE8      		 ldi r24,lo8(249999)
 225 00ae 90ED      	    ldi r25,hi8(249999)
 226 00b0 A3E0      	    ldi r26,hlo8(249999)
 227 00b2 8150      	    1:subi r24,1
 228 00b4 9040      	    sbci r25,0
 229 00b6 A040      	    sbci r26,0
 230 00b8 01F4      	    brne 1b
 231 00ba 00C0      		rjmp .
 232 00bc 0000      		nop
 233               	.LBE59:
 234               	.LBE58:
 235               	.LM39:
 236 00be 83E0      		ldi r24,lo8(3)
 237 00c0 0E94 0000 		call lcd_port
 238               	.LVL15:
 239               	.LBB60:
 240               	.LBB61:
 241               	.LM40:
 242 00c4 A1E1      		 ldi r26,lo8(31249)
 243 00c6 BAE7      	    ldi r27,hi8(31249)
 244 00c8 1197      	    1:sbiw r26,1
 245 00ca 01F4      	    brne 1b
 246 00cc 00C0      		rjmp .
 247 00ce 0000      		nop
 248               	.LBE61:
 249               	.LBE60:
 250               	.LM41:
 251 00d0 83E0      		ldi r24,lo8(3)
 252 00d2 0E94 0000 		call lcd_port
 253               	.LVL16:
 254               	.LBB62:
 255               	.LBB63:
 256               	.LM42:
 257 00d6 81E1      		 ldi r24,lo8(31249)
 258 00d8 9AE7      	    ldi r25,hi8(31249)
 259 00da 0197      	    1:sbiw r24,1
 260 00dc 01F4      	    brne 1b
 261 00de 00C0      		rjmp .
 262 00e0 0000      		nop
 263               	.LBE63:
 264               	.LBE62:
 265               	.LM43:
 266 00e2 83E0      		ldi r24,lo8(3)
 267 00e4 0E94 0000 		call lcd_port
 268               	.LVL17:
 269               	.LBB64:
 270               	.LBB65:
 271               	.LM44:
 272 00e8 A1E1      		 ldi r26,lo8(31249)
 273 00ea BAE7      	    ldi r27,hi8(31249)
 274 00ec 1197      	    1:sbiw r26,1
 275 00ee 01F4      	    brne 1b
 276 00f0 00C0      		rjmp .
 277 00f2 0000      		nop
 278               	.LBE65:
 279               	.LBE64:
 280               	.LM45:
 281 00f4 82E0      		ldi r24,lo8(2)
 282 00f6 0E94 0000 		call lcd_port
 283               	.LVL18:
 284               	.LBB66:
 285               	.LBB67:
 286               	.LM46:
 287 00fa 81E1      		 ldi r24,lo8(31249)
 288 00fc 9AE7      	    ldi r25,hi8(31249)
 289 00fe 0197      	    1:sbiw r24,1
 290 0100 01F4      	    brne 1b
 291 0102 00C0      		rjmp .
 292 0104 0000      		nop
 293               	.LBE67:
 294               	.LBE66:
 295               	.LM47:
 296 0106 88E2      		ldi r24,lo8(40)
 297 0108 0E94 0000 		call lcd_cmd
 298               	.LM48:
 299 010c 88E0      		ldi r24,lo8(8)
 300 010e 0E94 0000 		call lcd_cmd
 301               	.LM49:
 302 0112 81E0      		ldi r24,lo8(1)
 303 0114 0E94 0000 		call lcd_cmd
 304               	.LM50:
 305 0118 82E0      		ldi r24,lo8(2)
 306 011a 0E94 0000 		call lcd_cmd
 307               	.LM51:
 308 011e 86E0      		ldi r24,lo8(6)
 309 0120 0E94 0000 		call lcd_cmd
 310               	.LM52:
 311 0124 8CE0      		ldi r24,lo8(12)
 312 0126 0E94 0000 		call lcd_cmd
 313               	/* epilogue start */
 314               	.LM53:
 315 012a 0895      		ret
 316               	.LFE8:
 318               	.global	lcd_clear
 320               	lcd_clear:
 321               	.LFB9:
 322               	.LM54:
 323               	/* prologue: function */
 324               	/* frame size = 0 */
 325               	/* stack size = 0 */
 326               	.L__stack_usage = 0
 327               	.LM55:
 328 012c 81E0      		ldi r24,lo8(1)
 329 012e 0E94 0000 		call lcd_cmd
 330               	.LM56:
 331 0132 82E0      		ldi r24,lo8(2)
 332 0134 0E94 0000 		call lcd_cmd
 333               	/* epilogue start */
 334               	.LM57:
 335 0138 0895      		ret
 336               	.LFE9:
 338               	.global	lcd_gotoxy
 340               	lcd_gotoxy:
 341               	.LFB10:
 342               	.LM58:
 343               	.LVL19:
 344               	/* prologue: function */
 345               	/* frame size = 0 */
 346               	/* stack size = 0 */
 347               	.L__stack_usage = 0
 348               	.LM59:
 349 013a 8F70      		andi r24,lo8(15)
 350               	.LVL20:
 351               	.LM60:
 352 013c 60FF      		sbrs r22,0
 353 013e 00C0      		rjmp .L24
 354               	.LM61:
 355 0140 8054      		subi r24,lo8(-(-64))
 356               	.LVL21:
 357 0142 0E94 0000 		call lcd_cmd
 358               	.LVL22:
 359 0146 0895      		ret
 360               	.LVL23:
 361               	.L24:
 362               	.LM62:
 363 0148 8058      		subi r24,lo8(-(-128))
 364               	.LVL24:
 365 014a 0E94 0000 		call lcd_cmd
 366               	.LVL25:
 367 014e 0895      		ret
 368               	.LFE10:
 370               	.global	lcd_char
 372               	lcd_char:
 373               	.LFB11:
 374               	.LM63:
 375               	.LVL26:
 376               	/* prologue: function */
 377               	/* frame size = 0 */
 378               	/* stack size = 0 */
 379               	.L__stack_usage = 0
 380               	.LM64:
 381 0150 0E94 0000 		call lcd_data
 382               	.LVL27:
 383               	/* epilogue start */
 384               	.LM65:
 385 0154 0895      		ret
 386               	.LFE11:
 388               	.global	lcd_puts
 390               	lcd_puts:
 391               	.LFB12:
 392               	.LM66:
 393               	.LVL28:
 394 0156 CF93      		push r28
 395 0158 DF93      		push r29
 396               	/* prologue: function */
 397               	/* frame size = 0 */
 398               	/* stack size = 2 */
 399               	.L__stack_usage = 2
 400 015a EC01      		movw r28,r24
 401               	.LM67:
 402 015c 8881      		ld r24,Y
 403               	.LVL29:
 404 015e 8823      		tst r24
 405 0160 01F0      		breq .L26
 406 0162 2196      		adiw r28,1
 407               	.LVL30:
 408               	.L28:
 409               	.LBB68:
 410               	.LBB69:
 411               	.LM68:
 412 0164 0E94 0000 		call lcd_data
 413               	.LVL31:
 414               	.LBE69:
 415               	.LBE68:
 416               	.LM69:
 417 0168 8991      		ld r24,Y+
 418               	.LVL32:
 419 016a 8823      		tst r24
 420 016c 01F4      		brne .L28
 421               	.LVL33:
 422               	.L26:
 423               	/* epilogue start */
 424               	.LM70:
 425 016e DF91      		pop r29
 426 0170 CF91      		pop r28
 427 0172 0895      		ret
 428               	.LFE12:
 430               	.global	lcd_puts_p
 432               	lcd_puts_p:
 433               	.LFB13:
 434               	.LM71:
 435               	.LVL34:
 436 0174 CF93      		push r28
 437 0176 DF93      		push r29
 438               	/* prologue: function */
 439               	/* frame size = 0 */
 440               	/* stack size = 2 */
 441               	.L__stack_usage = 2
 442 0178 EC01      		movw r28,r24
 443               	.LVL35:
 444               	.LBB70:
 445               	.LM72:
 446 017a FC01      		movw r30,r24
 447               	/* #APP */
 448               	 ;  341 "sdisk2.c" 1
 449 017c 8491      		lpm r24, Z
 450               		
 451               	 ;  0 "" 2
 452               	.LVL36:
 453               	/* #NOAPP */
 454               	.LBE70:
 455 017e 8823      		tst r24
 456 0180 01F0      		breq .L30
 457               	.LBB71:
 458 0182 2196      		adiw r28,1
 459               	.LVL37:
 460               	.L32:
 461               	.LBE71:
 462               	.LBB72:
 463               	.LBB73:
 464               	.LM73:
 465 0184 0E94 0000 		call lcd_data
 466               	.LVL38:
 467 0188 FE01      		movw r30,r28
 468               	.LVL39:
 469               	.LBE73:
 470               	.LBE72:
 471               	.LBB74:
 472               	.LM74:
 473 018a 2196      		adiw r28,1
 474               	.LVL40:
 475               	/* #APP */
 476               	 ;  341 "sdisk2.c" 1
 477 018c 8491      		lpm r24, Z
 478               		
 479               	 ;  0 "" 2
 480               	.LVL41:
 481               	/* #NOAPP */
 482               	.LBE74:
 483 018e 8823      		tst r24
 484 0190 01F4      		brne .L32
 485               	.LVL42:
 486               	.L30:
 487               	/* epilogue start */
 488               	.LM75:
 489 0192 DF91      		pop r29
 490 0194 CF91      		pop r28
 491 0196 0895      		ret
 492               	.LFE13:
 494               	.global	dispStr
 496               	dispStr:
 497               	.LFB14:
 498               	.LM76:
 499               	.LVL43:
 500 0198 1F93      		push r17
 501 019a CF93      		push r28
 502 019c DF93      		push r29
 503               	/* prologue: function */
 504               	/* frame size = 0 */
 505               	/* stack size = 3 */
 506               	.L__stack_usage = 3
 507 019e EC01      		movw r28,r24
 508               	.LM77:
 509 01a0 6623      		tst r22
 510 01a2 01F4      		brne .L35
 511               	.LM78:
 512 01a4 0E94 0000 		call lcd_clear
 513               	.LVL44:
 514               	.LM79:
 515 01a8 80E0      		ldi r24,lo8(0)
 516 01aa 61E0      		ldi r22,lo8(1)
 517 01ac 0E94 0000 		call lcd_gotoxy
 518               	.LM80:
 519 01b0 80E0      		ldi r24,lo8(MSG3)
 520 01b2 90E0      		ldi r25,hi8(MSG3)
 521 01b4 0E94 0000 		call lcd_puts_p
 522               	.L36:
 523               	.LVL45:
 524               	.LM81:
 525 01b8 18E0      		ldi r17,lo8(8)
 526               	.LVL46:
 527               	.L37:
 528               	.LBB75:
 529               	.LBB76:
 530               	.LM82:
 531 01ba 8991      		ld r24,Y+
 532               	.LVL47:
 533 01bc 0E94 0000 		call lcd_data
 534               	.LVL48:
 535 01c0 1150      		subi r17,lo8(-(-1))
 536               	.LBE76:
 537               	.LBE75:
 538               	.LM83:
 539 01c2 01F4      		brne .L37
 540               	/* epilogue start */
 541               	.LM84:
 542 01c4 DF91      		pop r29
 543 01c6 CF91      		pop r28
 544               	.LVL49:
 545 01c8 1F91      		pop r17
 546 01ca 0895      		ret
 547               	.LVL50:
 548               	.L35:
 549               	.LM85:
 550 01cc 80E0      		ldi r24,lo8(0)
 551               	.LVL51:
 552 01ce 61E0      		ldi r22,lo8(1)
 553               	.LVL52:
 554 01d0 0E94 0000 		call lcd_gotoxy
 555               	.LM86:
 556 01d4 80E0      		ldi r24,lo8(MSG4)
 557 01d6 90E0      		ldi r25,hi8(MSG4)
 558 01d8 0E94 0000 		call lcd_puts_p
 559 01dc 00C0      		rjmp .L36
 560               	.LFE14:
 562               	.global	buffClear
 564               	buffClear:
 565               	.LFB15:
 566               	.LM87:
 567               	/* prologue: function */
 568               	/* frame size = 0 */
 569               	/* stack size = 0 */
 570               	.L__stack_usage = 0
 571               	.LVL53:
 572               	.LM88:
 573 01de 20E0      		ldi r18,lo8(0)
 574 01e0 30E0      		ldi r19,hi8(0)
 575 01e2 4EE5      		ldi r20,lo8(350)
 576 01e4 51E0      		ldi r21,hi8(350)
 577               	.LVL54:
 578               	.L40:
 579               	.LM89:
 580 01e6 249F      		mul r18,r20
 581 01e8 F001      		movw r30,r0
 582 01ea 259F      		mul r18,r21
 583 01ec F00D      		add r31,r0
 584 01ee 349F      		mul r19,r20
 585 01f0 F00D      		add r31,r0
 586 01f2 1124      		clr r1
 587 01f4 E050      		subi r30,lo8(-(writeData))
 588 01f6 F040      		sbci r31,hi8(-(writeData))
 589 01f8 80E0      		ldi r24,lo8(0)
 590 01fa 90E0      		ldi r25,hi8(0)
 591               	.LVL55:
 592               	.L41:
 593               	.LM90:
 594 01fc 1192      		st Z+,__zero_reg__
 595               	.LM91:
 596 01fe 0196      		adiw r24,1
 597               	.LVL56:
 598 0200 61E0      		ldi r22,hi8(350)
 599 0202 8E35      		cpi r24,lo8(350)
 600 0204 9607      		cpc r25,r22
 601 0206 01F4      		brne .L41
 602               	.LM92:
 603 0208 2F5F      		subi r18,lo8(-(1))
 604 020a 3F4F      		sbci r19,hi8(-(1))
 605               	.LM93:
 606 020c 2530      		cpi r18,5
 607 020e 3105      		cpc r19,__zero_reg__
 608 0210 01F4      		brne .L40
 609               	.LM94:
 610 0212 8FEF      		ldi r24,lo8(-1)
 611               	.LVL57:
 612 0214 8093 0000 		sts tracks,r24
 613 0218 8093 0000 		sts sectors,r24
 614               	.LVL58:
 615 021c 8093 0000 		sts tracks+1,r24
 616 0220 8093 0000 		sts sectors+1,r24
 617               	.LVL59:
 618 0224 8093 0000 		sts tracks+2,r24
 619 0228 8093 0000 		sts sectors+2,r24
 620               	.LVL60:
 621 022c 8093 0000 		sts tracks+3,r24
 622 0230 8093 0000 		sts sectors+3,r24
 623               	.LVL61:
 624 0234 8093 0000 		sts tracks+4,r24
 625 0238 8093 0000 		sts sectors+4,r24
 626               	.LVL62:
 627               	/* epilogue start */
 628               	.LM95:
 629 023c 0895      		ret
 630               	.LFE15:
 632               	.global	cancelRead
 634               	cancelRead:
 635               	.LFB16:
 636               	.LM96:
 637               	/* prologue: function */
 638               	/* frame size = 0 */
 639               	/* stack size = 0 */
 640               	.L__stack_usage = 0
 641               	.LM97:
 642 023e 8091 0000 		lds r24,bitbyte
 643 0242 9091 0000 		lds r25,bitbyte+1
 644 0246 2CE0      		ldi r18,hi8(3216)
 645 0248 8039      		cpi r24,lo8(3216)
 646 024a 9207      		cpc r25,r18
 647 024c 00F4      		brsh .L44
 648               	.LM98:
 649 024e 20ED      		ldi r18,lo8(-48)
 650 0250 2BB9      		out 43-32,r18
 651               	.LVL63:
 652               	.LM99:
 653 0252 40E1      		ldi r20,hi8(4112)
 654 0254 8031      		cpi r24,lo8(4112)
 655 0256 9407      		cpc r25,r20
 656 0258 00F4      		brsh .L46
 657               	.LM100:
 658 025a 4B99      		sbic 41-32,3
 659 025c 00C0      		rjmp .L52
 660               	.LM101:
 661 025e 30EF      		ldi r19,lo8(-16)
 662               	.LM102:
 663 0260 20ED      		ldi r18,lo8(-48)
 664 0262 00C0      		rjmp .L51
 665               	.LVL64:
 666               	.L49:
 667               	.LM103:
 668 0264 4B99      		sbic 41-32,3
 669 0266 00C0      		rjmp .L53
 670               	.L51:
 671               	.LM104:
 672 0268 3BB9      		out 43-32,r19
 673               	.LM105:
 674 026a 2BB9      		out 43-32,r18
 675               	.LM106:
 676 026c 0196      		adiw r24,1
 677               	.LVL65:
 678 026e 40E1      		ldi r20,hi8(4112)
 679 0270 8031      		cpi r24,lo8(4112)
 680 0272 9407      		cpc r25,r20
 681 0274 00F0      		brlo .L49
 682               	.L46:
 683               	.LM107:
 684 0276 80E9      		ldi r24,lo8(3216)
 685 0278 9CE0      		ldi r25,hi8(3216)
 686               	.LVL66:
 687 027a 9093 0000 		sts bitbyte+1,r25
 688 027e 8093 0000 		sts bitbyte,r24
 689               	.L44:
 690 0282 0895      		ret
 691               	.LVL67:
 692               	.L53:
 693 0284 0895      		ret
 694               	.LVL68:
 695               	.L52:
 696 0286 0895      		ret
 697               	.LFE16:
 699               	.global	writeByteSlow
 701               	writeByteSlow:
 702               	.LFB17:
 703               	.LM108:
 704               	.LVL69:
 705 0288 CF92      		push r12
 706 028a DF92      		push r13
 707 028c EF92      		push r14
 708 028e FF92      		push r15
 709 0290 0F93      		push r16
 710 0292 1F93      		push r17
 711 0294 CF93      		push r28
 712 0296 DF93      		push r29
 713               	/* prologue: function */
 714               	/* frame size = 0 */
 715               	/* stack size = 8 */
 716               	.L__stack_usage = 8
 717 0298 082F      		mov r16,r24
 718               	.LVL70:
 719               	.LM109:
 720 029a C8E0      		ldi r28,lo8(8)
 721 029c D0E0      		ldi r29,hi8(8)
 722               	.LM110:
 723 029e 10E8      		ldi r17,lo8(-128)
 724               	.LM111:
 725 02a0 30EC      		ldi r19,lo8(-64)
 726 02a2 C32E      		mov r12,r19
 727               	.LM112:
 728 02a4 20EE      		ldi r18,lo8(-32)
 729 02a6 D22E      		mov r13,r18
 730               	.LM113:
 731 02a8 90ED      		ldi r25,lo8(-48)
 732 02aa E92E      		mov r14,r25
 733               	.LM114:
 734 02ac 80EF      		ldi r24,lo8(-16)
 735 02ae F82E      		mov r15,r24
 736               	.LVL71:
 737 02b0 00C0      		rjmp .L57
 738               	.LVL72:
 739               	.L60:
 740               	.LM115:
 741 02b2 EBB8      		out 43-32,r14
 742               	.LM116:
 743 02b4 81E0      		ldi r24,lo8(1)
 744 02b6 90E0      		ldi r25,hi8(1)
 745 02b8 0E94 0000 		call wait5
 746               	.LM117:
 747 02bc FBB8      		out 43-32,r15
 748               	.LM118:
 749 02be 81E0      		ldi r24,lo8(1)
 750 02c0 90E0      		ldi r25,hi8(1)
 751 02c2 0E94 0000 		call wait5
 752               	.LM119:
 753 02c6 1695      		lsr r17
 754               	.LVL73:
 755 02c8 2197      		sbiw r28,1
 756 02ca 01F0      		breq .L59
 757               	.LVL74:
 758               	.L57:
 759               	.LM120:
 760 02cc 812F      		mov r24,r17
 761 02ce 8023      		and r24,r16
 762 02d0 01F4      		brne .L60
 763               	.LM121:
 764 02d2 CBB8      		out 43-32,r12
 765               	.LM122:
 766 02d4 81E0      		ldi r24,lo8(1)
 767 02d6 90E0      		ldi r25,hi8(1)
 768 02d8 0E94 0000 		call wait5
 769               	.LM123:
 770 02dc DBB8      		out 43-32,r13
 771               	.LM124:
 772 02de 81E0      		ldi r24,lo8(1)
 773 02e0 90E0      		ldi r25,hi8(1)
 774 02e2 0E94 0000 		call wait5
 775               	.LM125:
 776 02e6 1695      		lsr r17
 777               	.LVL75:
 778 02e8 2197      		sbiw r28,1
 779 02ea 01F4      		brne .L57
 780               	.L59:
 781               	.LM126:
 782 02ec 80EC      		ldi r24,lo8(-64)
 783 02ee 8BB9      		out 43-32,r24
 784               	/* epilogue start */
 785               	.LM127:
 786 02f0 DF91      		pop r29
 787 02f2 CF91      		pop r28
 788 02f4 1F91      		pop r17
 789               	.LVL76:
 790 02f6 0F91      		pop r16
 791               	.LVL77:
 792 02f8 FF90      		pop r15
 793 02fa EF90      		pop r14
 794 02fc DF90      		pop r13
 795 02fe CF90      		pop r12
 796 0300 0895      		ret
 797               	.LFE17:
 799               	.global	writeByteFast
 801               	writeByteFast:
 802               	.LFB18:
 803               	.LM128:
 804               	.LVL78:
 805               	/* prologue: function */
 806               	/* frame size = 0 */
 807               	/* stack size = 0 */
 808               	.L__stack_usage = 0
 809               	.LM129:
 810 0302 28E0      		ldi r18,lo8(8)
 811 0304 30E0      		ldi r19,hi8(8)
 812               	.LM130:
 813 0306 90E8      		ldi r25,lo8(-128)
 814               	.LM131:
 815 0308 E0EC      		ldi r30,lo8(-64)
 816               	.LM132:
 817 030a 70EE      		ldi r23,lo8(-32)
 818               	.LM133:
 819 030c 60ED      		ldi r22,lo8(-48)
 820               	.LM134:
 821 030e 50EF      		ldi r21,lo8(-16)
 822 0310 00C0      		rjmp .L64
 823               	.LVL79:
 824               	.L67:
 825               	.LM135:
 826 0312 6BB9      		out 43-32,r22
 827               	.LM136:
 828 0314 5BB9      		out 43-32,r21
 829               	.LM137:
 830 0316 9695      		lsr r25
 831               	.LVL80:
 832 0318 2150      		subi r18,lo8(-(-1))
 833 031a 3040      		sbci r19,hi8(-(-1))
 834 031c 01F0      		breq .L66
 835               	.LVL81:
 836               	.L64:
 837               	.LM138:
 838 031e 492F      		mov r20,r25
 839 0320 4823      		and r20,r24
 840 0322 01F4      		brne .L67
 841               	.LM139:
 842 0324 EBB9      		out 43-32,r30
 843               	.LM140:
 844 0326 7BB9      		out 43-32,r23
 845               	.LM141:
 846 0328 9695      		lsr r25
 847               	.LVL82:
 848 032a 2150      		subi r18,lo8(-(-1))
 849 032c 3040      		sbci r19,hi8(-(-1))
 850 032e 01F4      		brne .L64
 851               	.L66:
 852               	.LM142:
 853 0330 80EC      		ldi r24,lo8(-64)
 854               	.LVL83:
 855 0332 8BB9      		out 43-32,r24
 856               	/* epilogue start */
 857               	.LM143:
 858 0334 0895      		ret
 859               	.LFE18:
 861               	.global	readByteSlow
 863               	readByteSlow:
 864               	.LFB19:
 865               	.LM144:
 866 0336 FF92      		push r15
 867 0338 0F93      		push r16
 868 033a 1F93      		push r17
 869 033c DF93      		push r29
 870 033e CF93      		push r28
 871 0340 0F92      		push __tmp_reg__
 872 0342 CDB7      		in r28,__SP_L__
 873 0344 DEB7      		in r29,__SP_H__
 874               	/* prologue: function */
 875               	/* frame size = 1 */
 876               	/* stack size = 6 */
 877               	.L__stack_usage = 6
 878               	.LVL84:
 879               	.LM145:
 880 0346 80ED      		ldi r24,lo8(-48)
 881 0348 8BB9      		out 43-32,r24
 882               	.LM146:
 883 034a 81E0      		ldi r24,lo8(1)
 884 034c 90E0      		ldi r25,hi8(1)
 885 034e 0E94 0000 		call wait5
 886               	.LM147:
 887 0352 1982      		std Y+1,__zero_reg__
 888               	.LVL85:
 889 0354 8981      		ldd r24,Y+1
 890 0356 8830      		cpi r24,lo8(8)
 891 0358 01F0      		breq .L71
 892               	.LM148:
 893 035a 10E0      		ldi r17,lo8(0)
 894               	.LM149:
 895 035c 40EF      		ldi r20,lo8(-16)
 896 035e F42E      		mov r15,r20
 897               	.LM150:
 898 0360 00ED      		ldi r16,lo8(-48)
 899               	.LVL86:
 900               	.L70:
 901               	.LM151:
 902 0362 FBB8      		out 43-32,r15
 903               	.LM152:
 904 0364 81E0      		ldi r24,lo8(1)
 905 0366 90E0      		ldi r25,hi8(1)
 906 0368 0E94 0000 		call wait5
 907               	.LM153:
 908 036c 89B1      		in r24,41-32
 909 036e 110F      		lsl r17
 910 0370 8170      		andi r24,lo8(1)
 911 0372 182B      		or r17,r24
 912               	.LVL87:
 913               	.LM154:
 914 0374 0BB9      		out 43-32,r16
 915               	.LM155:
 916 0376 81E0      		ldi r24,lo8(1)
 917 0378 90E0      		ldi r25,hi8(1)
 918 037a 0E94 0000 		call wait5
 919               	.LM156:
 920 037e 8981      		ldd r24,Y+1
 921 0380 8F5F      		subi r24,lo8(-(1))
 922               	.LVL88:
 923 0382 8983      		std Y+1,r24
 924               	.LVL89:
 925 0384 8981      		ldd r24,Y+1
 926               	.LVL90:
 927 0386 8830      		cpi r24,lo8(8)
 928 0388 01F4      		brne .L70
 929               	.LVL91:
 930               	.L69:
 931               	.LM157:
 932 038a 812F      		mov r24,r17
 933               	/* epilogue start */
 934 038c 0F90      		pop __tmp_reg__
 935 038e CF91      		pop r28
 936 0390 DF91      		pop r29
 937 0392 1F91      		pop r17
 938 0394 0F91      		pop r16
 939 0396 FF90      		pop r15
 940 0398 0895      		ret
 941               	.LVL92:
 942               	.L71:
 943               	.LM158:
 944 039a 10E0      		ldi r17,lo8(0)
 945 039c 00C0      		rjmp .L69
 946               	.LFE19:
 948               	.global	readByteFast
 950               	readByteFast:
 951               	.LFB20:
 952               	.LM159:
 953 039e DF93      		push r29
 954 03a0 CF93      		push r28
 955 03a2 0F92      		push __tmp_reg__
 956 03a4 CDB7      		in r28,__SP_L__
 957 03a6 DEB7      		in r29,__SP_H__
 958               	/* prologue: function */
 959               	/* frame size = 1 */
 960               	/* stack size = 3 */
 961               	.L__stack_usage = 3
 962               	.LVL93:
 963               	.LM160:
 964 03a8 80ED      		ldi r24,lo8(-48)
 965 03aa 8BB9      		out 43-32,r24
 966               	.LM161:
 967 03ac 1982      		std Y+1,__zero_reg__
 968               	.LVL94:
 969 03ae 8981      		ldd r24,Y+1
 970 03b0 8830      		cpi r24,lo8(8)
 971 03b2 01F0      		breq .L76
 972               	.LM162:
 973 03b4 80E0      		ldi r24,lo8(0)
 974               	.LM163:
 975 03b6 30EF      		ldi r19,lo8(-16)
 976               	.LM164:
 977 03b8 20ED      		ldi r18,lo8(-48)
 978               	.LVL95:
 979               	.L75:
 980               	.LM165:
 981 03ba 3BB9      		out 43-32,r19
 982               	.LM166:
 983 03bc 99B1      		in r25,41-32
 984 03be 880F      		lsl r24
 985 03c0 9170      		andi r25,lo8(1)
 986 03c2 892B      		or r24,r25
 987               	.LVL96:
 988               	.LM167:
 989 03c4 2BB9      		out 43-32,r18
 990               	.LM168:
 991 03c6 9981      		ldd r25,Y+1
 992 03c8 9F5F      		subi r25,lo8(-(1))
 993               	.LVL97:
 994 03ca 9983      		std Y+1,r25
 995               	.LVL98:
 996 03cc 9981      		ldd r25,Y+1
 997               	.LVL99:
 998 03ce 9830      		cpi r25,lo8(8)
 999 03d0 01F4      		brne .L75
 1000               	.LVL100:
 1001               	.L74:
 1002               	/* epilogue start */
 1003               	.LM169:
 1004 03d2 0F90      		pop __tmp_reg__
 1005 03d4 CF91      		pop r28
 1006 03d6 DF91      		pop r29
 1007 03d8 0895      		ret
 1008               	.LVL101:
 1009               	.L76:
 1010               	.LM170:
 1011 03da 80E0      		ldi r24,lo8(0)
 1012 03dc 00C0      		rjmp .L74
 1013               	.LFE20:
 1015               	.global	waitFinish
 1017               	waitFinish:
 1018               	.LFB21:
 1019               	.LM171:
 1020               	/* prologue: function */
 1021               	/* frame size = 0 */
 1022               	/* stack size = 0 */
 1023               	.L__stack_usage = 0
 1024               	.L80:
 1025               	.LM172:
 1026 03de 0E94 0000 		call readByteFast
 1027               	.LVL102:
 1028               	.LM173:
 1029 03e2 4B99      		sbic 41-32,3
 1030 03e4 00C0      		rjmp .L78
 1031               	.LM174:
 1032 03e6 8F3F      		cpi r24,lo8(-1)
 1033 03e8 01F4      		brne .L80
 1034               	.L78:
 1035 03ea 0895      		ret
 1036               	.LFE21:
 1038               	.global	cmd_
 1040               	cmd_:
 1041               	.LFB22:
 1042               	.LM175:
 1043               	.LVL103:
 1044 03ec 1F93      		push r17
 1045 03ee DF93      		push r29
 1046 03f0 CF93      		push r28
 1047 03f2 00D0      		rcall .
 1048 03f4 00D0      		rcall .
 1049 03f6 CDB7      		in r28,__SP_L__
 1050 03f8 DEB7      		in r29,__SP_H__
 1051               	/* prologue: function */
 1052               	/* frame size = 4 */
 1053               	/* stack size = 7 */
 1054               	.L__stack_usage = 7
 1055 03fa 182F      		mov r17,r24
 1056               	.LM176:
 1057 03fc 8FEF      		ldi r24,lo8(-1)
 1058               	.LVL104:
 1059 03fe 4C83      		std Y+4,r20
 1060 0400 5B83      		std Y+3,r21
 1061 0402 6A83      		std Y+2,r22
 1062 0404 7983      		std Y+1,r23
 1063 0406 0E94 0000 		call writeByteSlow
 1064               	.LVL105:
 1065               	.LM177:
 1066 040a 812F      		mov r24,r17
 1067 040c 805C      		subi r24,lo8(-(64))
 1068 040e 0E94 0000 		call writeByteSlow
 1069               	.LM178:
 1070 0412 7981      		ldd r23,Y+1
 1071 0414 872F      		mov r24,r23
 1072 0416 0E94 0000 		call writeByteSlow
 1073               	.LM179:
 1074 041a 6A81      		ldd r22,Y+2
 1075 041c 862F      		mov r24,r22
 1076 041e 0E94 0000 		call writeByteSlow
 1077               	.LM180:
 1078 0422 5B81      		ldd r21,Y+3
 1079 0424 852F      		mov r24,r21
 1080 0426 0E94 0000 		call writeByteSlow
 1081               	.LM181:
 1082 042a 4C81      		ldd r20,Y+4
 1083 042c 842F      		mov r24,r20
 1084 042e 0E94 0000 		call writeByteSlow
 1085               	.LM182:
 1086 0432 85E9      		ldi r24,lo8(-107)
 1087 0434 0E94 0000 		call writeByteSlow
 1088               	.LM183:
 1089 0438 8FEF      		ldi r24,lo8(-1)
 1090 043a 0E94 0000 		call writeByteSlow
 1091               	/* epilogue start */
 1092               	.LM184:
 1093 043e 0F90      		pop __tmp_reg__
 1094 0440 0F90      		pop __tmp_reg__
 1095 0442 0F90      		pop __tmp_reg__
 1096 0444 0F90      		pop __tmp_reg__
 1097 0446 CF91      		pop r28
 1098 0448 DF91      		pop r29
 1099 044a 1F91      		pop r17
 1100               	.LVL106:
 1101 044c 0895      		ret
 1102               	.LFE22:
 1104               	.global	getRespSlow
 1106               	getRespSlow:
 1107               	.LFB24:
 1108               	.LM185:
 1109               	/* prologue: function */
 1110               	/* frame size = 0 */
 1111               	/* stack size = 0 */
 1112               	.L__stack_usage = 0
 1113               	.L85:
 1114               	.LM186:
 1115 044e 0E94 0000 		call readByteSlow
 1116               	.LVL107:
 1117               	.LM187:
 1118 0452 4B99      		sbic 41-32,3
 1119 0454 00C0      		rjmp .L86
 1120               	.LM188:
 1121 0456 87FD      		sbrc r24,7
 1122 0458 00C0      		rjmp .L85
 1123 045a 0895      		ret
 1124               	.L86:
 1125               	.LM189:
 1126 045c 8FEF      		ldi r24,lo8(-1)
 1127               	.LVL108:
 1128               	.LM190:
 1129 045e 0895      		ret
 1130               	.LFE24:
 1132               	.global	getRespFast
 1134               	getRespFast:
 1135               	.LFB25:
 1136               	.LM191:
 1137               	/* prologue: function */
 1138               	/* frame size = 0 */
 1139               	/* stack size = 0 */
 1140               	.L__stack_usage = 0
 1141               	.L90:
 1142               	.LM192:
 1143 0460 0E94 0000 		call readByteFast
 1144               	.LVL109:
 1145               	.LM193:
 1146 0464 4B99      		sbic 41-32,3
 1147 0466 00C0      		rjmp .L91
 1148               	.LM194:
 1149 0468 87FD      		sbrc r24,7
 1150 046a 00C0      		rjmp .L90
 1151 046c 0895      		ret
 1152               	.L91:
 1153               	.LM195:
 1154 046e 8FEF      		ldi r24,lo8(-1)
 1155               	.LVL110:
 1156               	.LM196:
 1157 0470 0895      		ret
 1158               	.LFE25:
 1160               	.global	cmdFast
 1162               	cmdFast:
 1163               	.LFB23:
 1164               	.LM197:
 1165               	.LVL111:
 1166 0472 DF92      		push r13
 1167 0474 EF92      		push r14
 1168 0476 FF92      		push r15
 1169 0478 0F93      		push r16
 1170 047a 1F93      		push r17
 1171               	/* prologue: function */
 1172               	/* frame size = 0 */
 1173               	/* stack size = 5 */
 1174               	.L__stack_usage = 5
 1175               	.LM198:
 1176 047c E0E4      		ldi r30,lo8(64)
 1177 047e DE2E      		mov r13,r30
 1178 0480 D80E      		add r13,r24
 1179 0482 E72E      		mov r14,r23
 1180 0484 F62E      		mov r15,r22
 1181 0486 052F      		mov r16,r21
 1182 0488 142F      		mov r17,r20
 1183               	.LVL112:
 1184               	.L95:
 1185               	.LM199:
 1186 048a 8FEF      		ldi r24,lo8(-1)
 1187 048c 0E94 0000 		call writeByteFast
 1188               	.LM200:
 1189 0490 8D2D      		mov r24,r13
 1190 0492 0E94 0000 		call writeByteFast
 1191               	.LM201:
 1192 0496 8E2D      		mov r24,r14
 1193 0498 0E94 0000 		call writeByteFast
 1194               	.LM202:
 1195 049c 8F2D      		mov r24,r15
 1196 049e 0E94 0000 		call writeByteFast
 1197               	.LM203:
 1198 04a2 802F      		mov r24,r16
 1199 04a4 0E94 0000 		call writeByteFast
 1200               	.LM204:
 1201 04a8 812F      		mov r24,r17
 1202 04aa 0E94 0000 		call writeByteFast
 1203               	.LM205:
 1204 04ae 85E9      		ldi r24,lo8(-107)
 1205 04b0 0E94 0000 		call writeByteFast
 1206               	.LM206:
 1207 04b4 8FEF      		ldi r24,lo8(-1)
 1208 04b6 0E94 0000 		call writeByteFast
 1209               	.LM207:
 1210 04ba 0E94 0000 		call getRespFast
 1211               	.LVL113:
 1212 04be 8823      		tst r24
 1213 04c0 01F0      		breq .L93
 1214 04c2 8F3F      		cpi r24,lo8(-1)
 1215 04c4 01F4      		brne .L95
 1216               	.L93:
 1217               	/* epilogue start */
 1218               	.LM208:
 1219 04c6 1F91      		pop r17
 1220 04c8 0F91      		pop r16
 1221 04ca FF90      		pop r15
 1222 04cc EF90      		pop r14
 1223 04ce DF90      		pop r13
 1224 04d0 0895      		ret
 1225               	.LFE23:
 1227               	.global	cmd17Fast
 1229               	cmd17Fast:
 1230               	.LFB26:
 1231               	.LM209:
 1232               	.LVL114:
 1233               	/* prologue: function */
 1234               	/* frame size = 0 */
 1235               	/* stack size = 0 */
 1236               	.L__stack_usage = 0
 1237 04d2 AB01      		movw r20,r22
 1238 04d4 BC01      		movw r22,r24
 1239               	.LM210:
 1240 04d6 81E1      		ldi r24,lo8(17)
 1241 04d8 0E94 0000 		call cmdFast
 1242               	.LVL115:
 1243 04dc 00C0      		rjmp .L99
 1244               	.LVL116:
 1245               	.L101:
 1246               	.LM211:
 1247 04de 8E3F      		cpi r24,lo8(-2)
 1248 04e0 01F0      		breq .L97
 1249               	.LVL117:
 1250               	.L99:
 1251               	.LM212:
 1252 04e2 0E94 0000 		call readByteFast
 1253               	.LVL118:
 1254               	.LM213:
 1255 04e6 4B9B      		sbis 41-32,3
 1256 04e8 00C0      		rjmp .L101
 1257               	.L97:
 1258 04ea 0895      		ret
 1259               	.LFE26:
 1261               	.global	getFileName
 1263               	getFileName:
 1264               	.LFB27:
 1265               	.LM214:
 1266               	.LVL119:
 1267 04ec 0F93      		push r16
 1268 04ee 1F93      		push r17
 1269 04f0 CF93      		push r28
 1270 04f2 DF93      		push r29
 1271               	/* prologue: function */
 1272               	/* frame size = 0 */
 1273               	/* stack size = 4 */
 1274               	.L__stack_usage = 4
 1275 04f4 8C01      		movw r16,r24
 1276 04f6 EB01      		movw r28,r22
 1277               	.LM215:
 1278 04f8 80E1      		ldi r24,lo8(16)
 1279               	.LVL120:
 1280 04fa 48E0      		ldi r20,lo8(8)
 1281 04fc 50E0      		ldi r21,hi8(8)
 1282 04fe 60E0      		ldi r22,hlo8(8)
 1283 0500 70E0      		ldi r23,hhi8(8)
 1284 0502 0E94 0000 		call cmdFast
 1285               	.LVL121:
 1286               	.LM216:
 1287 0506 000F      		lsl r16
 1288 0508 111F      		rol r17
 1289 050a 0295      		swap r16
 1290 050c 1295      		swap r17
 1291 050e 107F      		andi r17,0xf0
 1292 0510 1027      		eor r17,r16
 1293 0512 007F      		andi r16,0xf0
 1294 0514 1027      		eor r17,r16
 1295               	.LVL122:
 1296 0516 B801      		movw r22,r16
 1297 0518 80E0      		ldi r24,lo8(0)
 1298 051a 90E0      		ldi r25,hi8(0)
 1299 051c 2091 0000 		lds r18,rootAddr
 1300 0520 3091 0000 		lds r19,rootAddr+1
 1301 0524 4091 0000 		lds r20,rootAddr+2
 1302 0528 5091 0000 		lds r21,rootAddr+3
 1303 052c 620F      		add r22,r18
 1304 052e 731F      		adc r23,r19
 1305 0530 841F      		adc r24,r20
 1306 0532 951F      		adc r25,r21
 1307 0534 0E94 0000 		call cmd17Fast
 1308               	.LVL123:
 1309 0538 08E0      		ldi r16,lo8(8)
 1310               	.LVL124:
 1311               	.L103:
 1312               	.LM217:
 1313 053a 0E94 0000 		call readByteFast
 1314 053e 8993      		st Y+,r24
 1315               	.LVL125:
 1316 0540 0150      		subi r16,lo8(-(-1))
 1317 0542 01F4      		brne .L103
 1318               	.LM218:
 1319 0544 0E94 0000 		call readByteFast
 1320 0548 0E94 0000 		call readByteFast
 1321               	/* epilogue start */
 1322               	.LM219:
 1323 054c DF91      		pop r29
 1324 054e CF91      		pop r28
 1325               	.LVL126:
 1326 0550 1F91      		pop r17
 1327 0552 0F91      		pop r16
 1328 0554 0895      		ret
 1329               	.LFE27:
 1331               	.global	findExt
 1333               	findExt:
 1334               	.LFB28:
 1335               	.LM220:
 1336               	.LVL127:
 1337 0556 2F92      		push r2
 1338 0558 3F92      		push r3
 1339 055a 4F92      		push r4
 1340 055c 5F92      		push r5
 1341 055e 6F92      		push r6
 1342 0560 7F92      		push r7
 1343 0562 8F92      		push r8
 1344 0564 9F92      		push r9
 1345 0566 AF92      		push r10
 1346 0568 BF92      		push r11
 1347 056a CF92      		push r12
 1348 056c DF92      		push r13
 1349 056e EF92      		push r14
 1350 0570 FF92      		push r15
 1351 0572 0F93      		push r16
 1352 0574 1F93      		push r17
 1353 0576 DF93      		push r29
 1354 0578 CF93      		push r28
 1355 057a CDB7      		in r28,__SP_L__
 1356 057c DEB7      		in r29,__SP_H__
 1357 057e 6897      		sbiw r28,24
 1358 0580 0FB6      		in __tmp_reg__,__SREG__
 1359 0582 F894      		cli
 1360 0584 DEBF      		out __SP_H__,r29
 1361 0586 0FBE      		out __SREG__,__tmp_reg__
 1362 0588 CDBF      		out __SP_L__,r28
 1363               	/* prologue: function */
 1364               	/* frame size = 24 */
 1365               	/* stack size = 42 */
 1366               	.L__stack_usage = 42
 1367 058a 1C01      		movw r2,r24
 1368 058c 2B01      		movw r4,r22
 1369 058e 5B8B      		std Y+19,r21
 1370 0590 4A8B      		std Y+18,r20
 1371 0592 2E8B      		std Y+22,r18
 1372               	.LVL128:
 1373               	.LM221:
 1374 0594 EE24      		clr r14
 1375 0596 FF24      		clr r15
 1376 0598 8701      		movw r16,r14
 1377               	.LM222:
 1378 059a 1D8A      		std Y+21,__zero_reg__
 1379 059c 1C8A      		std Y+20,__zero_reg__
 1380 059e 188E      		std Y+24,__zero_reg__
 1381 05a0 1F8A      		std Y+23,__zero_reg__
 1382               	.LM223:
 1383 05a2 40E0      		ldi r20,lo8(512)
 1384 05a4 52E0      		ldi r21,hi8(512)
 1385               	.LVL129:
 1386 05a6 598B      		std Y+17,r21
 1387 05a8 488B      		std Y+16,r20
 1388               	.LM224:
 1389 05aa CC24      		clr r12
 1390 05ac DD24      		clr r13
 1391               	.LBB77:
 1392               	.LM225:
 1393 05ae 98E0      		ldi r25,lo8(8)
 1394 05b0 692E      		mov r6,r25
 1395 05b2 712C      		mov r7,__zero_reg__
 1396 05b4 6C0E      		add r6,r28
 1397 05b6 7D1E      		adc r7,r29
 1398               	.LM226:
 1399 05b8 88E0      		ldi r24,lo8(8)
 1400 05ba 882E      		mov r8,r24
 1401 05bc 912C      		mov r9,__zero_reg__
 1402               	.LVL130:
 1403 05be 860C      		add r8,r6
 1404 05c0 971C      		adc r9,r7
 1405               	.LVL131:
 1406               	.L114:
 1407               	.LM227:
 1408 05c2 4B99      		sbic 41-32,3
 1409 05c4 00C0      		rjmp .L117
 1410               	.LM228:
 1411 05c6 80E1      		ldi r24,lo8(16)
 1412 05c8 41E0      		ldi r20,lo8(1)
 1413 05ca 50E0      		ldi r21,hi8(1)
 1414 05cc 60E0      		ldi r22,hlo8(1)
 1415 05ce 70E0      		ldi r23,hhi8(1)
 1416 05d0 0E94 0000 		call cmdFast
 1417               	.LM229:
 1418 05d4 6091 0000 		lds r22,rootAddr
 1419 05d8 7091 0000 		lds r23,rootAddr+1
 1420 05dc 8091 0000 		lds r24,rootAddr+2
 1421 05e0 9091 0000 		lds r25,rootAddr+3
 1422 05e4 6E0D      		add r22,r14
 1423 05e6 7F1D      		adc r23,r15
 1424 05e8 801F      		adc r24,r16
 1425 05ea 911F      		adc r25,r17
 1426 05ec 0E94 0000 		call cmd17Fast
 1427               	.LM230:
 1428 05f0 0E94 0000 		call readByteFast
 1429 05f4 A82E      		mov r10,r24
 1430               	.LVL132:
 1431               	.LM231:
 1432 05f6 0E94 0000 		call readByteFast
 1433               	.LVL133:
 1434 05fa 0E94 0000 		call readByteFast
 1435               	.LM232:
 1436 05fe AA20      		tst r10
 1437 0600 01F4      		brne .+2
 1438 0602 00C0      		rjmp .L107
 1439               	.LM233:
 1440 0604 5A2D      		mov r21,r10
 1441 0606 5530      		cpi r21,lo8(5)
 1442 0608 01F4      		brne .+2
 1443 060a 00C0      		rjmp .L107
 1444               	.LM234:
 1445 060c 5E32      		cpi r21,lo8(46)
 1446 060e 01F4      		brne .+2
 1447 0610 00C0      		rjmp .L107
 1448 0612 553E      		cpi r21,lo8(-27)
 1449 0614 01F4      		brne .+2
 1450 0616 00C0      		rjmp .L107
 1451               	.LM235:
 1452 0618 8A2D      		mov r24,r10
 1453 061a 8154      		subi r24,lo8(-(-65))
 1454 061c 8A31      		cpi r24,lo8(26)
 1455 061e 00F0      		brlo .L108
 1456               	.LM236:
 1457 0620 8F5E      		subi r24,lo8(-(17))
 1458 0622 8A30      		cpi r24,lo8(10)
 1459 0624 00F0      		brlo .+2
 1460 0626 00C0      		rjmp .L107
 1461               	.L108:
 1462               	.LM237:
 1463 0628 6091 0000 		lds r22,rootAddr
 1464 062c 7091 0000 		lds r23,rootAddr+1
 1465 0630 8091 0000 		lds r24,rootAddr+2
 1466 0634 9091 0000 		lds r25,rootAddr+3
 1467 0638 655F      		subi r22,lo8(-(11))
 1468 063a 7F4F      		sbci r23,hi8(-(11))
 1469 063c 8F4F      		sbci r24,hlo8(-(11))
 1470 063e 9F4F      		sbci r25,hhi8(-(11))
 1471 0640 6E0D      		add r22,r14
 1472 0642 7F1D      		adc r23,r15
 1473 0644 801F      		adc r24,r16
 1474 0646 911F      		adc r25,r17
 1475 0648 0E94 0000 		call cmd17Fast
 1476               	.LM238:
 1477 064c 0E94 0000 		call readByteFast
 1478 0650 A82E      		mov r10,r24
 1479               	.LVL134:
 1480               	.LM239:
 1481 0652 0E94 0000 		call readByteFast
 1482               	.LVL135:
 1483 0656 0E94 0000 		call readByteFast
 1484               	.LM240:
 1485 065a 8A2D      		mov r24,r10
 1486 065c 8E71      		andi r24,lo8(30)
 1487 065e 01F0      		breq .+2
 1488 0660 00C0      		rjmp .L107
 1489               	.LM241:
 1490 0662 8A2D      		mov r24,r10
 1491 0664 8F30      		cpi r24,lo8(15)
 1492 0666 01F4      		brne .+2
 1493 0668 00C0      		rjmp .L107
 1494               	.LM242:
 1495 066a 80E1      		ldi r24,lo8(16)
 1496 066c 4CE0      		ldi r20,lo8(12)
 1497 066e 50E0      		ldi r21,hi8(12)
 1498 0670 60E0      		ldi r22,hlo8(12)
 1499 0672 70E0      		ldi r23,hhi8(12)
 1500 0674 0E94 0000 		call cmdFast
 1501               	.LM243:
 1502 0678 6091 0000 		lds r22,rootAddr
 1503 067c 7091 0000 		lds r23,rootAddr+1
 1504 0680 8091 0000 		lds r24,rootAddr+2
 1505 0684 9091 0000 		lds r25,rootAddr+3
 1506 0688 6E0D      		add r22,r14
 1507 068a 7F1D      		adc r23,r15
 1508 068c 801F      		adc r24,r16
 1509 068e 911F      		adc r25,r17
 1510 0690 0E94 0000 		call cmd17Fast
 1511               	.LVL136:
 1512 0694 5301      		movw r10,r6
 1513               	.LVL137:
 1514               	.L109:
 1515               	.LM244:
 1516 0696 0E94 0000 		call readByteFast
 1517 069a D501      		movw r26,r10
 1518 069c 8D93      		st X+,r24
 1519 069e 5D01      		movw r10,r26
 1520 06a0 A815      		cp r26,r8
 1521 06a2 B905      		cpc r27,r9
 1522 06a4 01F4      		brne .L109
 1523               	.LVL138:
 1524               	.LM245:
 1525 06a6 0E94 0000 		call readByteFast
 1526 06aa 8D83      		std Y+5,r24
 1527               	.LVL139:
 1528 06ac 0E94 0000 		call readByteFast
 1529 06b0 8E83      		std Y+6,r24
 1530               	.LVL140:
 1531 06b2 0E94 0000 		call readByteFast
 1532 06b6 8F83      		std Y+7,r24
 1533               	.LVL141:
 1534               	.LM246:
 1535 06b8 4114      		cp r4,__zero_reg__
 1536 06ba 5104      		cpc r5,__zero_reg__
 1537 06bc 01F4      		brne .+2
 1538 06be 00C0      		rjmp .L110
 1539               	.LM247:
 1540 06c0 0E94 0000 		call readByteFast
 1541 06c4 8170      		andi r24,lo8(1)
 1542 06c6 880F      		lsl r24
 1543 06c8 880F      		lsl r24
 1544 06ca 880F      		lsl r24
 1545 06cc F201      		movw r30,r4
 1546 06ce 8083      		st Z,r24
 1547               	.L111:
 1548               	.LM248:
 1549 06d0 0E94 0000 		call readByteFast
 1550 06d4 0E94 0000 		call readByteFast
 1551               	.LM249:
 1552 06d8 80E1      		ldi r24,lo8(16)
 1553 06da 44E0      		ldi r20,lo8(4)
 1554 06dc 50E0      		ldi r21,hi8(4)
 1555 06de 60E0      		ldi r22,hlo8(4)
 1556 06e0 70E0      		ldi r23,hhi8(4)
 1557 06e2 0E94 0000 		call cmdFast
 1558               	.LM250:
 1559 06e6 6091 0000 		lds r22,rootAddr
 1560 06ea 7091 0000 		lds r23,rootAddr+1
 1561 06ee 8091 0000 		lds r24,rootAddr+2
 1562 06f2 9091 0000 		lds r25,rootAddr+3
 1563 06f6 6A5E      		subi r22,lo8(-(22))
 1564 06f8 7F4F      		sbci r23,hi8(-(22))
 1565 06fa 8F4F      		sbci r24,hlo8(-(22))
 1566 06fc 9F4F      		sbci r25,hhi8(-(22))
 1567 06fe 6E0D      		add r22,r14
 1568 0700 7F1D      		adc r23,r15
 1569 0702 801F      		adc r24,r16
 1570 0704 911F      		adc r25,r17
 1571 0706 0E94 0000 		call cmd17Fast
 1572               	.LM251:
 1573 070a 0E94 0000 		call readByteFast
 1574 070e 8983      		std Y+1,r24
 1575               	.LM252:
 1576 0710 0E94 0000 		call readByteFast
 1577 0714 8A83      		std Y+2,r24
 1578               	.LM253:
 1579 0716 0E94 0000 		call readByteFast
 1580 071a 8B83      		std Y+3,r24
 1581               	.LM254:
 1582 071c 0E94 0000 		call readByteFast
 1583 0720 8C83      		std Y+4,r24
 1584               	.LM255:
 1585 0722 0E94 0000 		call readByteFast
 1586 0726 0E94 0000 		call readByteFast
 1587               	.LM256:
 1588 072a CE01      		movw r24,r28
 1589 072c 0596      		adiw r24,5
 1590 072e B101      		movw r22,r2
 1591 0730 43E0      		ldi r20,lo8(3)
 1592 0732 50E0      		ldi r21,hi8(3)
 1593 0734 0E94 0000 		call memcmp
 1594 0738 0097      		sbiw r24,0
 1595 073a 01F4      		brne .L107
 1596               	.LM257:
 1597 073c FE89      		ldd r31,Y+22
 1598 073e FF23      		tst r31
 1599 0740 01F0      		breq .+2
 1600 0742 00C0      		rjmp .L122
 1601               	.L112:
 1602               	.LBB78:
 1603               	.LM258:
 1604 0744 2981      		ldd r18,Y+1
 1605 0746 3A81      		ldd r19,Y+2
 1606               	.LVL142:
 1607               	.LM259:
 1608 0748 8B81      		ldd r24,Y+3
 1609 074a 9C81      		ldd r25,Y+4
 1610               	.LVL143:
 1611               	.LM260:
 1612 074c AC89      		ldd r26,Y+20
 1613 074e BD89      		ldd r27,Y+21
 1614 0750 A817      		cp r26,r24
 1615 0752 B907      		cpc r27,r25
 1616 0754 00F4      		brsh .+2
 1617 0756 00C0      		rjmp .L113
 1618               	.LM261:
 1619 0758 8A17      		cp r24,r26
 1620 075a 9B07      		cpc r25,r27
 1621 075c 01F4      		brne .+2
 1622 075e 00C0      		rjmp .L123
 1623               	.LVL144:
 1624               	.L107:
 1625               	.LBE78:
 1626               	.LBE77:
 1627               	.LM262:
 1628 0760 0894      		sec
 1629 0762 C11C      		adc r12,__zero_reg__
 1630 0764 D11C      		adc r13,__zero_reg__
 1631               	.LVL145:
 1632 0766 80E2      		ldi r24,lo8(32)
 1633 0768 90E0      		ldi r25,hi8(32)
 1634 076a A0E0      		ldi r26,hlo8(32)
 1635 076c B0E0      		ldi r27,hhi8(32)
 1636 076e E80E      		add r14,r24
 1637 0770 F91E      		adc r15,r25
 1638 0772 0A1F      		adc r16,r26
 1639 0774 1B1F      		adc r17,r27
 1640 0776 90E0      		ldi r25,lo8(512)
 1641 0778 C916      		cp r12,r25
 1642 077a 92E0      		ldi r25,hi8(512)
 1643 077c D906      		cpc r13,r25
 1644 077e 01F0      		breq .+2
 1645 0780 00C0      		rjmp .L114
 1646               	.LM263:
 1647 0782 A889      		ldd r26,Y+16
 1648 0784 B989      		ldd r27,Y+17
 1649 0786 E2E0      		ldi r30,hi8(512)
 1650 0788 A030      		cpi r26,lo8(512)
 1651 078a BE07      		cpc r27,r30
 1652 078c 01F0      		breq .L115
 1653               	.LM264:
 1654 078e 4A89      		ldd r20,Y+18
 1655 0790 5B89      		ldd r21,Y+19
 1656 0792 4115      		cp r20,__zero_reg__
 1657 0794 5105      		cpc r21,__zero_reg__
 1658 0796 01F0      		breq .L115
 1659 0798 5E89      		ldd r21,Y+22
 1660 079a 5523      		tst r21
 1661 079c 01F4      		brne .+2
 1662 079e 00C0      		rjmp .L124
 1663               	.LVL146:
 1664               	.L115:
 1665               	.LM265:
 1666 07a0 2889      		ldd r18,Y+16
 1667 07a2 3989      		ldd r19,Y+17
 1668 07a4 00C0      		rjmp .L106
 1669               	.LVL147:
 1670               	.L117:
 1671               	.LBB80:
 1672               	.LM266:
 1673 07a6 20E0      		ldi r18,lo8(512)
 1674 07a8 32E0      		ldi r19,hi8(512)
 1675               	.L106:
 1676               	.LBE80:
 1677               	.LM267:
 1678 07aa C901      		movw r24,r18
 1679               	/* epilogue start */
 1680 07ac 6896      		adiw r28,24
 1681               	.LVL148:
 1682 07ae 0FB6      		in __tmp_reg__,__SREG__
 1683 07b0 F894      		cli
 1684 07b2 DEBF      		out __SP_H__,r29
 1685 07b4 0FBE      		out __SREG__,__tmp_reg__
 1686 07b6 CDBF      		out __SP_L__,r28
 1687               	.LVL149:
 1688 07b8 CF91      		pop r28
 1689 07ba DF91      		pop r29
 1690               	.LVL150:
 1691 07bc 1F91      		pop r17
 1692 07be 0F91      		pop r16
 1693 07c0 FF90      		pop r15
 1694 07c2 EF90      		pop r14
 1695 07c4 DF90      		pop r13
 1696 07c6 CF90      		pop r12
 1697 07c8 BF90      		pop r11
 1698 07ca AF90      		pop r10
 1699 07cc 9F90      		pop r9
 1700 07ce 8F90      		pop r8
 1701 07d0 7F90      		pop r7
 1702 07d2 6F90      		pop r6
 1703 07d4 5F90      		pop r5
 1704 07d6 4F90      		pop r4
 1705               	.LVL151:
 1706 07d8 3F90      		pop r3
 1707 07da 2F90      		pop r2
 1708               	.LVL152:
 1709 07dc 0895      		ret
 1710               	.LVL153:
 1711               	.L122:
 1712               	.LBB81:
 1713               	.LM268:
 1714 07de 4A89      		ldd r20,Y+18
 1715 07e0 5B89      		ldd r21,Y+19
 1716 07e2 4115      		cp r20,__zero_reg__
 1717 07e4 5105      		cpc r21,__zero_reg__
 1718 07e6 01F4      		brne .+2
 1719 07e8 00C0      		rjmp .L107
 1720 07ea C301      		movw r24,r6
 1721 07ec BA01      		movw r22,r20
 1722 07ee 48E0      		ldi r20,lo8(8)
 1723 07f0 50E0      		ldi r21,hi8(8)
 1724 07f2 0E94 0000 		call memcmp
 1725 07f6 0097      		sbiw r24,0
 1726 07f8 01F0      		breq .+2
 1727 07fa 00C0      		rjmp .L107
 1728 07fc 00C0      		rjmp .L112
 1729               	.L110:
 1730               	.LM269:
 1731 07fe 0E94 0000 		call readByteFast
 1732 0802 00C0      		rjmp .L111
 1733               	.LVL154:
 1734               	.L123:
 1735               	.LBB79:
 1736               	.LM270:
 1737 0804 EF89      		ldd r30,Y+23
 1738 0806 F88D      		ldd r31,Y+24
 1739 0808 2E17      		cp r18,r30
 1740 080a 3F07      		cpc r19,r31
 1741 080c 00F4      		brsh .+2
 1742 080e 00C0      		rjmp .L107
 1743               	.L113:
 1744               	.LVL155:
 1745               	.LM271:
 1746 0810 D98A      		std Y+17,r13
 1747 0812 C88A      		std Y+16,r12
 1748               	.LVL156:
 1749               	.LM272:
 1750 0814 9D8B      		std Y+21,r25
 1751 0816 8C8B      		std Y+20,r24
 1752               	.LM273:
 1753 0818 388F      		std Y+24,r19
 1754 081a 2F8B      		std Y+23,r18
 1755 081c 00C0      		rjmp .L107
 1756               	.LVL157:
 1757               	.L124:
 1758               	.LBE79:
 1759               	.LBE81:
 1760               	.LBB82:
 1761               	.LM274:
 1762 081e 80E1      		ldi r24,lo8(16)
 1763 0820 48E0      		ldi r20,lo8(8)
 1764 0822 50E0      		ldi r21,hi8(8)
 1765 0824 60E0      		ldi r22,hlo8(8)
 1766 0826 70E0      		ldi r23,hhi8(8)
 1767 0828 0E94 0000 		call cmdFast
 1768               	.LVL158:
 1769               	.LM275:
 1770 082c 6889      		ldd r22,Y+16
 1771 082e 7989      		ldd r23,Y+17
 1772 0830 660F      		lsl r22
 1773 0832 771F      		rol r23
 1774 0834 6295      		swap r22
 1775 0836 7295      		swap r23
 1776 0838 707F      		andi r23,0xf0
 1777 083a 7627      		eor r23,r22
 1778 083c 607F      		andi r22,0xf0
 1779 083e 7627      		eor r23,r22
 1780 0840 80E0      		ldi r24,lo8(0)
 1781 0842 90E0      		ldi r25,hi8(0)
 1782 0844 2091 0000 		lds r18,rootAddr
 1783 0848 3091 0000 		lds r19,rootAddr+1
 1784 084c 4091 0000 		lds r20,rootAddr+2
 1785 0850 5091 0000 		lds r21,rootAddr+3
 1786 0854 620F      		add r22,r18
 1787 0856 731F      		adc r23,r19
 1788 0858 841F      		adc r24,r20
 1789 085a 951F      		adc r25,r21
 1790 085c 0E94 0000 		call cmd17Fast
 1791               	.LVL159:
 1792 0860 EA88      		ldd r14,Y+18
 1793 0862 FB88      		ldd r15,Y+19
 1794 0864 A8E0      		ldi r26,lo8(8)
 1795 0866 CA2E      		mov r12,r26
 1796               	.LVL160:
 1797               	.L116:
 1798               	.LM276:
 1799 0868 0E94 0000 		call readByteFast
 1800 086c D701      		movw r26,r14
 1801 086e 8D93      		st X+,r24
 1802 0870 7D01      		movw r14,r26
 1803 0872 CA94      		dec r12
 1804 0874 01F4      		brne .L116
 1805               	.LM277:
 1806 0876 0E94 0000 		call readByteFast
 1807 087a 0E94 0000 		call readByteFast
 1808 087e 00C0      		rjmp .L115
 1809               	.LBE82:
 1810               	.LFE28:
 1812               	.global	prepareFat
 1814               	prepareFat:
 1815               	.LFB29:
 1816               	.LM278:
 1817               	.LVL161:
 1818 0880 4F92      		push r4
 1819 0882 5F92      		push r5
 1820 0884 6F92      		push r6
 1821 0886 7F92      		push r7
 1822 0888 8F92      		push r8
 1823 088a 9F92      		push r9
 1824 088c AF92      		push r10
 1825 088e BF92      		push r11
 1826 0890 CF92      		push r12
 1827 0892 DF92      		push r13
 1828 0894 EF92      		push r14
 1829 0896 FF92      		push r15
 1830 0898 0F93      		push r16
 1831 089a 1F93      		push r17
 1832 089c CF93      		push r28
 1833 089e DF93      		push r29
 1834               	/* prologue: function */
 1835               	/* frame size = 0 */
 1836               	/* stack size = 16 */
 1837               	.L__stack_usage = 16
 1838 08a0 EC01      		movw r28,r24
 1839 08a2 2B01      		movw r4,r22
 1840 08a4 4A01      		movw r8,r20
 1841 08a6 F22E      		mov r15,r18
 1842 08a8 702E      		mov r7,r16
 1843               	.LM279:
 1844 08aa 4B9B      		sbis 41-32,3
 1845 08ac 00C0      		rjmp .L132
 1846               	.LVL162:
 1847               	.L125:
 1848               	/* epilogue start */
 1849               	.LM280:
 1850 08ae DF91      		pop r29
 1851 08b0 CF91      		pop r28
 1852 08b2 1F91      		pop r17
 1853 08b4 0F91      		pop r16
 1854 08b6 FF90      		pop r15
 1855               	.LVL163:
 1856 08b8 EF90      		pop r14
 1857 08ba DF90      		pop r13
 1858 08bc CF90      		pop r12
 1859 08be BF90      		pop r11
 1860 08c0 AF90      		pop r10
 1861 08c2 9F90      		pop r9
 1862 08c4 8F90      		pop r8
 1863               	.LVL164:
 1864 08c6 7F90      		pop r7
 1865               	.LVL165:
 1866 08c8 6F90      		pop r6
 1867 08ca 5F90      		pop r5
 1868 08cc 4F90      		pop r4
 1869               	.LVL166:
 1870 08ce 0895      		ret
 1871               	.LVL167:
 1872               	.L132:
 1873               	.LM281:
 1874 08d0 80E1      		ldi r24,lo8(16)
 1875               	.LVL168:
 1876 08d2 42E0      		ldi r20,lo8(2)
 1877 08d4 50E0      		ldi r21,hi8(2)
 1878 08d6 60E0      		ldi r22,hlo8(2)
 1879 08d8 70E0      		ldi r23,hhi8(2)
 1880 08da 0E94 0000 		call cmdFast
 1881               	.LM282:
 1882 08de 6091 0000 		lds r22,rootAddr
 1883 08e2 7091 0000 		lds r23,rootAddr+1
 1884 08e6 8091 0000 		lds r24,rootAddr+2
 1885 08ea 9091 0000 		lds r25,rootAddr+3
 1886 08ee 665E      		subi r22,lo8(-(26))
 1887 08f0 7F4F      		sbci r23,hi8(-(26))
 1888 08f2 8F4F      		sbci r24,hlo8(-(26))
 1889 08f4 9F4F      		sbci r25,hhi8(-(26))
 1890 08f6 9E01      		movw r18,r28
 1891 08f8 220F      		lsl r18
 1892 08fa 331F      		rol r19
 1893 08fc 2295      		swap r18
 1894 08fe 3295      		swap r19
 1895 0900 307F      		andi r19,0xf0
 1896 0902 3227      		eor r19,r18
 1897 0904 207F      		andi r18,0xf0
 1898 0906 3227      		eor r19,r18
 1899 0908 4427      		clr r20
 1900 090a 37FD      		sbrc r19,7
 1901 090c 4095      		com r20
 1902 090e 542F      		mov r21,r20
 1903 0910 620F      		add r22,r18
 1904 0912 731F      		adc r23,r19
 1905 0914 841F      		adc r24,r20
 1906 0916 951F      		adc r25,r21
 1907 0918 0E94 0000 		call cmd17Fast
 1908               	.LM283:
 1909 091c 0E94 0000 		call readByteFast
 1910 0920 C82F      		mov r28,r24
 1911               	.LVL169:
 1912 0922 D0E0      		ldi r29,lo8(0)
 1913               	.LVL170:
 1914               	.LM284:
 1915 0924 0E94 0000 		call readByteFast
 1916 0928 382F      		mov r19,r24
 1917 092a 20E0      		ldi r18,lo8(0)
 1918 092c C20F      		add r28,r18
 1919 092e D31F      		adc r29,r19
 1920               	.LVL171:
 1921               	.LM285:
 1922 0930 0E94 0000 		call readByteFast
 1923 0934 0E94 0000 		call readByteFast
 1924               	.LM286:
 1925 0938 FF20      		tst r15
 1926 093a 01F4      		brne .+2
 1927 093c 00C0      		rjmp .L133
 1928               	.L127:
 1929               	.LM287:
 1930 093e 00E0      		ldi r16,lo8(0)
 1931 0940 10E0      		ldi r17,hi8(0)
 1932               	.LM288:
 1933 0942 6624      		clr r6
 1934 0944 00C0      		rjmp .L128
 1935               	.LVL172:
 1936               	.L129:
 1937               	.LM289:
 1938 0946 FFEF      		ldi r31,hi8(-9)
 1939 0948 C73F      		cpi r28,lo8(-9)
 1940 094a DF07      		cpc r29,r31
 1941 094c 00F4      		brsh .L130
 1942               	.L134:
 1943               	.LM290:
 1944 094e FE14      		cp r15,r14
 1945 0950 00F0      		brlo .L130
 1946               	.LVL173:
 1947               	.L128:
 1948               	.LM291:
 1949 0952 0815      		cp r16,r8
 1950 0954 1905      		cpc r17,r9
 1951 0956 00F4      		brsh .L130
 1952               	.LM292:
 1953 0958 0F5F      		subi r16,lo8(-(1))
 1954 095a 1F4F      		sbci r17,hi8(-(1))
 1955               	.LVL174:
 1956 095c C801      		movw r24,r16
 1957 095e 672D      		mov r22,r7
 1958 0960 762D      		mov r23,r6
 1959 0962 0E94 0000 		call __divmodhi4
 1960 0966 5C01      		movw r10,r24
 1961 0968 E62E      		mov r14,r22
 1962               	.LVL175:
 1963               	.LM293:
 1964 096a BE01      		movw r22,r28
 1965               	.LVL176:
 1966 096c 80E0      		ldi r24,lo8(0)
 1967 096e 90E0      		ldi r25,hi8(0)
 1968 0970 660F      		lsl r22
 1969 0972 771F      		rol r23
 1970 0974 881F      		rol r24
 1971 0976 991F      		rol r25
 1972 0978 2091 0000 		lds r18,fatAddr
 1973 097c 3091 0000 		lds r19,fatAddr+1
 1974 0980 4091 0000 		lds r20,fatAddr+2
 1975 0984 5091 0000 		lds r21,fatAddr+3
 1976 0988 620F      		add r22,r18
 1977 098a 731F      		adc r23,r19
 1978 098c 841F      		adc r24,r20
 1979 098e 951F      		adc r25,r21
 1980 0990 0E94 0000 		call cmd17Fast
 1981               	.LM294:
 1982 0994 0E94 0000 		call readByteFast
 1983 0998 C82F      		mov r28,r24
 1984               	.LVL177:
 1985 099a D0E0      		ldi r29,lo8(0)
 1986               	.LVL178:
 1987               	.LM295:
 1988 099c 0E94 0000 		call readByteFast
 1989 09a0 D82E      		mov r13,r24
 1990 09a2 CC24      		clr r12
 1991 09a4 CC0D      		add r28,r12
 1992 09a6 DD1D      		adc r29,r13
 1993               	.LVL179:
 1994               	.LM296:
 1995 09a8 0E94 0000 		call readByteFast
 1996 09ac 0E94 0000 		call readByteFast
 1997               	.LM297:
 1998 09b0 EF14      		cp r14,r15
 1999 09b2 01F4      		brne .L129
 2000               	.LM298:
 2001 09b4 F501      		movw r30,r10
 2002 09b6 EE0F      		lsl r30
 2003 09b8 FF1F      		rol r31
 2004 09ba E40D      		add r30,r4
 2005 09bc F51D      		adc r31,r5
 2006 09be D183      		std Z+1,r29
 2007 09c0 C083      		st Z,r28
 2008               	.LM299:
 2009 09c2 FFEF      		ldi r31,hi8(-9)
 2010 09c4 C73F      		cpi r28,lo8(-9)
 2011 09c6 DF07      		cpc r29,r31
 2012 09c8 00F0      		brlo .L134
 2013               	.LVL180:
 2014               	.L130:
 2015               	.LM300:
 2016 09ca 80E1      		ldi r24,lo8(16)
 2017 09cc 40E0      		ldi r20,lo8(512)
 2018 09ce 52E0      		ldi r21,hi8(512)
 2019 09d0 60E0      		ldi r22,hlo8(512)
 2020 09d2 70E0      		ldi r23,hhi8(512)
 2021 09d4 0E94 0000 		call cmdFast
 2022 09d8 00C0      		rjmp .L125
 2023               	.L133:
 2024               	.LM301:
 2025 09da F201      		movw r30,r4
 2026 09dc D183      		std Z+1,r29
 2027 09de C083      		st Z,r28
 2028 09e0 00C0      		rjmp .L127
 2029               	.LFE29:
 2031               	.global	memcp
 2033               	memcp:
 2034               	.LFB30:
 2035               	.LM302:
 2036               	.LVL181:
 2037               	/* prologue: function */
 2038               	/* frame size = 0 */
 2039               	/* stack size = 0 */
 2040               	.L__stack_usage = 0
 2041               	.LM303:
 2042 09e2 4115      		cp r20,__zero_reg__
 2043 09e4 5105      		cpc r21,__zero_reg__
 2044 09e6 01F0      		breq .L135
 2045 09e8 A62F      		mov r26,r22
 2046 09ea B72F      		mov r27,r23
 2047 09ec E82F      		mov r30,r24
 2048 09ee F92F      		mov r31,r25
 2049 09f0 80E0      		ldi r24,lo8(0)
 2050 09f2 90E0      		ldi r25,hi8(0)
 2051               	.LVL182:
 2052               	.L137:
 2053               	.LM304:
 2054 09f4 2D91      		ld r18,X+
 2055 09f6 2193      		st Z+,r18
 2056 09f8 0196      		adiw r24,1
 2057               	.LVL183:
 2058 09fa 8417      		cp r24,r20
 2059 09fc 9507      		cpc r25,r21
 2060 09fe 00F0      		brlo .L137
 2061               	.LVL184:
 2062               	.L135:
 2063 0a00 0895      		ret
 2064               	.LFE30:
 2066               	.global	writeSD
 2068               	writeSD:
 2069               	.LFB31:
 2070               	.LM305:
 2071               	.LVL185:
 2072 0a02 4F92      		push r4
 2073 0a04 5F92      		push r5
 2074 0a06 6F92      		push r6
 2075 0a08 7F92      		push r7
 2076 0a0a 8F92      		push r8
 2077 0a0c 9F92      		push r9
 2078 0a0e AF92      		push r10
 2079 0a10 BF92      		push r11
 2080 0a12 CF92      		push r12
 2081 0a14 DF92      		push r13
 2082 0a16 EF92      		push r14
 2083 0a18 FF92      		push r15
 2084 0a1a 0F93      		push r16
 2085 0a1c 1F93      		push r17
 2086 0a1e CF93      		push r28
 2087 0a20 DF93      		push r29
 2088               	/* prologue: function */
 2089               	/* frame size = 0 */
 2090               	/* stack size = 16 */
 2091               	.L__stack_usage = 16
 2092 0a22 5B01      		movw r10,r22
 2093 0a24 6C01      		movw r12,r24
 2094 0a26 542E      		mov r5,r20
 2095 0a28 452E      		mov r4,r21
 2096 0a2a 8901      		movw r16,r18
 2097               	.LVL186:
 2098               	.LM306:
 2099 0a2c 4B9B      		sbis 41-32,3
 2100 0a2e 00C0      		rjmp .L148
 2101               	.LVL187:
 2102               	.L139:
 2103               	/* epilogue start */
 2104               	.LM307:
 2105 0a30 DF91      		pop r29
 2106 0a32 CF91      		pop r28
 2107 0a34 1F91      		pop r17
 2108 0a36 0F91      		pop r16
 2109               	.LVL188:
 2110 0a38 FF90      		pop r15
 2111 0a3a EF90      		pop r14
 2112 0a3c DF90      		pop r13
 2113 0a3e CF90      		pop r12
 2114 0a40 BF90      		pop r11
 2115 0a42 AF90      		pop r10
 2116               	.LVL189:
 2117 0a44 9F90      		pop r9
 2118 0a46 8F90      		pop r8
 2119 0a48 7F90      		pop r7
 2120 0a4a 6F90      		pop r6
 2121 0a4c 5F90      		pop r5
 2122 0a4e 4F90      		pop r4
 2123 0a50 0895      		ret
 2124               	.LVL190:
 2125               	.L148:
 2126               	.LM308:
 2127 0a52 80E1      		ldi r24,lo8(16)
 2128 0a54 40E0      		ldi r20,lo8(512)
 2129 0a56 52E0      		ldi r21,hi8(512)
 2130 0a58 60E0      		ldi r22,hlo8(512)
 2131 0a5a 70E0      		ldi r23,hhi8(512)
 2132               	.LVL191:
 2133 0a5c 0E94 0000 		call cmdFast
 2134               	.LM309:
 2135 0a60 612C      		mov r6,__zero_reg__
 2136 0a62 5EEF      		ldi r21,hi8(-512)
 2137 0a64 752E      		mov r7,r21
 2138 0a66 5FEF      		ldi r21,hlo8(-512)
 2139 0a68 852E      		mov r8,r21
 2140 0a6a 5FEF      		ldi r21,hhi8(-512)
 2141 0a6c 952E      		mov r9,r21
 2142 0a6e 6A20      		and r6,r10
 2143 0a70 7B20      		and r7,r11
 2144 0a72 8C20      		and r8,r12
 2145 0a74 9D20      		and r9,r13
 2146 0a76 C401      		movw r24,r8
 2147 0a78 B301      		movw r22,r6
 2148 0a7a 0E94 0000 		call cmd17Fast
 2149               	.LVL192:
 2150 0a7e C0E0      		ldi r28,lo8(writeData)
 2151 0a80 D0E0      		ldi r29,hi8(writeData)
 2152               	.LM310:
 2153 0a82 7E01      		movw r14,r28
 2154               	.LVL193:
 2155               	.L141:
 2156               	.LM311:
 2157 0a84 0E94 0000 		call readByteFast
 2158 0a88 F701      		movw r30,r14
 2159 0a8a 8193      		st Z+,r24
 2160 0a8c 7F01      		movw r14,r30
 2161 0a8e F0E0      		ldi r31,lo8(writeData+512)
 2162 0a90 EF16      		cp r14,r31
 2163 0a92 F0E0      		ldi r31,hi8(writeData+512)
 2164 0a94 FF06      		cpc r15,r31
 2165 0a96 01F4      		brne .L141
 2166               	.LM312:
 2167 0a98 0E94 0000 		call readByteFast
 2168 0a9c 0E94 0000 		call readByteFast
 2169               	.LM313:
 2170 0aa0 F501      		movw r30,r10
 2171 0aa2 F170      		andi r31,hi8(511)
 2172 0aa4 E050      		subi r30,lo8(-(writeData))
 2173 0aa6 F040      		sbci r31,hi8(-(writeData))
 2174               	.LVL194:
 2175               	.LBB83:
 2176               	.LBB84:
 2177               	.LM314:
 2178 0aa8 0115      		cp r16,__zero_reg__
 2179 0aaa 1105      		cpc r17,__zero_reg__
 2180 0aac 01F0      		breq .L142
 2181 0aae C201      		movw r24,r4
 2182 0ab0 A92F      		mov r26,r25
 2183 0ab2 B42D      		mov r27,r4
 2184 0ab4 80E0      		ldi r24,lo8(0)
 2185 0ab6 90E0      		ldi r25,hi8(0)
 2186               	.LVL195:
 2187               	.L143:
 2188 0ab8 2D91      		ld r18,X+
 2189 0aba 2193      		st Z+,r18
 2190 0abc 0196      		adiw r24,1
 2191               	.LVL196:
 2192 0abe 8017      		cp r24,r16
 2193 0ac0 9107      		cpc r25,r17
 2194 0ac2 00F0      		brlo .L143
 2195               	.LVL197:
 2196               	.L142:
 2197               	.LBE84:
 2198               	.LBE83:
 2199               	.LM315:
 2200 0ac4 82EC      		ldi r24,lo8(-62)
 2201 0ac6 8BB9      		out 43-32,r24
 2202               	.LM316:
 2203 0ac8 80EC      		ldi r24,lo8(-64)
 2204 0aca 8BB9      		out 43-32,r24
 2205               	.LM317:
 2206 0acc 88E1      		ldi r24,lo8(24)
 2207 0ace B401      		movw r22,r8
 2208 0ad0 A301      		movw r20,r6
 2209 0ad2 0E94 0000 		call cmdFast
 2210               	.LM318:
 2211 0ad6 8FEF      		ldi r24,lo8(-1)
 2212 0ad8 0E94 0000 		call writeByteFast
 2213               	.LM319:
 2214 0adc 8EEF      		ldi r24,lo8(-2)
 2215 0ade 0E94 0000 		call writeByteFast
 2216               	.LVL198:
 2217               	.L144:
 2218               	.LM320:
 2219 0ae2 8991      		ld r24,Y+
 2220 0ae4 0E94 0000 		call writeByteFast
 2221 0ae8 80E0      		ldi r24,hi8(writeData+512)
 2222 0aea C030      		cpi r28,lo8(writeData+512)
 2223 0aec D807      		cpc r29,r24
 2224 0aee 01F4      		brne .L144
 2225               	.LM321:
 2226 0af0 8FEF      		ldi r24,lo8(-1)
 2227 0af2 0E94 0000 		call writeByteFast
 2228               	.LM322:
 2229 0af6 8FEF      		ldi r24,lo8(-1)
 2230 0af8 0E94 0000 		call writeByteFast
 2231               	.LM323:
 2232 0afc 0E94 0000 		call readByteFast
 2233               	.LM324:
 2234 0b00 0E94 0000 		call waitFinish
 2235               	.LM325:
 2236 0b04 82EC      		ldi r24,lo8(-62)
 2237 0b06 8BB9      		out 43-32,r24
 2238               	.LM326:
 2239 0b08 80EC      		ldi r24,lo8(-64)
 2240 0b0a 8BB9      		out 43-32,r24
 2241 0b0c 00C0      		rjmp .L139
 2242               	.LFE31:
 2244               	.global	duplicateFat
 2246               	duplicateFat:
 2247               	.LFB32:
 2248               	.LM327:
 2249 0b0e 8F92      		push r8
 2250 0b10 9F92      		push r9
 2251 0b12 AF92      		push r10
 2252 0b14 BF92      		push r11
 2253 0b16 CF92      		push r12
 2254 0b18 DF92      		push r13
 2255 0b1a EF92      		push r14
 2256 0b1c FF92      		push r15
 2257 0b1e 0F93      		push r16
 2258 0b20 1F93      		push r17
 2259 0b22 CF93      		push r28
 2260 0b24 DF93      		push r29
 2261               	/* prologue: function */
 2262               	/* frame size = 0 */
 2263               	/* stack size = 12 */
 2264               	.L__stack_usage = 12
 2265               	.LM328:
 2266 0b26 C090 0000 		lds r12,fatAddr
 2267 0b2a D090 0000 		lds r13,fatAddr+1
 2268 0b2e E090 0000 		lds r14,fatAddr+2
 2269 0b32 F090 0000 		lds r15,fatAddr+3
 2270               	.LVL199:
 2271               	.LM329:
 2272 0b36 4B9B      		sbis 41-32,3
 2273 0b38 00C0      		rjmp .L156
 2274               	.LVL200:
 2275               	.L149:
 2276               	/* epilogue start */
 2277               	.LM330:
 2278 0b3a DF91      		pop r29
 2279 0b3c CF91      		pop r28
 2280 0b3e 1F91      		pop r17
 2281 0b40 0F91      		pop r16
 2282 0b42 FF90      		pop r15
 2283 0b44 EF90      		pop r14
 2284 0b46 DF90      		pop r13
 2285 0b48 CF90      		pop r12
 2286 0b4a BF90      		pop r11
 2287 0b4c AF90      		pop r10
 2288 0b4e 9F90      		pop r9
 2289 0b50 8F90      		pop r8
 2290 0b52 0895      		ret
 2291               	.LVL201:
 2292               	.L156:
 2293               	.LM331:
 2294 0b54 80E1      		ldi r24,lo8(16)
 2295 0b56 40E0      		ldi r20,lo8(512)
 2296 0b58 52E0      		ldi r21,hi8(512)
 2297 0b5a 60E0      		ldi r22,hlo8(512)
 2298 0b5c 70E0      		ldi r23,hhi8(512)
 2299 0b5e 0E94 0000 		call cmdFast
 2300               	.LVL202:
 2301               	.LM332:
 2302 0b62 8091 0000 		lds r24,sectorsPerFat
 2303 0b66 9091 0000 		lds r25,sectorsPerFat+1
 2304 0b6a 0097      		sbiw r24,0
 2305 0b6c 01F0      		breq .L149
 2306 0b6e AA24      		clr r10
 2307 0b70 BB24      		clr r11
 2308               	.LM333:
 2309 0b72 A2EC      		ldi r26,lo8(-62)
 2310 0b74 9A2E      		mov r9,r26
 2311               	.LM334:
 2312 0b76 F0EC      		ldi r31,lo8(-64)
 2313 0b78 8F2E      		mov r8,r31
 2314               	.LVL203:
 2315               	.L153:
 2316               	.LM335:
 2317 0b7a C701      		movw r24,r14
 2318 0b7c B601      		movw r22,r12
 2319 0b7e 0E94 0000 		call cmd17Fast
 2320               	.LVL204:
 2321 0b82 C0E0      		ldi r28,lo8(writeData)
 2322 0b84 D0E0      		ldi r29,hi8(writeData)
 2323               	.LM336:
 2324 0b86 8E01      		movw r16,r28
 2325               	.LVL205:
 2326               	.L151:
 2327               	.LM337:
 2328 0b88 0E94 0000 		call readByteFast
 2329 0b8c D801      		movw r26,r16
 2330 0b8e 8D93      		st X+,r24
 2331 0b90 8D01      		movw r16,r26
 2332 0b92 B0E0      		ldi r27,hi8(writeData+512)
 2333 0b94 0030      		cpi r16,lo8(writeData+512)
 2334 0b96 1B07      		cpc r17,r27
 2335 0b98 01F4      		brne .L151
 2336               	.LM338:
 2337 0b9a 0E94 0000 		call readByteFast
 2338 0b9e 0E94 0000 		call readByteFast
 2339               	.LM339:
 2340 0ba2 9BB8      		out 43-32,r9
 2341               	.LM340:
 2342 0ba4 8BB8      		out 43-32,r8
 2343               	.LM341:
 2344 0ba6 4091 0000 		lds r20,sectorsPerFat
 2345 0baa 5091 0000 		lds r21,sectorsPerFat+1
 2346 0bae 60E0      		ldi r22,lo8(0)
 2347 0bb0 70E0      		ldi r23,hi8(0)
 2348 0bb2 E9E0      		ldi r30,9
 2349 0bb4 440F      	1:	lsl r20
 2350 0bb6 551F      		rol r21
 2351 0bb8 661F      		rol r22
 2352 0bba 771F      		rol r23
 2353 0bbc EA95      		dec r30
 2354 0bbe 01F4      		brne 1b
 2355 0bc0 4C0D      		add r20,r12
 2356 0bc2 5D1D      		adc r21,r13
 2357 0bc4 6E1D      		adc r22,r14
 2358 0bc6 7F1D      		adc r23,r15
 2359 0bc8 88E1      		ldi r24,lo8(24)
 2360 0bca 0E94 0000 		call cmdFast
 2361               	.LM342:
 2362 0bce 8FEF      		ldi r24,lo8(-1)
 2363 0bd0 0E94 0000 		call writeByteFast
 2364               	.LM343:
 2365 0bd4 8EEF      		ldi r24,lo8(-2)
 2366 0bd6 0E94 0000 		call writeByteFast
 2367               	.LVL206:
 2368               	.L152:
 2369               	.LM344:
 2370 0bda 8991      		ld r24,Y+
 2371 0bdc 0E94 0000 		call writeByteFast
 2372 0be0 E0E0      		ldi r30,hi8(writeData+512)
 2373 0be2 C030      		cpi r28,lo8(writeData+512)
 2374 0be4 DE07      		cpc r29,r30
 2375 0be6 01F4      		brne .L152
 2376               	.LM345:
 2377 0be8 8FEF      		ldi r24,lo8(-1)
 2378 0bea 0E94 0000 		call writeByteFast
 2379               	.LM346:
 2380 0bee 8FEF      		ldi r24,lo8(-1)
 2381 0bf0 0E94 0000 		call writeByteFast
 2382               	.LM347:
 2383 0bf4 0E94 0000 		call readByteFast
 2384               	.LM348:
 2385 0bf8 0E94 0000 		call waitFinish
 2386               	.LVL207:
 2387               	.LM349:
 2388 0bfc 9BB8      		out 43-32,r9
 2389               	.LM350:
 2390 0bfe 8BB8      		out 43-32,r8
 2391               	.LM351:
 2392 0c00 0894      		sec
 2393 0c02 A11C      		adc r10,__zero_reg__
 2394 0c04 B11C      		adc r11,__zero_reg__
 2395               	.LVL208:
 2396 0c06 8091 0000 		lds r24,sectorsPerFat
 2397 0c0a 9091 0000 		lds r25,sectorsPerFat+1
 2398 0c0e A816      		cp r10,r24
 2399 0c10 B906      		cpc r11,r25
 2400 0c12 00F0      		brlo .+2
 2401 0c14 00C0      		rjmp .L149
 2402               	.LM352:
 2403 0c16 80E0      		ldi r24,lo8(512)
 2404 0c18 92E0      		ldi r25,hi8(512)
 2405 0c1a A0E0      		ldi r26,hlo8(512)
 2406 0c1c B0E0      		ldi r27,hhi8(512)
 2407 0c1e C80E      		add r12,r24
 2408 0c20 D91E      		adc r13,r25
 2409 0c22 EA1E      		adc r14,r26
 2410 0c24 FB1E      		adc r15,r27
 2411               	.LVL209:
 2412 0c26 00C0      		rjmp .L153
 2413               	.LFE32:
 2415               	.global	createFile
 2417               	createFile:
 2418               	.LFB33:
 2419               	.LM353:
 2420               	.LVL210:
 2421 0c28 3F92      		push r3
 2422 0c2a 4F92      		push r4
 2423 0c2c 5F92      		push r5
 2424 0c2e 6F92      		push r6
 2425 0c30 7F92      		push r7
 2426 0c32 8F92      		push r8
 2427 0c34 9F92      		push r9
 2428 0c36 AF92      		push r10
 2429 0c38 BF92      		push r11
 2430 0c3a CF92      		push r12
 2431 0c3c DF92      		push r13
 2432 0c3e EF92      		push r14
 2433 0c40 FF92      		push r15
 2434 0c42 0F93      		push r16
 2435 0c44 1F93      		push r17
 2436 0c46 DF93      		push r29
 2437 0c48 CF93      		push r28
 2438 0c4a CDB7      		in r28,__SP_L__
 2439 0c4c DEB7      		in r29,__SP_H__
 2440 0c4e A497      		sbiw r28,36
 2441 0c50 0FB6      		in __tmp_reg__,__SREG__
 2442 0c52 F894      		cli
 2443 0c54 DEBF      		out __SP_H__,r29
 2444 0c56 0FBE      		out __SREG__,__tmp_reg__
 2445 0c58 CDBF      		out __SP_L__,r28
 2446               	/* prologue: function */
 2447               	/* frame size = 36 */
 2448               	/* stack size = 53 */
 2449               	.L__stack_usage = 53
 2450 0c5a 2A01      		movw r4,r20
 2451               	.LM354:
 2452 0c5c 4B99      		sbic 41-32,3
 2453 0c5e 00C0      		rjmp .L170
 2454               	.LVL211:
 2455 0c60 55E0      		ldi r21,lo8(5)
 2456 0c62 A52E      		mov r10,r21
 2457 0c64 B12C      		mov r11,__zero_reg__
 2458 0c66 AC0E      		add r10,r28
 2459 0c68 BD1E      		adc r11,r29
 2460 0c6a A501      		movw r20,r10
 2461               	.LM355:
 2462 0c6c 9E01      		movw r18,r28
 2463 0c6e 2B5D      		subi r18,lo8(-(37))
 2464 0c70 3F4F      		sbci r19,hi8(-(37))
 2465 0c72 D501      		movw r26,r10
 2466               	.L159:
 2467               	.LM356:
 2468 0c74 1D92      		st X+,__zero_reg__
 2469 0c76 A217      		cp r26,r18
 2470 0c78 B307      		cpc r27,r19
 2471 0c7a 01F4      		brne .L159
 2472               	.LM357:
 2473 0c7c A82F      		mov r26,r24
 2474 0c7e B92F      		mov r27,r25
 2475               	.LM358:
 2476 0c80 C501      		movw r24,r10
 2477               	.LVL212:
 2478 0c82 0896      		adiw r24,8
 2479               	.L160:
 2480               	.LBB85:
 2481               	.LBB86:
 2482               	.LM359:
 2483 0c84 2D91      		ld r18,X+
 2484 0c86 FA01      		movw r30,r20
 2485 0c88 2193      		st Z+,r18
 2486 0c8a AF01      		movw r20,r30
 2487 0c8c E817      		cp r30,r24
 2488 0c8e F907      		cpc r31,r25
 2489 0c90 01F4      		brne .L160
 2490               	.LVL213:
 2491               	.LBE86:
 2492               	.LBE85:
 2493               	.LBB87:
 2494               	.LBB88:
 2495 0c92 DB01      		movw r26,r22
 2496 0c94 8C91      		ld r24,X
 2497 0c96 8D87      		std Y+13,r24
 2498               	.LVL214:
 2499 0c98 1196      		adiw r26,1
 2500 0c9a 8C91      		ld r24,X
 2501 0c9c 1197      		sbiw r26,1
 2502 0c9e 8E87      		std Y+14,r24
 2503               	.LVL215:
 2504 0ca0 1296      		adiw r26,2
 2505 0ca2 8C91      		ld r24,X
 2506 0ca4 8F87      		std Y+15,r24
 2507               	.LVL216:
 2508               	.LBE88:
 2509               	.LBE87:
 2510               	.LM360:
 2511 0ca6 C201      		movw r24,r4
 2512 0ca8 A0E0      		ldi r26,lo8(0)
 2513 0caa B0E0      		ldi r27,hi8(0)
 2514 0cac 49E0      		ldi r20,9
 2515 0cae 880F      	1:	lsl r24
 2516 0cb0 991F      		rol r25
 2517 0cb2 AA1F      		rol r26
 2518 0cb4 BB1F      		rol r27
 2519 0cb6 4A95      		dec r20
 2520 0cb8 01F4      		brne 1b
 2521 0cba F501      		movw r30,r10
 2522 0cbc 848F      		std Z+28,r24
 2523 0cbe 958F      		std Z+29,r25
 2524 0cc0 A68F      		std Z+30,r26
 2525 0cc2 B78F      		std Z+31,r27
 2526               	.LVL217:
 2527 0cc4 EE24      		clr r14
 2528 0cc6 FF24      		clr r15
 2529 0cc8 8701      		movw r16,r14
 2530               	.LM361:
 2531 0cca CC24      		clr r12
 2532 0ccc DD24      		clr r13
 2533 0cce 00C0      		rjmp .L165
 2534               	.LVL218:
 2535               	.L162:
 2536 0cd0 0894      		sec
 2537 0cd2 C11C      		adc r12,__zero_reg__
 2538 0cd4 D11C      		adc r13,__zero_reg__
 2539               	.LVL219:
 2540 0cd6 80E2      		ldi r24,lo8(32)
 2541 0cd8 90E0      		ldi r25,hi8(32)
 2542 0cda A0E0      		ldi r26,hlo8(32)
 2543 0cdc B0E0      		ldi r27,hhi8(32)
 2544 0cde E80E      		add r14,r24
 2545 0ce0 F91E      		adc r15,r25
 2546 0ce2 0A1F      		adc r16,r26
 2547 0ce4 1B1F      		adc r17,r27
 2548 0ce6 90E0      		ldi r25,lo8(512)
 2549 0ce8 C916      		cp r12,r25
 2550 0cea 92E0      		ldi r25,hi8(512)
 2551 0cec D906      		cpc r13,r25
 2552 0cee 01F4      		brne .+2
 2553 0cf0 00C0      		rjmp .L170
 2554               	.LVL220:
 2555               	.L165:
 2556               	.LM362:
 2557 0cf2 80E1      		ldi r24,lo8(16)
 2558 0cf4 41E0      		ldi r20,lo8(1)
 2559 0cf6 50E0      		ldi r21,hi8(1)
 2560 0cf8 60E0      		ldi r22,hlo8(1)
 2561 0cfa 70E0      		ldi r23,hhi8(1)
 2562 0cfc 0E94 0000 		call cmdFast
 2563               	.LM363:
 2564 0d00 6091 0000 		lds r22,rootAddr
 2565 0d04 7091 0000 		lds r23,rootAddr+1
 2566 0d08 8091 0000 		lds r24,rootAddr+2
 2567 0d0c 9091 0000 		lds r25,rootAddr+3
 2568 0d10 6E0D      		add r22,r14
 2569 0d12 7F1D      		adc r23,r15
 2570 0d14 801F      		adc r24,r16
 2571 0d16 911F      		adc r25,r17
 2572 0d18 0E94 0000 		call cmd17Fast
 2573               	.LM364:
 2574 0d1c 0E94 0000 		call readByteFast
 2575 0d20 982E      		mov r9,r24
 2576               	.LVL221:
 2577               	.LM365:
 2578 0d22 0E94 0000 		call readByteFast
 2579               	.LVL222:
 2580 0d26 0E94 0000 		call readByteFast
 2581               	.LM366:
 2582 0d2a 6091 0000 		lds r22,rootAddr
 2583 0d2e 7091 0000 		lds r23,rootAddr+1
 2584 0d32 8091 0000 		lds r24,rootAddr+2
 2585 0d36 9091 0000 		lds r25,rootAddr+3
 2586 0d3a 655F      		subi r22,lo8(-(11))
 2587 0d3c 7F4F      		sbci r23,hi8(-(11))
 2588 0d3e 8F4F      		sbci r24,hlo8(-(11))
 2589 0d40 9F4F      		sbci r25,hhi8(-(11))
 2590 0d42 6E0D      		add r22,r14
 2591 0d44 7F1D      		adc r23,r15
 2592 0d46 801F      		adc r24,r16
 2593 0d48 911F      		adc r25,r17
 2594 0d4a 0E94 0000 		call cmd17Fast
 2595               	.LM367:
 2596 0d4e 0E94 0000 		call readByteFast
 2597 0d52 882E      		mov r8,r24
 2598               	.LVL223:
 2599               	.LM368:
 2600 0d54 0E94 0000 		call readByteFast
 2601               	.LVL224:
 2602 0d58 0E94 0000 		call readByteFast
 2603               	.LM369:
 2604 0d5c F92D      		mov r31,r9
 2605 0d5e F53E      		cpi r31,lo8(-27)
 2606 0d60 01F0      		breq .L161
 2607               	.LM370:
 2608 0d62 9920      		tst r9
 2609 0d64 01F0      		breq .+2
 2610 0d66 00C0      		rjmp .L162
 2611               	.L161:
 2612               	.LM371:
 2613 0d68 882D      		mov r24,r8
 2614 0d6a 8F30      		cpi r24,lo8(15)
 2615 0d6c 01F4      		brne .+2
 2616 0d6e 00C0      		rjmp .L162
 2617               	.LM372:
 2618 0d70 6091 0000 		lds r22,rootAddr
 2619 0d74 7091 0000 		lds r23,rootAddr+1
 2620 0d78 8091 0000 		lds r24,rootAddr+2
 2621 0d7c 9091 0000 		lds r25,rootAddr+3
 2622 0d80 6E0D      		add r22,r14
 2623 0d82 7F1D      		adc r23,r15
 2624 0d84 801F      		adc r24,r16
 2625 0d86 911F      		adc r25,r17
 2626 0d88 A501      		movw r20,r10
 2627 0d8a 20E2      		ldi r18,lo8(32)
 2628 0d8c 30E0      		ldi r19,hi8(32)
 2629 0d8e 0E94 0000 		call writeSD
 2630               	.LM373:
 2631 0d92 4114      		cp r4,__zero_reg__
 2632 0d94 5104      		cpc r5,__zero_reg__
 2633 0d96 01F4      		brne .+2
 2634 0d98 00C0      		rjmp .L176
 2635               	.LM374:
 2636 0d9a A090 0000 		lds r10,rootAddr
 2637 0d9e B090 0000 		lds r11,rootAddr+1
 2638 0da2 C090 0000 		lds r12,rootAddr+2
 2639 0da6 D090 0000 		lds r13,rootAddr+3
 2640 0daa 8AE1      		ldi r24,lo8(26)
 2641 0dac 90E0      		ldi r25,hi8(26)
 2642 0dae A0E0      		ldi r26,hlo8(26)
 2643 0db0 B0E0      		ldi r27,hhi8(26)
 2644 0db2 A80E      		add r10,r24
 2645 0db4 B91E      		adc r11,r25
 2646 0db6 CA1E      		adc r12,r26
 2647 0db8 DB1E      		adc r13,r27
 2648 0dba AE0C      		add r10,r14
 2649 0dbc BF1C      		adc r11,r15
 2650 0dbe C01E      		adc r12,r16
 2651 0dc0 D11E      		adc r13,r17
 2652               	.LVL225:
 2653               	.LM375:
 2654 0dc2 82E0      		ldi r24,lo8(2)
 2655 0dc4 90E0      		ldi r25,hi8(2)
 2656 0dc6 A0E0      		ldi r26,hlo8(2)
 2657 0dc8 B0E0      		ldi r27,hhi8(2)
 2658 0dca 8983      		std Y+1,r24
 2659 0dcc 9A83      		std Y+2,r25
 2660 0dce AB83      		std Y+3,r26
 2661 0dd0 BC83      		std Y+4,r27
 2662               	.LVL226:
 2663 0dd2 8091 0000 		lds r24,sectorsPerCluster
 2664 0dd6 90E0      		ldi r25,lo8(0)
 2665 0dd8 0197      		sbiw r24,1
 2666 0dda 840D      		add r24,r4
 2667 0ddc 951D      		adc r25,r5
 2668 0dde 0090 0000 		lds r0,sectorsPerCluster2
 2669 0de2 00C0      		rjmp 2f
 2670 0de4 9695      	1:	lsr r25
 2671 0de6 8795      		ror r24
 2672 0de8 0A94      	2:	dec r0
 2673 0dea 02F4      		brpl 1b
 2674 0dec 0097      		sbiw r24,0
 2675 0dee 01F4      		brne .+2
 2676 0df0 00C0      		rjmp .L166
 2677 0df2 00E0      		ldi r16,lo8(0)
 2678 0df4 10E0      		ldi r17,hi8(0)
 2679               	.LM376:
 2680 0df6 4E01      		movw r8,r28
 2681               	.LVL227:
 2682 0df8 0894      		sec
 2683 0dfa 811C      		adc r8,__zero_reg__
 2684 0dfc 911C      		adc r9,__zero_reg__
 2685 0dfe 00C0      		rjmp .L169
 2686               	.LVL228:
 2687               	.L177:
 2688               	.LM377:
 2689 0e00 8981      		ldd r24,Y+1
 2690 0e02 9A81      		ldd r25,Y+2
 2691 0e04 AB81      		ldd r26,Y+3
 2692 0e06 BC81      		ldd r27,Y+4
 2693               	.L168:
 2694               	.LVL229:
 2695               	.LM378:
 2696 0e08 0196      		adiw r24,1
 2697 0e0a A11D      		adc r26,__zero_reg__
 2698 0e0c B11D      		adc r27,__zero_reg__
 2699 0e0e 8983      		std Y+1,r24
 2700 0e10 9A83      		std Y+2,r25
 2701 0e12 AB83      		std Y+3,r26
 2702 0e14 BC83      		std Y+4,r27
 2703 0e16 8091 0000 		lds r24,sectorsPerCluster
 2704 0e1a 90E0      		ldi r25,lo8(0)
 2705 0e1c 0197      		sbiw r24,1
 2706 0e1e 840D      		add r24,r4
 2707 0e20 951D      		adc r25,r5
 2708 0e22 0090 0000 		lds r0,sectorsPerCluster2
 2709 0e26 00C0      		rjmp 2f
 2710 0e28 9695      	1:	lsr r25
 2711 0e2a 8795      		ror r24
 2712 0e2c 0A94      	2:	dec r0
 2713 0e2e 02F4      		brpl 1b
 2714 0e30 0817      		cp r16,r24
 2715 0e32 1907      		cpc r17,r25
 2716 0e34 00F0      		brlo .+2
 2717 0e36 00C0      		rjmp .L166
 2718               	.LVL230:
 2719               	.L169:
 2720               	.LM379:
 2721 0e38 80E1      		ldi r24,lo8(16)
 2722 0e3a 42E0      		ldi r20,lo8(2)
 2723 0e3c 50E0      		ldi r21,hi8(2)
 2724 0e3e 60E0      		ldi r22,hlo8(2)
 2725 0e40 70E0      		ldi r23,hhi8(2)
 2726 0e42 0E94 0000 		call cmdFast
 2727               	.LM380:
 2728 0e46 6981      		ldd r22,Y+1
 2729 0e48 7A81      		ldd r23,Y+2
 2730 0e4a 8B81      		ldd r24,Y+3
 2731 0e4c 9C81      		ldd r25,Y+4
 2732 0e4e 660F      		lsl r22
 2733 0e50 771F      		rol r23
 2734 0e52 881F      		rol r24
 2735 0e54 991F      		rol r25
 2736 0e56 2091 0000 		lds r18,fatAddr
 2737 0e5a 3091 0000 		lds r19,fatAddr+1
 2738 0e5e 4091 0000 		lds r20,fatAddr+2
 2739 0e62 5091 0000 		lds r21,fatAddr+3
 2740 0e66 620F      		add r22,r18
 2741 0e68 731F      		adc r23,r19
 2742 0e6a 841F      		adc r24,r20
 2743 0e6c 951F      		adc r25,r21
 2744 0e6e 0E94 0000 		call cmd17Fast
 2745               	.LM381:
 2746 0e72 0E94 0000 		call readByteFast
 2747 0e76 E82E      		mov r14,r24
 2748 0e78 FF24      		clr r15
 2749               	.LVL231:
 2750               	.LM382:
 2751 0e7a 0E94 0000 		call readByteFast
 2752 0e7e 382E      		mov r3,r24
 2753               	.LVL232:
 2754               	.LM383:
 2755 0e80 0E94 0000 		call readByteFast
 2756               	.LVL233:
 2757 0e84 0E94 0000 		call readByteFast
 2758               	.LM384:
 2759 0e88 732C      		mov r7,r3
 2760 0e8a 6624      		clr r6
 2761 0e8c E60C      		add r14,r6
 2762 0e8e F71C      		adc r15,r7
 2763               	.LVL234:
 2764               	.LM385:
 2765 0e90 E114      		cp r14,__zero_reg__
 2766 0e92 F104      		cpc r15,__zero_reg__
 2767 0e94 01F0      		breq .+2
 2768 0e96 00C0      		rjmp .L177
 2769               	.LM386:
 2770 0e98 0F5F      		subi r16,lo8(-(1))
 2771 0e9a 1F4F      		sbci r17,hi8(-(1))
 2772               	.LVL235:
 2773               	.LM387:
 2774 0e9c C601      		movw r24,r12
 2775 0e9e B501      		movw r22,r10
 2776 0ea0 A401      		movw r20,r8
 2777 0ea2 22E0      		ldi r18,lo8(2)
 2778 0ea4 30E0      		ldi r19,hi8(2)
 2779 0ea6 0E94 0000 		call writeSD
 2780               	.LM388:
 2781 0eaa 8981      		ldd r24,Y+1
 2782 0eac 9A81      		ldd r25,Y+2
 2783 0eae AB81      		ldd r26,Y+3
 2784 0eb0 BC81      		ldd r27,Y+4
 2785 0eb2 5C01      		movw r10,r24
 2786 0eb4 6D01      		movw r12,r26
 2787               	.LVL236:
 2788 0eb6 AA0C      		lsl r10
 2789 0eb8 BB1C      		rol r11
 2790 0eba CC1C      		rol r12
 2791 0ebc DD1C      		rol r13
 2792 0ebe 2091 0000 		lds r18,fatAddr
 2793 0ec2 3091 0000 		lds r19,fatAddr+1
 2794 0ec6 4091 0000 		lds r20,fatAddr+2
 2795 0eca 5091 0000 		lds r21,fatAddr+3
 2796 0ece A20E      		add r10,r18
 2797 0ed0 B31E      		adc r11,r19
 2798 0ed2 C41E      		adc r12,r20
 2799 0ed4 D51E      		adc r13,r21
 2800               	.LVL237:
 2801 0ed6 00C0      		rjmp .L168
 2802               	.LVL238:
 2803               	.L170:
 2804               	.LM389:
 2805 0ed8 20E0      		ldi r18,lo8(0)
 2806 0eda 30E0      		ldi r19,hi8(0)
 2807               	.LVL239:
 2808               	.L158:
 2809               	.LM390:
 2810 0edc C901      		movw r24,r18
 2811               	/* epilogue start */
 2812 0ede A496      		adiw r28,36
 2813 0ee0 0FB6      		in __tmp_reg__,__SREG__
 2814 0ee2 F894      		cli
 2815 0ee4 DEBF      		out __SP_H__,r29
 2816 0ee6 0FBE      		out __SREG__,__tmp_reg__
 2817 0ee8 CDBF      		out __SP_L__,r28
 2818 0eea CF91      		pop r28
 2819 0eec DF91      		pop r29
 2820 0eee 1F91      		pop r17
 2821 0ef0 0F91      		pop r16
 2822 0ef2 FF90      		pop r15
 2823 0ef4 EF90      		pop r14
 2824 0ef6 DF90      		pop r13
 2825 0ef8 CF90      		pop r12
 2826 0efa BF90      		pop r11
 2827 0efc AF90      		pop r10
 2828 0efe 9F90      		pop r9
 2829 0f00 8F90      		pop r8
 2830 0f02 7F90      		pop r7
 2831 0f04 6F90      		pop r6
 2832 0f06 5F90      		pop r5
 2833 0f08 4F90      		pop r4
 2834               	.LVL240:
 2835 0f0a 3F90      		pop r3
 2836 0f0c 0895      		ret
 2837               	.LVL241:
 2838               	.L166:
 2839               	.LM391:
 2840 0f0e C601      		movw r24,r12
 2841 0f10 B501      		movw r22,r10
 2842 0f12 40E0      		ldi r20,lo8(last.1979)
 2843 0f14 50E0      		ldi r21,hi8(last.1979)
 2844 0f16 22E0      		ldi r18,lo8(2)
 2845 0f18 30E0      		ldi r19,hi8(2)
 2846 0f1a 0E94 0000 		call writeSD
 2847               	.LVL242:
 2848               	.L176:
 2849               	.LM392:
 2850 0f1e 0E94 0000 		call duplicateFat
 2851               	.LM393:
 2852 0f22 21E0      		ldi r18,lo8(1)
 2853 0f24 30E0      		ldi r19,hi8(1)
 2854 0f26 00C0      		rjmp .L158
 2855               	.LFE33:
 2857               	.global	dsk2Nic
 2859               	dsk2Nic:
 2860               	.LFB34:
 2861               	.LM394:
 2862 0f28 2F92      		push r2
 2863 0f2a 3F92      		push r3
 2864 0f2c 4F92      		push r4
 2865 0f2e 5F92      		push r5
 2866 0f30 6F92      		push r6
 2867 0f32 7F92      		push r7
 2868 0f34 8F92      		push r8
 2869 0f36 9F92      		push r9
 2870 0f38 AF92      		push r10
 2871 0f3a BF92      		push r11
 2872 0f3c CF92      		push r12
 2873 0f3e DF92      		push r13
 2874 0f40 EF92      		push r14
 2875 0f42 FF92      		push r15
 2876 0f44 0F93      		push r16
 2877 0f46 1F93      		push r17
 2878 0f48 DF93      		push r29
 2879 0f4a CF93      		push r28
 2880 0f4c CDB7      		in r28,__SP_L__
 2881 0f4e DEB7      		in r29,__SP_H__
 2882 0f50 2B97      		sbiw r28,11
 2883 0f52 0FB6      		in __tmp_reg__,__SREG__
 2884 0f54 F894      		cli
 2885 0f56 DEBF      		out __SP_H__,r29
 2886 0f58 0FBE      		out __SREG__,__tmp_reg__
 2887 0f5a CDBF      		out __SP_L__,r28
 2888               	/* prologue: function */
 2889               	/* frame size = 11 */
 2890               	/* stack size = 29 */
 2891               	.L__stack_usage = 29
 2892               	.LM395:
 2893 0f5c E0E0      		ldi r30,lo8(writeData+512)
 2894 0f5e AE2E      		mov r10,r30
 2895 0f60 E0E0      		ldi r30,hi8(writeData+512)
 2896 0f62 BE2E      		mov r11,r30
 2897               	.LVL243:
 2898               	.LM396:
 2899 0f64 85B1      		in r24,37-32
 2900 0f66 8063      		ori r24,lo8(48)
 2901 0f68 85B9      		out 37-32,r24
 2902               	.LM397:
 2903 0f6a 8FEF      		ldi r24,lo8(-1)
 2904 0f6c 8093 0000 		sts prevFatNumDsk,r24
 2905 0f70 8093 0000 		sts prevFatNumNic,r24
 2906               	.LVL244:
 2907 0f74 AE82      		std Y+6,r10
 2908 0f76 BF82      		std Y+7,r11
 2909               	.LM398:
 2910 0f78 EA2D      		mov r30,r10
 2911 0f7a FB2D      		mov r31,r11
 2912               	.LM399:
 2913 0f7c 8FEF      		ldi r24,lo8(-1)
 2914               	.LVL245:
 2915               	.L179:
 2916               	.LM400:
 2917 0f7e 8193      		st Z+,r24
 2918 0f80 90E0      		ldi r25,hi8(writeData+534)
 2919 0f82 E030      		cpi r30,lo8(writeData+534)
 2920 0f84 F907      		cpc r31,r25
 2921 0f86 01F4      		brne .L179
 2922               	.LM401:
 2923 0f88 93E0      		ldi r25,lo8(3)
 2924 0f8a 9093 0000 		sts writeData+534,r25
 2925               	.LM402:
 2926 0f8e 9CEF      		ldi r25,lo8(-4)
 2927 0f90 9093 0000 		sts writeData+535,r25
 2928               	.LM403:
 2929 0f94 8093 0000 		sts writeData+536,r24
 2930               	.LM404:
 2931 0f98 4FE3      		ldi r20,lo8(63)
 2932 0f9a 4093 0000 		sts writeData+537,r20
 2933               	.LM405:
 2934 0f9e 3FEC      		ldi r19,lo8(-49)
 2935 0fa0 3093 0000 		sts writeData+538,r19
 2936               	.LM406:
 2937 0fa4 23EF      		ldi r18,lo8(-13)
 2938 0fa6 2093 0000 		sts writeData+539,r18
 2939               	.LM407:
 2940 0faa 9093 0000 		sts writeData+540,r25
 2941               	.LM408:
 2942 0fae 8093 0000 		sts writeData+541,r24
 2943               	.LM409:
 2944 0fb2 4093 0000 		sts writeData+542,r20
 2945               	.LM410:
 2946 0fb6 3093 0000 		sts writeData+543,r19
 2947               	.LM411:
 2948 0fba 2093 0000 		sts writeData+544,r18
 2949               	.LM412:
 2950 0fbe 9093 0000 		sts writeData+545,r25
 2951               	.LM413:
 2952 0fc2 45ED      		ldi r20,lo8(-43)
 2953 0fc4 4093 0000 		sts writeData+546,r20
 2954               	.LM414:
 2955 0fc8 9AEA      		ldi r25,lo8(-86)
 2956 0fca 9093 0000 		sts writeData+547,r25
 2957               	.LM415:
 2958 0fce 26E9      		ldi r18,lo8(-106)
 2959 0fd0 2093 0000 		sts writeData+548,r18
 2960               	.LM416:
 2961 0fd4 3EED      		ldi r19,lo8(-34)
 2962 0fd6 3093 0000 		sts writeData+557,r19
 2963               	.LM417:
 2964 0fda 9093 0000 		sts writeData+558,r25
 2965               	.LM418:
 2966 0fde 2BEE      		ldi r18,lo8(-21)
 2967 0fe0 2093 0000 		sts writeData+559,r18
 2968               	.LVL246:
 2969               	.LM419:
 2970 0fe4 8093 0000 		sts writeData+560,r24
 2971               	.LVL247:
 2972 0fe8 8093 0000 		sts writeData+561,r24
 2973               	.LVL248:
 2974 0fec 8093 0000 		sts writeData+562,r24
 2975               	.LVL249:
 2976 0ff0 8093 0000 		sts writeData+563,r24
 2977               	.LVL250:
 2978 0ff4 8093 0000 		sts writeData+564,r24
 2979               	.LVL251:
 2980               	.LM420:
 2981 0ff8 4093 0000 		sts writeData+565,r20
 2982               	.LM421:
 2983 0ffc 9093 0000 		sts writeData+566,r25
 2984               	.LM422:
 2985 1000 8DEA      		ldi r24,lo8(-83)
 2986 1002 8093 0000 		sts writeData+567,r24
 2987               	.LM423:
 2988 1006 3093 0000 		sts writeData+911,r19
 2989               	.LM424:
 2990 100a 9093 0000 		sts writeData+912,r25
 2991               	.LM425:
 2992 100e 2093 0000 		sts writeData+913,r18
 2993               	.LVL252:
 2994               	.LM426:
 2995 1012 E0E0      		ldi r30,lo8(writeData+914)
 2996 1014 F0E0      		ldi r31,hi8(writeData+914)
 2997               	.LM427:
 2998 1016 8FEF      		ldi r24,lo8(-1)
 2999               	.LVL253:
 3000               	.L180:
 3001               	.LM428:
 3002 1018 8193      		st Z+,r24
 3003               	.LM429:
 3004 101a A0E0      		ldi r26,hi8(writeData+928)
 3005 101c E030      		cpi r30,lo8(writeData+928)
 3006 101e FA07      		cpc r31,r26
 3007 1020 01F4      		brne .L180
 3008               	.L181:
 3009               	.LM430:
 3010 1022 1192      		st Z+,__zero_reg__
 3011               	.LM431:
 3012 1024 B0E0      		ldi r27,hi8(writeData+1024)
 3013 1026 E030      		cpi r30,lo8(writeData+1024)
 3014 1028 FB07      		cpc r31,r27
 3015 102a 01F4      		brne .L181
 3016               	.LM432:
 3017 102c 80E1      		ldi r24,lo8(16)
 3018 102e 40E0      		ldi r20,lo8(512)
 3019 1030 52E0      		ldi r21,hi8(512)
 3020 1032 60E0      		ldi r22,hlo8(512)
 3021 1034 70E0      		ldi r23,hhi8(512)
 3022 1036 0E94 0000 		call cmdFast
 3023               	.LVL254:
 3024 103a 2224      		clr r2
 3025 103c 3324      		clr r3
 3026 103e 6624      		clr r6
 3027 1040 7724      		clr r7
 3028               	.LBB89:
 3029               	.LBB93:
 3030               	.LM433:
 3031 1042 72E1      		ldi r23,lo8(18)
 3032 1044 472E      		mov r4,r23
 3033 1046 512C      		mov r5,__zero_reg__
 3034               	.LBE93:
 3035               	.LBB92:
 3036               	.LM434:
 3037 1048 10EC      		ldi r17,lo8(-64)
 3038               	.LM435:
 3039 104a 60EE      		ldi r22,lo8(-32)
 3040 104c F62E      		mov r15,r22
 3041               	.LM436:
 3042 104e 50ED      		ldi r21,lo8(-48)
 3043 1050 E52E      		mov r14,r21
 3044               	.LM437:
 3045 1052 40EF      		ldi r20,lo8(-16)
 3046 1054 D42E      		mov r13,r20
 3047 1056 3D82      		std Y+5,r3
 3048 1058 2C82      		std Y+4,r2
 3049               	.LVL255:
 3050               	.L196:
 3051               	.LBE92:
 3052               	.LBE89:
 3053               	.LM438:
 3054 105a 95B1      		in r25,37-32
 3055 105c 20E3      		ldi r18,lo8(48)
 3056 105e 9227      		eor r25,r18
 3057 1060 95B9      		out 37-32,r25
 3058               	.LVL256:
 3059               	.LBB108:
 3060               	.LBB94:
 3061               	.LM439:
 3062 1062 E62D      		mov r30,r6
 3063 1064 E695      		lsr r30
 3064 1066 EA6A      		ori r30,lo8(-86)
 3065 1068 E983      		std Y+1,r30
 3066 106a 2224      		clr r2
 3067 106c 3324      		clr r3
 3068               	.LM440:
 3069 106e F62D      		mov r31,r6
 3070 1070 FA6A      		ori r31,lo8(-86)
 3071 1072 F887      		std Y+8,r31
 3072               	.LM441:
 3073 1074 9EEF      		ldi r25,lo8(-2)
 3074 1076 9625      		eor r25,r6
 3075 1078 9987      		std Y+9,r25
 3076               	.LBE94:
 3077               	.LBB101:
 3078               	.LM442:
 3079 107a D301      		movw r26,r6
 3080 107c A295      		swap r26
 3081 107e B295      		swap r27
 3082 1080 B07F      		andi r27,0xf0
 3083 1082 BA27      		eor r27,r26
 3084 1084 A07F      		andi r26,0xf0
 3085 1086 BA27      		eor r27,r26
 3086 1088 BB87      		std Y+11,r27
 3087 108a AA87      		std Y+10,r26
 3088               	.LVL257:
 3089               	.L195:
 3090               	.LBE101:
 3091               	.LBB102:
 3092               	.LM443:
 3093 108c 822D      		mov r24,r2
 3094               	.LVL258:
 3095               	.LBE102:
 3096               	.LBB103:
 3097               	.LM444:
 3098 108e F101      		movw r30,r2
 3099 1090 E050      		subi r30,lo8(-(physicalSector))
 3100 1092 F040      		sbci r31,hi8(-(physicalSector))
 3101               	/* #APP */
 3102               	 ;  845 "sdisk2.c" 1
 3103 1094 C490      		lpm r12, Z
 3104               		
 3105               	 ;  0 "" 2
 3106               	.LVL259:
 3107               	/* #NOAPP */
 3108               	.LBE103:
 3109               	.LM445:
 3110 1096 4B99      		sbic 41-32,3
 3111 1098 00C0      		rjmp .L178
 3112               	.LM446:
 3113 109a 20FC      		sbrc r2,0
 3114 109c 00C0      		rjmp .L183
 3115               	.LBB104:
 3116               	.LM447:
 3117 109e 8695      		lsr r24
 3118 10a0 8C80      		ldd r8,Y+4
 3119 10a2 9D80      		ldd r9,Y+5
 3120 10a4 880E      		add r8,r24
 3121 10a6 911C      		adc r9,__zero_reg__
 3122               	.LVL260:
 3123               	.LM448:
 3124 10a8 E091 0000 		lds r30,sectorsPerCluster2
 3125 10ac C401      		movw r24,r8
 3126 10ae 0E2E      		mov r0,r30
 3127 10b0 00C0      		rjmp 2f
 3128 10b2 9695      	1:	lsr r25
 3129 10b4 8795      		ror r24
 3130 10b6 0A94      	2:	dec r0
 3131 10b8 02F4      		brpl 1b
 3132 10ba 9B83      		std Y+3,r25
 3133 10bc 8A83      		std Y+2,r24
 3134               	.LVL261:
 3135               	.LM449:
 3136 10be B201      		movw r22,r4
 3137 10c0 0E94 0000 		call __udivmodhi4
 3138               	.LVL262:
 3139 10c4 262F      		mov r18,r22
 3140               	.LVL263:
 3141               	.LM450:
 3142 10c6 8091 0000 		lds r24,prevFatNumDsk
 3143 10ca 8617      		cp r24,r22
 3144 10cc 01F0      		breq .L184
 3145               	.LM451:
 3146 10ce 6093 0000 		sts prevFatNumDsk,r22
 3147               	.LM452:
 3148 10d2 4091 0000 		lds r20,sectorsPerCluster
 3149 10d6 50E0      		ldi r21,lo8(0)
 3150 10d8 495E      		subi r20,lo8(-(279))
 3151 10da 5E4F      		sbci r21,hi8(-(279))
 3152 10dc 00C0      		rjmp 2f
 3153 10de 5595      	1:	asr r21
 3154 10e0 4795      		ror r20
 3155 10e2 EA95      	2:	dec r30
 3156 10e4 02F4      		brpl 1b
 3157 10e6 8091 0000 		lds r24,dskDir
 3158 10ea 9091 0000 		lds r25,dskDir+1
 3159 10ee 60E0      		ldi r22,lo8(writeData+1024)
 3160 10f0 70E0      		ldi r23,hi8(writeData+1024)
 3161               	.LVL264:
 3162 10f2 02E1      		ldi r16,lo8(18)
 3163 10f4 0E94 0000 		call prepareFat
 3164               	.LVL265:
 3165 10f8 E091 0000 		lds r30,sectorsPerCluster2
 3166               	.L184:
 3167               	.LM453:
 3168 10fc 8A81      		ldd r24,Y+2
 3169 10fe 9B81      		ldd r25,Y+3
 3170 1100 B201      		movw r22,r4
 3171 1102 0E94 0000 		call __udivmodhi4
 3172 1106 880F      		lsl r24
 3173 1108 991F      		rol r25
 3174 110a 8050      		subi r24,lo8(-(writeData+1024))
 3175 110c 9040      		sbci r25,hi8(-(writeData+1024))
 3176               	.LM454:
 3177 110e DC01      		movw r26,r24
 3178 1110 2D91      		ld r18,X+
 3179 1112 3C91      		ld r19,X
 3180 1114 2250      		subi r18,lo8(-(-2))
 3181 1116 3040      		sbci r19,hi8(-(-2))
 3182 1118 40E0      		ldi r20,lo8(0)
 3183 111a 50E0      		ldi r21,hi8(0)
 3184 111c 00C0      		rjmp 2f
 3185 111e 220F      	1:	lsl r18
 3186 1120 331F      		rol r19
 3187 1122 441F      		rol r20
 3188 1124 551F      		rol r21
 3189 1126 EA95      	2:	dec r30
 3190 1128 02F4      		brpl 1b
 3191 112a 8091 0000 		lds r24,sectorsPerCluster
 3192 112e 90E0      		ldi r25,lo8(0)
 3193 1130 0197      		sbiw r24,1
 3194 1132 8821      		and r24,r8
 3195 1134 9921      		and r25,r9
 3196 1136 A0E0      		ldi r26,lo8(0)
 3197 1138 B0E0      		ldi r27,hi8(0)
 3198 113a 280F      		add r18,r24
 3199 113c 391F      		adc r19,r25
 3200 113e 4A1F      		adc r20,r26
 3201 1140 5B1F      		adc r21,r27
 3202 1142 89E0      		ldi r24,9
 3203 1144 220F      	1:	lsl r18
 3204 1146 331F      		rol r19
 3205 1148 441F      		rol r20
 3206 114a 551F      		rol r21
 3207 114c 8A95      		dec r24
 3208 114e 01F4      		brne 1b
 3209               	.LM455:
 3210 1150 8091 0000 		lds r24,userAddr
 3211 1154 9091 0000 		lds r25,userAddr+1
 3212 1158 A091 0000 		lds r26,userAddr+2
 3213 115c B091 0000 		lds r27,userAddr+3
 3214 1160 280F      		add r18,r24
 3215 1162 391F      		adc r19,r25
 3216 1164 4A1F      		adc r20,r26
 3217 1166 5B1F      		adc r21,r27
 3218 1168 CA01      		movw r24,r20
 3219 116a B901      		movw r22,r18
 3220 116c 0E94 0000 		call cmd17Fast
 3221               	.LVL266:
 3222               	.LBE104:
 3223               	.LBB105:
 3224               	.LM456:
 3225 1170 80E0      		ldi r24,lo8(writeData)
 3226 1172 90E0      		ldi r25,hi8(writeData)
 3227 1174 4C01      		movw r8,r24
 3228               	.LVL267:
 3229 1176 00C0      		rjmp .L185
 3230               	.LVL268:
 3231               	.L209:
 3232               	.LBE105:
 3233               	.LBB106:
 3234               	.LM457:
 3235 1178 0E94 0000 		call readByteFast
 3236 117c F401      		movw r30,r8
 3237 117e 8193      		st Z+,r24
 3238 1180 4F01      		movw r8,r30
 3239               	.LM458:
 3240 1182 F0E0      		ldi r31,lo8(writeData+512)
 3241 1184 8F16      		cp r8,r31
 3242 1186 F0E0      		ldi r31,hi8(writeData+512)
 3243 1188 9F06      		cpc r9,r31
 3244 118a 01F4      		brne .+2
 3245 118c 00C0      		rjmp .L208
 3246               	.L185:
 3247               	.LM459:
 3248 118e 4B9B      		sbis 41-32,3
 3249 1190 00C0      		rjmp .L209
 3250               	.LVL269:
 3251               	.L178:
 3252               	/* epilogue start */
 3253               	.LBE106:
 3254               	.LBE108:
 3255               	.LM460:
 3256 1192 2B96      		adiw r28,11
 3257 1194 0FB6      		in __tmp_reg__,__SREG__
 3258 1196 F894      		cli
 3259 1198 DEBF      		out __SP_H__,r29
 3260 119a 0FBE      		out __SREG__,__tmp_reg__
 3261 119c CDBF      		out __SP_L__,r28
 3262 119e CF91      		pop r28
 3263 11a0 DF91      		pop r29
 3264 11a2 1F91      		pop r17
 3265 11a4 0F91      		pop r16
 3266 11a6 FF90      		pop r15
 3267 11a8 EF90      		pop r14
 3268 11aa DF90      		pop r13
 3269 11ac CF90      		pop r12
 3270 11ae BF90      		pop r11
 3271 11b0 AF90      		pop r10
 3272               	.LVL270:
 3273 11b2 9F90      		pop r9
 3274 11b4 8F90      		pop r8
 3275 11b6 7F90      		pop r7
 3276 11b8 6F90      		pop r6
 3277 11ba 5F90      		pop r5
 3278 11bc 4F90      		pop r4
 3279 11be 3F90      		pop r3
 3280 11c0 2F90      		pop r2
 3281 11c2 0895      		ret
 3282               	.LVL271:
 3283               	.L183:
 3284               	.LBB109:
 3285               	.LM461:
 3286 11c4 20E0      		ldi r18,lo8(writeData+256)
 3287 11c6 30E0      		ldi r19,hi8(writeData+256)
 3288               	.LVL272:
 3289               	.L186:
 3290               	.LM462:
 3291 11c8 8C2D      		mov r24,r12
 3292 11ca 90E0      		ldi r25,lo8(0)
 3293 11cc 9B83      		std Y+3,r25
 3294 11ce 8A83      		std Y+2,r24
 3295               	.LVL273:
 3296               	.LBB91:
 3297               	.LM463:
 3298 11d0 8FEF      		ldi r24,lo8(-1)
 3299 11d2 D501      		movw r26,r10
 3300 11d4 9596      		adiw r26,37
 3301 11d6 8C93      		st X,r24
 3302 11d8 9597      		sbiw r26,37
 3303               	.LM464:
 3304 11da EEEF      		ldi r30,lo8(-2)
 3305 11dc 9696      		adiw r26,38
 3306 11de EC93      		st X,r30
 3307 11e0 9697      		sbiw r26,38
 3308               	.LM465:
 3309 11e2 F981      		ldd r31,Y+1
 3310 11e4 9796      		adiw r26,39
 3311 11e6 FC93      		st X,r31
 3312 11e8 9797      		sbiw r26,39
 3313               	.LM466:
 3314 11ea 8885      		ldd r24,Y+8
 3315 11ec 9896      		adiw r26,40
 3316 11ee 8C93      		st X,r24
 3317 11f0 9897      		sbiw r26,40
 3318               	.LM467:
 3319 11f2 8A81      		ldd r24,Y+2
 3320 11f4 9B81      		ldd r25,Y+3
 3321 11f6 9695      		lsr r25
 3322 11f8 8795      		ror r24
 3323 11fa 8A6A      		ori r24,lo8(-86)
 3324 11fc 9996      		adiw r26,41
 3325 11fe 8C93      		st X,r24
 3326 1200 9997      		sbiw r26,41
 3327               	.LM468:
 3328 1202 8C2D      		mov r24,r12
 3329 1204 8A6A      		ori r24,lo8(-86)
 3330 1206 9A96      		adiw r26,42
 3331 1208 8C93      		st X,r24
 3332 120a 9A97      		sbiw r26,42
 3333               	.LM469:
 3334 120c 9985      		ldd r25,Y+9
 3335 120e 9C25      		eor r25,r12
 3336               	.LVL274:
 3337               	.LM470:
 3338 1210 892F      		mov r24,r25
 3339 1212 8695      		lsr r24
 3340 1214 8A6A      		ori r24,lo8(-86)
 3341 1216 9B96      		adiw r26,43
 3342 1218 8C93      		st X,r24
 3343 121a 9B97      		sbiw r26,43
 3344               	.LM471:
 3345 121c 9A6A      		ori r25,lo8(-86)
 3346               	.LVL275:
 3347 121e 9C96      		adiw r26,44
 3348 1220 9C93      		st X,r25
 3349               	.LVL276:
 3350               	.LM472:
 3351 1222 A901      		movw r20,r18
 3352 1224 4A5A      		subi r20,lo8(-(86))
 3353 1226 5F4F      		sbci r21,hi8(-(86))
 3354 1228 60E0      		ldi r22,lo8(writeData+568)
 3355 122a 70E0      		ldi r23,hi8(writeData+568)
 3356 122c D901      		movw r26,r18
 3357               	.LM473:
 3358 122e 00E0      		ldi r16,lo8(0)
 3359               	.LM474:
 3360 1230 80E0      		ldi r24,lo8(0)
 3361 1232 90E0      		ldi r25,hi8(0)
 3362 1234 4901      		movw r8,r18
 3363 1236 00C0      		rjmp .L188
 3364               	.LVL277:
 3365               	.L211:
 3366               	.LBB95:
 3367               	.LM475:
 3368 1238 FD01      		movw r30,r26
 3369 123a E555      		subi r30,lo8(-(171))
 3370 123c FF4F      		sbci r31,hi8(-(171))
 3371               	.LM476:
 3372 123e E081      		ld r30,Z
 3373 1240 F0E0      		ldi r31,lo8(0)
 3374 1242 E370      		andi r30,lo8(3)
 3375 1244 F070      		andi r31,hi8(3)
 3376 1246 E050      		subi r30,lo8(-(FlipBit3))
 3377 1248 F040      		sbci r31,hi8(-(FlipBit3))
 3378               	/* #APP */
 3379               	 ;  886 "sdisk2.c" 1
 3380 124a E491      		lpm r30, Z
 3381               		
 3382               	 ;  0 "" 2
 3383               	.LVL278:
 3384               	/* #NOAPP */
 3385               	.L187:
 3386               	.LBE95:
 3387               	.LM477:
 3388 124c 2E2B      		or r18,r30
 3389               	.LVL279:
 3390               	.LBB96:
 3391               	.LM478:
 3392 124e 0227      		eor r16,r18
 3393               	.LVL280:
 3394 1250 E02F      		mov r30,r16
 3395 1252 F0E0      		ldi r31,lo8(0)
 3396 1254 E050      		subi r30,lo8(-(encTable))
 3397 1256 F040      		sbci r31,hi8(-(encTable))
 3398               	/* #APP */
 3399               	 ;  887 "sdisk2.c" 1
 3400 1258 3491      		lpm r19, Z
 3401               		
 3402               	 ;  0 "" 2
 3403               	.LVL281:
 3404               	/* #NOAPP */
 3405               	.LBE96:
 3406 125a FB01      		movw r30,r22
 3407 125c 3193      		st Z+,r19
 3408 125e BF01      		movw r22,r30
 3409               	.LVL282:
 3410               	.LM479:
 3411 1260 0196      		adiw r24,1
 3412               	.LVL283:
 3413 1262 8635      		cpi r24,86
 3414 1264 9105      		cpc r25,__zero_reg__
 3415 1266 01F0      		breq .L210
 3416               	.LM480:
 3417 1268 022F      		mov r16,r18
 3418               	.LVL284:
 3419               	.L188:
 3420               	.LBB97:
 3421 126a ED91      		ld r30,X+
 3422 126c F0E0      		ldi r31,lo8(0)
 3423 126e E370      		andi r30,lo8(3)
 3424 1270 F070      		andi r31,hi8(3)
 3425 1272 E050      		subi r30,lo8(-(FlipBit1))
 3426 1274 F040      		sbci r31,hi8(-(FlipBit1))
 3427               	/* #APP */
 3428               	 ;  884 "sdisk2.c" 1
 3429 1276 3491      		lpm r19, Z
 3430               		
 3431               	 ;  0 "" 2
 3432               	.LVL285:
 3433               	/* #NOAPP */
 3434               	.LBE97:
 3435               	.LBB98:
 3436               	.LM481:
 3437 1278 FA01      		movw r30,r20
 3438 127a 2191      		ld r18,Z+
 3439 127c AF01      		movw r20,r30
 3440 127e E22F      		mov r30,r18
 3441               	.LVL286:
 3442 1280 F0E0      		ldi r31,lo8(0)
 3443 1282 E370      		andi r30,lo8(3)
 3444 1284 F070      		andi r31,hi8(3)
 3445 1286 E050      		subi r30,lo8(-(FlipBit2))
 3446 1288 F040      		sbci r31,hi8(-(FlipBit2))
 3447               	/* #APP */
 3448               	 ;  885 "sdisk2.c" 1
 3449 128a 2491      		lpm r18, Z
 3450               		
 3451               	 ;  0 "" 2
 3452               	.LVL287:
 3453               	/* #NOAPP */
 3454               	.LBE98:
 3455               	.LM482:
 3456 128c 232B      		or r18,r19
 3457               	.LVL288:
 3458 128e 8435      		cpi r24,84
 3459 1290 9105      		cpc r25,__zero_reg__
 3460 1292 00F0      		brlo .L211
 3461 1294 E0E0      		ldi r30,lo8(0)
 3462 1296 00C0      		rjmp .L187
 3463               	.LVL289:
 3464               	.L210:
 3465 1298 C22E      		mov r12,r18
 3466               	.LVL290:
 3467 129a 9401      		movw r18,r8
 3468               	.LVL291:
 3469               	.LM483:
 3470 129c A0E0      		ldi r26,lo8(writeData+654)
 3471 129e B0E0      		ldi r27,hi8(writeData+654)
 3472 12a0 9C2D      		mov r25,r12
 3473 12a2 00C0      		rjmp .L189
 3474               	.LVL292:
 3475               	.L199:
 3476               	.LM484:
 3477 12a4 982F      		mov r25,r24
 3478               	.LVL293:
 3479               	.L189:
 3480               	.LM485:
 3481 12a6 F901      		movw r30,r18
 3482 12a8 8191      		ld r24,Z+
 3483 12aa 9F01      		movw r18,r30
 3484 12ac 8695      		lsr r24
 3485 12ae 8695      		lsr r24
 3486               	.LVL294:
 3487               	.LBB99:
 3488               	.LM486:
 3489 12b0 E92F      		mov r30,r25
 3490 12b2 E827      		eor r30,r24
 3491 12b4 F0E0      		ldi r31,lo8(0)
 3492 12b6 E050      		subi r30,lo8(-(encTable))
 3493 12b8 F040      		sbci r31,hi8(-(encTable))
 3494               	/* #APP */
 3495               	 ;  892 "sdisk2.c" 1
 3496 12ba E491      		lpm r30, Z
 3497               		
 3498               	 ;  0 "" 2
 3499               	.LVL295:
 3500               	/* #NOAPP */
 3501               	.LBE99:
 3502 12bc ED93      		st X+,r30
 3503               	.LVL296:
 3504               	.LM487:
 3505 12be F0E0      		ldi r31,hi8(writeData+910)
 3506 12c0 A030      		cpi r26,lo8(writeData+910)
 3507 12c2 BF07      		cpc r27,r31
 3508 12c4 01F4      		brne .L199
 3509               	.LVL297:
 3510               	.LBB100:
 3511               	.LM488:
 3512 12c6 E82F      		mov r30,r24
 3513               	.LVL298:
 3514 12c8 F0E0      		ldi r31,lo8(0)
 3515 12ca E050      		subi r30,lo8(-(encTable))
 3516 12cc F040      		sbci r31,hi8(-(encTable))
 3517               	/* #APP */
 3518               	 ;  895 "sdisk2.c" 1
 3519 12ce E491      		lpm r30, Z
 3520               		
 3521               	 ;  0 "" 2
 3522               	.LVL299:
 3523               	/* #NOAPP */
 3524               	.LBE100:
 3525 12d0 E093 0000 		sts writeData+910,r30
 3526               	.LBE91:
 3527               	.LBB90:
 3528               	.LM489:
 3529 12d4 8A84      		ldd r8,Y+10
 3530 12d6 9B84      		ldd r9,Y+11
 3531               	.LVL300:
 3532 12d8 8A81      		ldd r24,Y+2
 3533 12da 9B81      		ldd r25,Y+3
 3534               	.LVL301:
 3535 12dc 880E      		add r8,r24
 3536 12de 991E      		adc r9,r25
 3537               	.LVL302:
 3538               	.LM490:
 3539 12e0 3091 0000 		lds r19,sectorsPerCluster2
 3540               	.LVL303:
 3541 12e4 D401      		movw r26,r8
 3542               	.LVL304:
 3543 12e6 032E      		mov r0,r19
 3544 12e8 00C0      		rjmp 2f
 3545 12ea B695      	1:	lsr r27
 3546 12ec A795      		ror r26
 3547 12ee 0A94      	2:	dec r0
 3548 12f0 02F4      		brpl 1b
 3549 12f2 BB83      		std Y+3,r27
 3550 12f4 AA83      		std Y+2,r26
 3551               	.LVL305:
 3552               	.LM491:
 3553 12f6 CD01      		movw r24,r26
 3554 12f8 63E2      		ldi r22,lo8(35)
 3555 12fa 70E0      		ldi r23,hi8(35)
 3556               	.LVL306:
 3557 12fc 0E94 0000 		call __udivmodhi4
 3558               	.LVL307:
 3559 1300 262F      		mov r18,r22
 3560               	.LVL308:
 3561               	.LM492:
 3562 1302 8091 0000 		lds r24,prevFatNumNic
 3563 1306 8617      		cp r24,r22
 3564 1308 01F0      		breq .L190
 3565               	.LM493:
 3566 130a 6093 0000 		sts prevFatNumNic,r22
 3567               	.LM494:
 3568 130e 4091 0000 		lds r20,sectorsPerCluster
 3569 1312 50E0      		ldi r21,lo8(0)
 3570 1314 415D      		subi r20,lo8(-(559))
 3571 1316 5D4F      		sbci r21,hi8(-(559))
 3572 1318 00C0      		rjmp 2f
 3573 131a 5595      	1:	asr r21
 3574 131c 4795      		ror r20
 3575 131e 3A95      	2:	dec r19
 3576 1320 02F4      		brpl 1b
 3577 1322 8091 0000 		lds r24,nicDir
 3578 1326 9091 0000 		lds r25,nicDir+1
 3579 132a 60E0      		ldi r22,lo8(fatNic)
 3580 132c 70E0      		ldi r23,hi8(fatNic)
 3581               	.LVL309:
 3582 132e 03E2      		ldi r16,lo8(35)
 3583 1330 0E94 0000 		call prepareFat
 3584               	.LVL310:
 3585 1334 3091 0000 		lds r19,sectorsPerCluster2
 3586               	.L190:
 3587               	.LM495:
 3588 1338 8A81      		ldd r24,Y+2
 3589 133a 9B81      		ldd r25,Y+3
 3590 133c 63E2      		ldi r22,lo8(35)
 3591 133e 70E0      		ldi r23,hi8(35)
 3592 1340 0E94 0000 		call __udivmodhi4
 3593 1344 880F      		lsl r24
 3594 1346 991F      		rol r25
 3595 1348 8050      		subi r24,lo8(-(fatNic))
 3596 134a 9040      		sbci r25,hi8(-(fatNic))
 3597 134c FC01      		movw r30,r24
 3598 134e 4081      		ld r20,Z
 3599 1350 5181      		ldd r21,Z+1
 3600               	.LVL311:
 3601               	.LM496:
 3602 1352 82EC      		ldi r24,lo8(-62)
 3603               	.LVL312:
 3604 1354 8BB9      		out 43-32,r24
 3605               	.LM497:
 3606 1356 1BB9      		out 43-32,r17
 3607               	.LM498:
 3608 1358 4250      		subi r20,lo8(-(-2))
 3609 135a 5040      		sbci r21,hi8(-(-2))
 3610 135c 60E0      		ldi r22,lo8(0)
 3611 135e 70E0      		ldi r23,hi8(0)
 3612 1360 00C0      		rjmp 2f
 3613 1362 440F      	1:	lsl r20
 3614 1364 551F      		rol r21
 3615 1366 661F      		rol r22
 3616 1368 771F      		rol r23
 3617 136a 3A95      	2:	dec r19
 3618 136c 02F4      		brpl 1b
 3619               	.LM499:
 3620 136e 8091 0000 		lds r24,sectorsPerCluster
 3621 1372 90E0      		ldi r25,lo8(0)
 3622 1374 0197      		sbiw r24,1
 3623 1376 8821      		and r24,r8
 3624 1378 9921      		and r25,r9
 3625 137a A0E0      		ldi r26,lo8(0)
 3626 137c B0E0      		ldi r27,hi8(0)
 3627 137e 480F      		add r20,r24
 3628 1380 591F      		adc r21,r25
 3629 1382 6A1F      		adc r22,r26
 3630 1384 7B1F      		adc r23,r27
 3631 1386 E9E0      		ldi r30,9
 3632 1388 440F      	1:	lsl r20
 3633 138a 551F      		rol r21
 3634 138c 661F      		rol r22
 3635 138e 771F      		rol r23
 3636 1390 EA95      		dec r30
 3637 1392 01F4      		brne 1b
 3638               	.LVL313:
 3639               	.LM500:
 3640 1394 8091 0000 		lds r24,userAddr
 3641 1398 9091 0000 		lds r25,userAddr+1
 3642 139c A091 0000 		lds r26,userAddr+2
 3643 13a0 B091 0000 		lds r27,userAddr+3
 3644 13a4 480F      		add r20,r24
 3645 13a6 591F      		adc r21,r25
 3646 13a8 6A1F      		adc r22,r26
 3647 13aa 7B1F      		adc r23,r27
 3648 13ac 88E1      		ldi r24,lo8(24)
 3649 13ae 0E94 0000 		call cmdFast
 3650               	.LM501:
 3651 13b2 8FEF      		ldi r24,lo8(-1)
 3652 13b4 0E94 0000 		call writeByteFast
 3653               	.LM502:
 3654 13b8 8EEF      		ldi r24,lo8(-2)
 3655 13ba 0E94 0000 		call writeByteFast
 3656               	.LVL314:
 3657 13be 9E81      		ldd r25,Y+6
 3658 13c0 8F81      		ldd r24,Y+7
 3659 13c2 E92F      		mov r30,r25
 3660 13c4 F82F      		mov r31,r24
 3661               	.LVL315:
 3662               	.L194:
 3663               	.LM503:
 3664 13c6 4B99      		sbic 41-32,3
 3665 13c8 00C0      		rjmp .L178
 3666               	.LM504:
 3667 13ca 4191      		ld r20,Z+
 3668               	.LVL316:
 3669 13cc 88E0      		ldi r24,lo8(8)
 3670 13ce 90E0      		ldi r25,hi8(8)
 3671               	.LM505:
 3672 13d0 20E8      		ldi r18,lo8(-128)
 3673 13d2 00C0      		rjmp .L193
 3674               	.LVL317:
 3675               	.L213:
 3676               	.LM506:
 3677 13d4 EBB8      		out 43-32,r14
 3678               	.LM507:
 3679 13d6 DBB8      		out 43-32,r13
 3680               	.LM508:
 3681 13d8 2695      		lsr r18
 3682               	.LVL318:
 3683 13da 0197      		sbiw r24,1
 3684 13dc 01F0      		breq .L212
 3685               	.LVL319:
 3686               	.L193:
 3687               	.LM509:
 3688 13de 322F      		mov r19,r18
 3689 13e0 3423      		and r19,r20
 3690 13e2 01F4      		brne .L213
 3691               	.LM510:
 3692 13e4 1BB9      		out 43-32,r17
 3693               	.LM511:
 3694 13e6 FBB8      		out 43-32,r15
 3695               	.LM512:
 3696 13e8 2695      		lsr r18
 3697               	.LVL320:
 3698 13ea 0197      		sbiw r24,1
 3699 13ec 01F4      		brne .L193
 3700               	.L212:
 3701               	.LM513:
 3702 13ee 80E0      		ldi r24,hi8(writeData+1024)
 3703 13f0 E030      		cpi r30,lo8(writeData+1024)
 3704 13f2 F807      		cpc r31,r24
 3705 13f4 01F4      		brne .L194
 3706               	.LM514:
 3707 13f6 1BB9      		out 43-32,r17
 3708               	.LM515:
 3709 13f8 8FEF      		ldi r24,lo8(-1)
 3710 13fa 0E94 0000 		call writeByteFast
 3711               	.LVL321:
 3712               	.LM516:
 3713 13fe 8FEF      		ldi r24,lo8(-1)
 3714 1400 0E94 0000 		call writeByteFast
 3715               	.LM517:
 3716 1404 0E94 0000 		call readByteFast
 3717               	.LM518:
 3718 1408 0E94 0000 		call waitFinish
 3719               	.LM519:
 3720 140c 82EC      		ldi r24,lo8(-62)
 3721 140e 8BB9      		out 43-32,r24
 3722               	.LM520:
 3723 1410 1BB9      		out 43-32,r17
 3724 1412 0894      		sec
 3725 1414 211C      		adc r2,__zero_reg__
 3726 1416 311C      		adc r3,__zero_reg__
 3727               	.LVL322:
 3728               	.LBE90:
 3729               	.LBE109:
 3730               	.LM521:
 3731 1418 90E1      		ldi r25,lo8(16)
 3732 141a 2916      		cp r2,r25
 3733 141c 3104      		cpc r3,__zero_reg__
 3734 141e 01F0      		breq .+2
 3735 1420 00C0      		rjmp .L195
 3736 1422 0894      		sec
 3737 1424 611C      		adc r6,__zero_reg__
 3738 1426 711C      		adc r7,__zero_reg__
 3739 1428 AC81      		ldd r26,Y+4
 3740 142a BD81      		ldd r27,Y+5
 3741 142c 1896      		adiw r26,8
 3742 142e BD83      		std Y+5,r27
 3743 1430 AC83      		std Y+4,r26
 3744               	.LM522:
 3745 1432 B3E2      		ldi r27,lo8(35)
 3746 1434 6B16      		cp r6,r27
 3747 1436 7104      		cpc r7,__zero_reg__
 3748 1438 01F0      		breq .+2
 3749 143a 00C0      		rjmp .L196
 3750               	.LM523:
 3751 143c 0E94 0000 		call buffClear
 3752               	.LM524:
 3753 1440 2C98      		cbi 37-32,4
 3754 1442 00C0      		rjmp .L178
 3755               	.LVL323:
 3756               	.L208:
 3757               	.LBB110:
 3758               	.LBB107:
 3759               	.LM525:
 3760 1444 0E94 0000 		call readByteFast
 3761 1448 0E94 0000 		call readByteFast
 3762               	.LM526:
 3763 144c 20E0      		ldi r18,lo8(writeData)
 3764 144e 30E0      		ldi r19,hi8(writeData)
 3765 1450 00C0      		rjmp .L186
 3766               	.LBE107:
 3767               	.LBE110:
 3768               	.LFE34:
 3770               	.global	makeFileNameList
 3772               	makeFileNameList:
 3773               	.LFB35:
 3774               	.LM527:
 3775               	.LVL324:
 3776 1452 2F92      		push r2
 3777 1454 3F92      		push r3
 3778 1456 4F92      		push r4
 3779 1458 5F92      		push r5
 3780 145a 6F92      		push r6
 3781 145c 7F92      		push r7
 3782 145e 8F92      		push r8
 3783 1460 9F92      		push r9
 3784 1462 AF92      		push r10
 3785 1464 BF92      		push r11
 3786 1466 CF92      		push r12
 3787 1468 DF92      		push r13
 3788 146a EF92      		push r14
 3789 146c FF92      		push r15
 3790 146e 0F93      		push r16
 3791 1470 1F93      		push r17
 3792 1472 DF93      		push r29
 3793 1474 CF93      		push r28
 3794 1476 CDB7      		in r28,__SP_L__
 3795 1478 DEB7      		in r29,__SP_H__
 3796 147a 6597      		sbiw r28,21
 3797 147c 0FB6      		in __tmp_reg__,__SREG__
 3798 147e F894      		cli
 3799 1480 DEBF      		out __SP_H__,r29
 3800 1482 0FBE      		out __SREG__,__tmp_reg__
 3801 1484 CDBF      		out __SP_L__,r28
 3802               	/* prologue: function */
 3803               	/* frame size = 21 */
 3804               	/* stack size = 39 */
 3805               	.L__stack_usage = 39
 3806 1486 1C01      		movw r2,r24
 3807 1488 3B01      		movw r6,r22
 3808               	.LVL325:
 3809               	.LM528:
 3810 148a 80E0      		ldi r24,lo8(0)
 3811               	.LVL326:
 3812 148c 60E0      		ldi r22,lo8(0)
 3813               	.LVL327:
 3814 148e 0E94 0000 		call lcd_gotoxy
 3815               	.LM529:
 3816 1492 80E0      		ldi r24,lo8(MSG5)
 3817 1494 90E0      		ldi r25,hi8(MSG5)
 3818 1496 0E94 0000 		call lcd_puts_p
 3819               	.LVL328:
 3820 149a EE24      		clr r14
 3821 149c FF24      		clr r15
 3822 149e 8701      		movw r16,r14
 3823               	.LM530:
 3824 14a0 AA24      		clr r10
 3825 14a2 BB24      		clr r11
 3826               	.LM531:
 3827 14a4 CC24      		clr r12
 3828 14a6 DD24      		clr r13
 3829               	.LBB111:
 3830               	.LM532:
 3831 14a8 4E01      		movw r8,r28
 3832 14aa 0894      		sec
 3833 14ac 811C      		adc r8,__zero_reg__
 3834 14ae 911C      		adc r9,__zero_reg__
 3835               	.LVL329:
 3836               	.L218:
 3837               	.LM533:
 3838 14b0 4B99      		sbic 41-32,3
 3839 14b2 00C0      		rjmp .L223
 3840               	.LM534:
 3841 14b4 80E1      		ldi r24,lo8(16)
 3842 14b6 41E0      		ldi r20,lo8(1)
 3843 14b8 50E0      		ldi r21,hi8(1)
 3844 14ba 60E0      		ldi r22,hlo8(1)
 3845 14bc 70E0      		ldi r23,hhi8(1)
 3846 14be 0E94 0000 		call cmdFast
 3847               	.LM535:
 3848 14c2 6091 0000 		lds r22,rootAddr
 3849 14c6 7091 0000 		lds r23,rootAddr+1
 3850 14ca 8091 0000 		lds r24,rootAddr+2
 3851 14ce 9091 0000 		lds r25,rootAddr+3
 3852 14d2 6E0D      		add r22,r14
 3853 14d4 7F1D      		adc r23,r15
 3854 14d6 801F      		adc r24,r16
 3855 14d8 911F      		adc r25,r17
 3856 14da 0E94 0000 		call cmd17Fast
 3857               	.LM536:
 3858 14de 0E94 0000 		call readByteFast
 3859 14e2 482E      		mov r4,r24
 3860               	.LVL330:
 3861               	.LM537:
 3862 14e4 0E94 0000 		call readByteFast
 3863               	.LVL331:
 3864 14e8 0E94 0000 		call readByteFast
 3865               	.LM538:
 3866 14ec 4420      		tst r4
 3867 14ee 01F4      		brne .+2
 3868 14f0 00C0      		rjmp .L216
 3869               	.LM539:
 3870 14f2 842D      		mov r24,r4
 3871 14f4 8530      		cpi r24,lo8(5)
 3872 14f6 01F4      		brne .+2
 3873 14f8 00C0      		rjmp .L216
 3874 14fa 8E32      		cpi r24,lo8(46)
 3875 14fc 01F4      		brne .+2
 3876 14fe 00C0      		rjmp .L216
 3877 1500 853E      		cpi r24,lo8(-27)
 3878 1502 01F4      		brne .+2
 3879 1504 00C0      		rjmp .L216
 3880               	.LM540:
 3881 1506 8154      		subi r24,lo8(-(-65))
 3882 1508 8A31      		cpi r24,lo8(26)
 3883 150a 00F0      		brlo .L217
 3884               	.LM541:
 3885 150c 8F5E      		subi r24,lo8(-(17))
 3886 150e 8A30      		cpi r24,lo8(10)
 3887 1510 00F0      		brlo .+2
 3888 1512 00C0      		rjmp .L216
 3889               	.L217:
 3890               	.LM542:
 3891 1514 6091 0000 		lds r22,rootAddr
 3892 1518 7091 0000 		lds r23,rootAddr+1
 3893 151c 8091 0000 		lds r24,rootAddr+2
 3894 1520 9091 0000 		lds r25,rootAddr+3
 3895 1524 655F      		subi r22,lo8(-(11))
 3896 1526 7F4F      		sbci r23,hi8(-(11))
 3897 1528 8F4F      		sbci r24,hlo8(-(11))
 3898 152a 9F4F      		sbci r25,hhi8(-(11))
 3899 152c 6E0D      		add r22,r14
 3900 152e 7F1D      		adc r23,r15
 3901 1530 801F      		adc r24,r16
 3902 1532 911F      		adc r25,r17
 3903 1534 0E94 0000 		call cmd17Fast
 3904               	.LM543:
 3905 1538 0E94 0000 		call readByteFast
 3906 153c 482E      		mov r4,r24
 3907               	.LVL332:
 3908               	.LM544:
 3909 153e 0E94 0000 		call readByteFast
 3910               	.LVL333:
 3911 1542 0E94 0000 		call readByteFast
 3912               	.LM545:
 3913 1546 842D      		mov r24,r4
 3914 1548 8E71      		andi r24,lo8(30)
 3915 154a 01F4      		brne .L216
 3916               	.LM546:
 3917 154c 942D      		mov r25,r4
 3918 154e 9F30      		cpi r25,lo8(15)
 3919 1550 01F0      		breq .L216
 3920               	.LM547:
 3921 1552 80E1      		ldi r24,lo8(16)
 3922 1554 43E0      		ldi r20,lo8(3)
 3923 1556 50E0      		ldi r21,hi8(3)
 3924 1558 60E0      		ldi r22,hlo8(3)
 3925 155a 70E0      		ldi r23,hhi8(3)
 3926 155c 0E94 0000 		call cmdFast
 3927               	.LM548:
 3928 1560 6091 0000 		lds r22,rootAddr
 3929 1564 7091 0000 		lds r23,rootAddr+1
 3930 1568 8091 0000 		lds r24,rootAddr+2
 3931 156c 9091 0000 		lds r25,rootAddr+3
 3932 1570 685F      		subi r22,lo8(-(8))
 3933 1572 7F4F      		sbci r23,hi8(-(8))
 3934 1574 8F4F      		sbci r24,hlo8(-(8))
 3935 1576 9F4F      		sbci r25,hhi8(-(8))
 3936 1578 6E0D      		add r22,r14
 3937 157a 7F1D      		adc r23,r15
 3938 157c 801F      		adc r24,r16
 3939 157e 911F      		adc r25,r17
 3940 1580 0E94 0000 		call cmd17Fast
 3941               	.LVL334:
 3942               	.LM549:
 3943 1584 0E94 0000 		call readByteFast
 3944 1588 8983      		std Y+1,r24
 3945               	.LVL335:
 3946 158a 0E94 0000 		call readByteFast
 3947 158e 8A83      		std Y+2,r24
 3948               	.LVL336:
 3949 1590 0E94 0000 		call readByteFast
 3950 1594 8B83      		std Y+3,r24
 3951               	.LVL337:
 3952               	.LM550:
 3953 1596 0E94 0000 		call readByteFast
 3954 159a 0E94 0000 		call readByteFast
 3955               	.LM551:
 3956 159e C401      		movw r24,r8
 3957 15a0 B301      		movw r22,r6
 3958 15a2 43E0      		ldi r20,lo8(3)
 3959 15a4 50E0      		ldi r21,hi8(3)
 3960 15a6 0E94 0000 		call memcmp
 3961 15aa 0097      		sbiw r24,0
 3962 15ac 01F4      		brne .L216
 3963               	.LM552:
 3964 15ae F501      		movw r30,r10
 3965 15b0 EE0F      		lsl r30
 3966 15b2 FF1F      		rol r31
 3967 15b4 E20D      		add r30,r2
 3968 15b6 F31D      		adc r31,r3
 3969 15b8 D182      		std Z+1,r13
 3970 15ba C082      		st Z,r12
 3971 15bc 0894      		sec
 3972 15be A11C      		adc r10,__zero_reg__
 3973 15c0 B11C      		adc r11,__zero_reg__
 3974               	.LVL338:
 3975               	.L216:
 3976               	.LBE111:
 3977               	.LM553:
 3978 15c2 0894      		sec
 3979 15c4 C11C      		adc r12,__zero_reg__
 3980 15c6 D11C      		adc r13,__zero_reg__
 3981               	.LVL339:
 3982 15c8 80E2      		ldi r24,lo8(32)
 3983 15ca 90E0      		ldi r25,hi8(32)
 3984 15cc A0E0      		ldi r26,hlo8(32)
 3985 15ce B0E0      		ldi r27,hhi8(32)
 3986 15d0 E80E      		add r14,r24
 3987 15d2 F91E      		adc r15,r25
 3988 15d4 0A1F      		adc r16,r26
 3989 15d6 1B1F      		adc r17,r27
 3990 15d8 90E0      		ldi r25,lo8(512)
 3991 15da C916      		cp r12,r25
 3992 15dc 92E0      		ldi r25,hi8(512)
 3993 15de D906      		cpc r13,r25
 3994 15e0 01F0      		breq .+2
 3995 15e2 00C0      		rjmp .L218
 3996 15e4 2501      		movw r4,r10
 3997               	.LVL340:
 3998               	.LM554:
 3999 15e6 A2E0      		ldi r26,lo8(2)
 4000 15e8 AA16      		cp r10,r26
 4001 15ea B104      		cpc r11,__zero_reg__
 4002 15ec 00F4      		brsh .+2
 4003 15ee 00C0      		rjmp .L215
 4004               	.LVL341:
 4005               	.LM555:
 4006 15f0 F501      		movw r30,r10
 4007 15f2 3297      		sbiw r30,2
 4008 15f4 FD8B      		std Y+21,r31
 4009 15f6 EC8B      		std Y+20,r30
 4010 15f8 4501      		movw r8,r10
 4011 15fa 0894      		sec
 4012 15fc 8108      		sbc r8,__zero_reg__
 4013 15fe 9108      		sbc r9,__zero_reg__
 4014 1600 6624      		clr r6
 4015 1602 7724      		clr r7
 4016               	.LVL342:
 4017 1604 14E0      		ldi r17,lo8(4)
 4018 1606 C12E      		mov r12,r17
 4019 1608 D12C      		mov r13,__zero_reg__
 4020 160a CC0E      		add r12,r28
 4021 160c DD1E      		adc r13,r29
 4022 160e BCE0      		ldi r27,lo8(12)
 4023 1610 AB2E      		mov r10,r27
 4024 1612 B12C      		mov r11,__zero_reg__
 4025               	.LVL343:
 4026 1614 AC0E      		add r10,r28
 4027 1616 BD1E      		adc r11,r29
 4028               	.LVL344:
 4029               	.L219:
 4030               	.LM556:
 4031 1618 8114      		cp r8,__zero_reg__
 4032 161a 9104      		cpc r9,__zero_reg__
 4033 161c 01F0      		breq .L222
 4034               	.LM557:
 4035 161e 8101      		movw r16,r2
 4036 1620 A1E0      		ldi r26,lo8(1)
 4037 1622 EA2E      		mov r14,r26
 4038 1624 F12C      		mov r15,__zero_reg__
 4039 1626 00C0      		rjmp .L221
 4040               	.LVL345:
 4041               	.L220:
 4042 1628 0894      		sec
 4043 162a E11C      		adc r14,__zero_reg__
 4044 162c F11C      		adc r15,__zero_reg__
 4045               	.LVL346:
 4046 162e 0E5F      		subi r16,lo8(-(2))
 4047 1630 1F4F      		sbci r17,hi8(-(2))
 4048 1632 8E14      		cp r8,r14
 4049 1634 9F04      		cpc r9,r15
 4050 1636 00F0      		brlo .L222
 4051               	.LVL347:
 4052               	.L221:
 4053               	.LM558:
 4054 1638 D801      		movw r26,r16
 4055 163a 1296      		adiw r26,2
 4056 163c 8D91      		ld r24,X+
 4057 163e 9C91      		ld r25,X
 4058 1640 1397      		sbiw r26,2+1
 4059 1642 B601      		movw r22,r12
 4060 1644 0E94 0000 		call getFileName
 4061               	.LM559:
 4062 1648 F801      		movw r30,r16
 4063 164a 8081      		ld r24,Z
 4064 164c 9181      		ldd r25,Z+1
 4065 164e B501      		movw r22,r10
 4066 1650 0E94 0000 		call getFileName
 4067               	.LM560:
 4068 1654 C601      		movw r24,r12
 4069 1656 B501      		movw r22,r10
 4070 1658 48E0      		ldi r20,lo8(8)
 4071 165a 50E0      		ldi r21,hi8(8)
 4072 165c 0E94 0000 		call memcmp
 4073 1660 97FF      		sbrs r25,7
 4074 1662 00C0      		rjmp .L220
 4075               	.LM561:
 4076 1664 D801      		movw r26,r16
 4077 1666 1296      		adiw r26,2
 4078 1668 8D91      		ld r24,X+
 4079 166a 9C91      		ld r25,X
 4080 166c 1397      		sbiw r26,2+1
 4081               	.LVL348:
 4082               	.LM562:
 4083 166e 2D91      		ld r18,X+
 4084 1670 3C91      		ld r19,X
 4085 1672 1197      		sbiw r26,1
 4086 1674 1396      		adiw r26,2+1
 4087 1676 3C93      		st X,r19
 4088 1678 2E93      		st -X,r18
 4089 167a 1297      		sbiw r26,2
 4090               	.LM563:
 4091 167c 1196      		adiw r26,1
 4092 167e 9C93      		st X,r25
 4093 1680 8E93      		st -X,r24
 4094               	.LM564:
 4095 1682 0894      		sec
 4096 1684 E11C      		adc r14,__zero_reg__
 4097 1686 F11C      		adc r15,__zero_reg__
 4098               	.LVL349:
 4099 1688 0E5F      		subi r16,lo8(-(2))
 4100 168a 1F4F      		sbci r17,hi8(-(2))
 4101               	.LVL350:
 4102 168c 8E14      		cp r8,r14
 4103 168e 9F04      		cpc r9,r15
 4104 1690 00F4      		brsh .L221
 4105               	.LVL351:
 4106               	.L222:
 4107               	.LM565:
 4108 1692 0894      		sec
 4109 1694 611C      		adc r6,__zero_reg__
 4110 1696 711C      		adc r7,__zero_reg__
 4111               	.LVL352:
 4112 1698 0894      		sec
 4113 169a 8108      		sbc r8,__zero_reg__
 4114 169c 9108      		sbc r9,__zero_reg__
 4115 169e EC89      		ldd r30,Y+20
 4116 16a0 FD89      		ldd r31,Y+21
 4117 16a2 E615      		cp r30,r6
 4118 16a4 F705      		cpc r31,r7
 4119 16a6 00F0      		brlo .+2
 4120 16a8 00C0      		rjmp .L219
 4121 16aa 00C0      		rjmp .L215
 4122               	.LVL353:
 4123               	.L223:
 4124               	.LBB112:
 4125               	.LM566:
 4126 16ac 412C      		mov r4,__zero_reg__
 4127 16ae F2E0      		ldi r31,hi8(512)
 4128 16b0 5F2E      		mov r5,r31
 4129               	.LVL354:
 4130               	.L215:
 4131               	.LBE112:
 4132               	.LM567:
 4133 16b2 C201      		movw r24,r4
 4134               	/* epilogue start */
 4135 16b4 6596      		adiw r28,21
 4136 16b6 0FB6      		in __tmp_reg__,__SREG__
 4137 16b8 F894      		cli
 4138 16ba DEBF      		out __SP_H__,r29
 4139 16bc 0FBE      		out __SREG__,__tmp_reg__
 4140 16be CDBF      		out __SP_L__,r28
 4141 16c0 CF91      		pop r28
 4142 16c2 DF91      		pop r29
 4143 16c4 1F91      		pop r17
 4144 16c6 0F91      		pop r16
 4145 16c8 FF90      		pop r15
 4146 16ca EF90      		pop r14
 4147 16cc DF90      		pop r13
 4148 16ce CF90      		pop r12
 4149 16d0 BF90      		pop r11
 4150 16d2 AF90      		pop r10
 4151 16d4 9F90      		pop r9
 4152 16d6 8F90      		pop r8
 4153 16d8 7F90      		pop r7
 4154 16da 6F90      		pop r6
 4155 16dc 5F90      		pop r5
 4156 16de 4F90      		pop r4
 4157 16e0 3F90      		pop r3
 4158 16e2 2F90      		pop r2
 4159               	.LVL355:
 4160 16e4 0895      		ret
 4161               	.LFE35:
 4163               		.data
 4164               	.LC0:
 4165 0000 4E49 4300 		.string	"NIC"
 4166               		.text
 4167               	.global	chooseANicFile
 4169               	chooseANicFile:
 4170               	.LFB36:
 4171               	.LM568:
 4172               	.LVL356:
 4173 16e6 2F92      		push r2
 4174 16e8 3F92      		push r3
 4175 16ea 4F92      		push r4
 4176 16ec 5F92      		push r5
 4177 16ee 6F92      		push r6
 4178 16f0 7F92      		push r7
 4179 16f2 8F92      		push r8
 4180 16f4 9F92      		push r9
 4181 16f6 AF92      		push r10
 4182 16f8 BF92      		push r11
 4183 16fa CF92      		push r12
 4184 16fc DF92      		push r13
 4185 16fe EF92      		push r14
 4186 1700 FF92      		push r15
 4187 1702 0F93      		push r16
 4188 1704 1F93      		push r17
 4189 1706 DF93      		push r29
 4190 1708 CF93      		push r28
 4191 170a CDB7      		in r28,__SP_L__
 4192 170c DEB7      		in r29,__SP_H__
 4193 170e 2B97      		sbiw r28,11
 4194 1710 0FB6      		in __tmp_reg__,__SREG__
 4195 1712 F894      		cli
 4196 1714 DEBF      		out __SP_H__,r29
 4197 1716 0FBE      		out __SREG__,__tmp_reg__
 4198 1718 CDBF      		out __SP_L__,r28
 4199               	/* prologue: function */
 4200               	/* frame size = 11 */
 4201               	/* stack size = 29 */
 4202               	.L__stack_usage = 29
 4203 171a 082F      		mov r16,r24
 4204 171c E92E      		mov r14,r25
 4205 171e C62E      		mov r12,r22
 4206 1720 4987      		std Y+9,r20
 4207 1722 5A87      		std Y+10,r21
 4208               	.LM569:
 4209 1724 882E      		mov r8,r24
 4210 1726 992E      		mov r9,r25
 4211               	.LVL357:
 4212               	.LM570:
 4213 1728 C401      		movw r24,r8
 4214               	.LVL358:
 4215 172a 60E0      		ldi r22,lo8(.LC0)
 4216 172c 70E0      		ldi r23,hi8(.LC0)
 4217               	.LVL359:
 4218 172e 0E94 0000 		call makeFileNameList
 4219               	.LVL360:
 4220 1732 1C01      		movw r2,r24
 4221               	.LVL361:
 4222               	.LM571:
 4223 1734 80E0      		ldi r24,lo8(0)
 4224               	.LVL362:
 4225 1736 60E0      		ldi r22,lo8(0)
 4226 1738 0E94 0000 		call lcd_gotoxy
 4227               	.LM572:
 4228 173c 80E0      		ldi r24,lo8(MSG6)
 4229 173e 90E0      		ldi r25,hi8(MSG6)
 4230 1740 0E94 0000 		call lcd_puts_p
 4231               	.LM573:
 4232 1744 2114      		cp r2,__zero_reg__
 4233 1746 3104      		cpc r3,__zero_reg__
 4234 1748 01F4      		brne .+2
 4235 174a 00C0      		rjmp .L256
 4236               	.LM574:
 4237 174c CC20      		tst r12
 4238 174e 01F0      		breq .+2
 4239 1750 00C0      		rjmp .L266
 4240               	.LVL363:
 4241               	.L252:
 4242               	.LM575:
 4243 1752 EE24      		clr r14
 4244 1754 FF24      		clr r15
 4245               	.L229:
 4246               	.LVL364:
 4247               	.LM576:
 4248 1756 4B99      		sbic 41-32,3
 4249 1758 00C0      		rjmp .L256
 4250 175a 2FEF      		ldi r18,lo8(-1)
 4251 175c 4FEF      		ldi r20,lo8(-1)
 4252 175e 5FEF      		ldi r21,hi8(-1)
 4253               	.LM577:
 4254 1760 6101      		movw r12,r2
 4255 1762 0894      		sec
 4256 1764 C108      		sbc r12,__zero_reg__
 4257 1766 D108      		sbc r13,__zero_reg__
 4258               	.LM578:
 4259 1768 8E01      		movw r16,r28
 4260 176a 0F5F      		subi r16,lo8(-(1))
 4261 176c 1F4F      		sbci r17,hi8(-(1))
 4262               	.LVL365:
 4263               	.L249:
 4264               	.LM579:
 4265 176e 1D99      		sbic 35-32,5
 4266 1770 00C0      		rjmp .L233
 4267               	.LM580:
 4268 1772 20FD      		sbrc r18,0
 4269 1774 00C0      		rjmp .L267
 4270               	.LVL366:
 4271               	.L234:
 4272               	.LM581:
 4273 1776 2E7F      		andi r18,lo8(-2)
 4274               	.LVL367:
 4275               	.LM582:
 4276 1778 4F99      		sbic 41-32,7
 4277 177a 00C0      		rjmp .L238
 4278               	.L270:
 4279               	.LM583:
 4280 177c 21FD      		sbrc r18,1
 4281 177e 00C0      		rjmp .L268
 4282               	.L239:
 4283               	.LM584:
 4284 1780 2D7F      		andi r18,lo8(-3)
 4285               	.LVL368:
 4286               	.L242:
 4287               	.LM585:
 4288 1782 4E99      		sbic 41-32,6
 4289 1784 00C0      		rjmp .L243
 4290               	.LM586:
 4291 1786 80E0      		ldi r24,lo8(0)
 4292 1788 90E0      		ldi r25,hi8(0)
 4293 178a 31E0      		ldi r19,lo8(1)
 4294               	.L245:
 4295               	.LBB113:
 4296               	.LM587:
 4297 178c 4E99      		sbic 41-32,6
 4298               	.LM588:
 4299 178e 30E0      		ldi r19,lo8(0)
 4300               	.L244:
 4301               	.LVL369:
 4302               	.LM589:
 4303 1790 0196      		adiw r24,1
 4304 1792 8436      		cpi r24,100
 4305 1794 9105      		cpc r25,__zero_reg__
 4306 1796 01F4      		brne .L245
 4307               	.LM590:
 4308 1798 3323      		tst r19
 4309 179a 01F0      		breq .+2
 4310 179c 00C0      		rjmp .L269
 4311               	.LVL370:
 4312               	.L243:
 4313               	.LBE113:
 4314               	.LM591:
 4315 179e 4E15      		cp r20,r14
 4316 17a0 5F05      		cpc r21,r15
 4317 17a2 01F0      		breq .L248
 4318               	.LVL371:
 4319               	.LM592:
 4320 17a4 F701      		movw r30,r14
 4321 17a6 EE0F      		lsl r30
 4322 17a8 FF1F      		rol r31
 4323 17aa E80D      		add r30,r8
 4324 17ac F91D      		adc r31,r9
 4325 17ae 8081      		ld r24,Z
 4326 17b0 9181      		ldd r25,Z+1
 4327 17b2 B801      		movw r22,r16
 4328 17b4 2B87      		std Y+11,r18
 4329 17b6 0E94 0000 		call getFileName
 4330               	.LVL372:
 4331               	.LM593:
 4332 17ba C801      		movw r24,r16
 4333 17bc 61E0      		ldi r22,lo8(1)
 4334 17be 0E94 0000 		call dispStr
 4335 17c2 A701      		movw r20,r14
 4336 17c4 2B85      		ldd r18,Y+11
 4337               	.LVL373:
 4338               	.L248:
 4339               	.LBB114:
 4340               	.LBB115:
 4341               	.LM594:
 4342 17c6 A3E2      		 ldi r26,lo8(-3037)
 4343 17c8 B4EF      	    ldi r27,hi8(-3037)
 4344 17ca 1197      	    1:sbiw r26,1
 4345 17cc 01F4      	    brne 1b
 4346 17ce 00C0      		rjmp .
 4347 17d0 0000      		nop
 4348               	.LVL374:
 4349               	.LBE115:
 4350               	.LBE114:
 4351               	.LM595:
 4352 17d2 4B9B      		sbis 41-32,3
 4353 17d4 00C0      		rjmp .L249
 4354               	.LVL375:
 4355               	.L256:
 4356 17d6 80E0      		ldi r24,lo8(0)
 4357               	.L228:
 4358               	/* epilogue start */
 4359               	.LM596:
 4360 17d8 2B96      		adiw r28,11
 4361 17da 0FB6      		in __tmp_reg__,__SREG__
 4362 17dc F894      		cli
 4363 17de DEBF      		out __SP_H__,r29
 4364 17e0 0FBE      		out __SREG__,__tmp_reg__
 4365 17e2 CDBF      		out __SP_L__,r28
 4366 17e4 CF91      		pop r28
 4367 17e6 DF91      		pop r29
 4368 17e8 1F91      		pop r17
 4369 17ea 0F91      		pop r16
 4370 17ec FF90      		pop r15
 4371 17ee EF90      		pop r14
 4372 17f0 DF90      		pop r13
 4373 17f2 CF90      		pop r12
 4374 17f4 BF90      		pop r11
 4375 17f6 AF90      		pop r10
 4376 17f8 9F90      		pop r9
 4377 17fa 8F90      		pop r8
 4378               	.LVL376:
 4379 17fc 7F90      		pop r7
 4380 17fe 6F90      		pop r6
 4381 1800 5F90      		pop r5
 4382 1802 4F90      		pop r4
 4383 1804 3F90      		pop r3
 4384 1806 2F90      		pop r2
 4385               	.LVL377:
 4386 1808 0895      		ret
 4387               	.LVL378:
 4388               	.L268:
 4389               	.LBB116:
 4390               	.LBB117:
 4391               	.LM597:
 4392 180a 8FE1      		 ldi r24,lo8(499999)
 4393 180c 91EA      	    ldi r25,hi8(499999)
 4394 180e A7E0      	    ldi r26,hlo8(499999)
 4395 1810 8150      	    1:subi r24,1
 4396 1812 9040      	    sbci r25,0
 4397 1814 A040      	    sbci r26,0
 4398 1816 01F4      	    brne 1b
 4399 1818 00C0      		rjmp .
 4400 181a 0000      		nop
 4401               	.LBE117:
 4402               	.LBE116:
 4403               	.LM598:
 4404 181c 4F99      		sbic 41-32,7
 4405 181e 00C0      		rjmp .L240
 4406               	.L258:
 4407               	.LM599:
 4408               	/* #APP */
 4409               	 ;  1045 "sdisk2.c" 1
 4410 1820 0000      		nop
 4411               	 ;  0 "" 2
 4412               	/* #NOAPP */
 4413 1822 4F9B      		sbis 41-32,7
 4414 1824 00C0      		rjmp .L258
 4415               	.L240:
 4416               	.LM600:
 4417 1826 0894      		sec
 4418 1828 E108      		sbc r14,__zero_reg__
 4419 182a F108      		sbc r15,__zero_reg__
 4420               	.LVL379:
 4421               	.LM601:
 4422 182c F7FE      		sbrs r15,7
 4423 182e 00C0      		rjmp .L239
 4424               	.LM602:
 4425 1830 7601      		movw r14,r12
 4426               	.LVL380:
 4427 1832 00C0      		rjmp .L239
 4428               	.LVL381:
 4429               	.L267:
 4430               	.LBB118:
 4431               	.LBB119:
 4432               	.LM603:
 4433 1834 8FE1      		 ldi r24,lo8(499999)
 4434 1836 91EA      	    ldi r25,hi8(499999)
 4435 1838 A7E0      	    ldi r26,hlo8(499999)
 4436 183a 8150      	    1:subi r24,1
 4437 183c 9040      	    sbci r25,0
 4438 183e A040      	    sbci r26,0
 4439 1840 01F4      	    brne 1b
 4440 1842 00C0      		rjmp .
 4441 1844 0000      		nop
 4442               	.LBE119:
 4443               	.LBE118:
 4444               	.LM604:
 4445 1846 1D99      		sbic 35-32,5
 4446 1848 00C0      		rjmp .L235
 4447               	.L259:
 4448               	.LM605:
 4449               	/* #APP */
 4450               	 ;  1033 "sdisk2.c" 1
 4451 184a 0000      		nop
 4452               	 ;  0 "" 2
 4453               	/* #NOAPP */
 4454 184c 1D9B      		sbis 35-32,5
 4455 184e 00C0      		rjmp .L259
 4456               	.L235:
 4457               	.LM606:
 4458 1850 0894      		sec
 4459 1852 E11C      		adc r14,__zero_reg__
 4460 1854 F11C      		adc r15,__zero_reg__
 4461               	.LVL382:
 4462               	.LM607:
 4463 1856 E214      		cp r14,r2
 4464 1858 F304      		cpc r15,r3
 4465 185a 01F0      		breq .+2
 4466 185c 00C0      		rjmp .L234
 4467 185e EE24      		clr r14
 4468 1860 FF24      		clr r15
 4469               	.LVL383:
 4470 1862 00C0      		rjmp .L234
 4471               	.LVL384:
 4472               	.L266:
 4473               	.LM608:
 4474 1864 2101      		movw r4,r2
 4475 1866 6624      		clr r6
 4476 1868 7724      		clr r7
 4477 186a A02E      		mov r10,r16
 4478 186c BE2C      		mov r11,r14
 4479 186e EE24      		clr r14
 4480 1870 FF24      		clr r15
 4481 1872 8701      		movw r16,r14
 4482 1874 6E01      		movw r12,r28
 4483               	.LVL385:
 4484 1876 0894      		sec
 4485 1878 C11C      		adc r12,__zero_reg__
 4486 187a D11C      		adc r13,__zero_reg__
 4487               	.LVL386:
 4488               	.L232:
 4489               	.LM609:
 4490 187c D501      		movw r26,r10
 4491 187e 8D91      		ld r24,X+
 4492 1880 9D91      		ld r25,X+
 4493 1882 5D01      		movw r10,r26
 4494 1884 B601      		movw r22,r12
 4495 1886 0E94 0000 		call getFileName
 4496               	.LM610:
 4497 188a C601      		movw r24,r12
 4498 188c 6985      		ldd r22,Y+9
 4499 188e 7A85      		ldd r23,Y+10
 4500 1890 48E0      		ldi r20,lo8(8)
 4501 1892 50E0      		ldi r21,hi8(8)
 4502 1894 0E94 0000 		call memcmp
 4503 1898 0097      		sbiw r24,0
 4504 189a 01F4      		brne .+2
 4505 189c 00C0      		rjmp .L229
 4506               	.LM611:
 4507 189e 0894      		sec
 4508 18a0 E11C      		adc r14,__zero_reg__
 4509 18a2 F11C      		adc r15,__zero_reg__
 4510 18a4 011D      		adc r16,__zero_reg__
 4511 18a6 111D      		adc r17,__zero_reg__
 4512               	.LVL387:
 4513 18a8 E414      		cp r14,r4
 4514 18aa F504      		cpc r15,r5
 4515 18ac 0605      		cpc r16,r6
 4516 18ae 1705      		cpc r17,r7
 4517 18b0 00F0      		brlo .L232
 4518 18b2 00C0      		rjmp .L252
 4519               	.LVL388:
 4520               	.L233:
 4521               	.LM612:
 4522 18b4 2160      		ori r18,lo8(1)
 4523               	.LVL389:
 4524               	.LM613:
 4525 18b6 4F9B      		sbis 41-32,7
 4526 18b8 00C0      		rjmp .L270
 4527               	.L238:
 4528               	.LM614:
 4529 18ba 2260      		ori r18,lo8(2)
 4530               	.LVL390:
 4531 18bc 00C0      		rjmp .L242
 4532               	.LVL391:
 4533               	.L269:
 4534               	.LBB120:
 4535               	.LM615:
 4536 18be 4E99      		sbic 41-32,6
 4537 18c0 00C0      		rjmp .L246
 4538               	.L257:
 4539               	.LM616:
 4540               	/* #APP */
 4541               	 ;  1058 "sdisk2.c" 1
 4542 18c2 0000      		nop
 4543               	 ;  0 "" 2
 4544               	/* #NOAPP */
 4545 18c4 4E9B      		sbis 41-32,6
 4546 18c6 00C0      		rjmp .L257
 4547               	.L246:
 4548               	.LBE120:
 4549               	.LM617:
 4550 18c8 F701      		movw r30,r14
 4551 18ca EE0F      		lsl r30
 4552 18cc FF1F      		rol r31
 4553 18ce E80D      		add r30,r8
 4554 18d0 F91D      		adc r31,r9
 4555 18d2 8081      		ld r24,Z
 4556 18d4 9181      		ldd r25,Z+1
 4557 18d6 8E01      		movw r16,r28
 4558 18d8 0F5F      		subi r16,lo8(-(1))
 4559 18da 1F4F      		sbci r17,hi8(-(1))
 4560 18dc B801      		movw r22,r16
 4561 18de 0E94 0000 		call getFileName
 4562               	.LVL392:
 4563               	.LM618:
 4564 18e2 3985      		ldd r19,Y+9
 4565 18e4 2A85      		ldd r18,Y+10
 4566 18e6 832F      		mov r24,r19
 4567 18e8 922F      		mov r25,r18
 4568 18ea DC01      		movw r26,r24
 4569 18ec F801      		movw r30,r16
 4570 18ee 88E0      		ldi r24,lo8(8)
 4571               	.L250:
 4572 18f0 0190      		ld r0,Z+
 4573 18f2 0D92      		st X+,r0
 4574 18f4 8150      		subi r24,lo8(-(-1))
 4575 18f6 01F4      		brne .L250
 4576               	.LM619:
 4577 18f8 81E0      		ldi r24,lo8(1)
 4578 18fa 00C0      		rjmp .L228
 4579               	.LFE36:
 4581               		.data
 4582               	.LC1:
 4583 0004 4254 4600 		.string	"BTF"
 4584               	.LC2:
 4585 0008 4453 4B00 		.string	"DSK"
 4586               		.text
 4587               	.global	init
 4589               	init:
 4590               	.LFB37:
 4591               	.LM620:
 4592               	.LVL393:
 4593 18fc CF92      		push r12
 4594 18fe DF92      		push r13
 4595 1900 EF92      		push r14
 4596 1902 FF92      		push r15
 4597 1904 0F93      		push r16
 4598 1906 1F93      		push r17
 4599 1908 DF93      		push r29
 4600 190a CF93      		push r28
 4601 190c CDB7      		in r28,__SP_L__
 4602 190e DEB7      		in r29,__SP_H__
 4603 1910 6697      		sbiw r28,22
 4604 1912 0FB6      		in __tmp_reg__,__SREG__
 4605 1914 F894      		cli
 4606 1916 DEBF      		out __SP_H__,r29
 4607 1918 0FBE      		out __SREG__,__tmp_reg__
 4608 191a CDBF      		out __SP_L__,r28
 4609               	/* prologue: function */
 4610               	/* frame size = 22 */
 4611               	/* stack size = 30 */
 4612               	.L__stack_usage = 30
 4613 191c C82E      		mov r12,r24
 4614               	.LM621:
 4615 191e 1092 0000 		sts inited,__zero_reg__
 4616               	.LM622:
 4617 1922 80E3      		ldi r24,lo8(48)
 4618               	.LVL394:
 4619 1924 85B9      		out 37-32,r24
 4620               	.LM623:
 4621 1926 82EC      		ldi r24,lo8(-62)
 4622 1928 8BB9      		out 43-32,r24
 4623               	.LVL395:
 4624               	.LM624:
 4625 192a 10E0      		ldi r17,lo8(0)
 4626               	.LM625:
 4627 192c 42EF      		ldi r20,lo8(-14)
 4628 192e E42E      		mov r14,r20
 4629               	.LM626:
 4630 1930 02ED      		ldi r16,lo8(-46)
 4631               	.LVL396:
 4632               	.L272:
 4633               	.LM627:
 4634 1932 EBB8      		out 43-32,r14
 4635               	.LM628:
 4636 1934 81E0      		ldi r24,lo8(1)
 4637 1936 90E0      		ldi r25,hi8(1)
 4638 1938 0E94 0000 		call wait5
 4639               	.LM629:
 4640 193c 0BB9      		out 43-32,r16
 4641               	.LM630:
 4642 193e 81E0      		ldi r24,lo8(1)
 4643 1940 90E0      		ldi r25,hi8(1)
 4644 1942 0E94 0000 		call wait5
 4645               	.LM631:
 4646 1946 1F5F      		subi r17,lo8(-(1))
 4647               	.LVL397:
 4648 1948 183C      		cpi r17,lo8(-56)
 4649 194a 01F4      		brne .L272
 4650               	.LM632:
 4651 194c 80EC      		ldi r24,lo8(-64)
 4652 194e 8BB9      		out 43-32,r24
 4653               	.LM633:
 4654 1950 80E0      		ldi r24,lo8(0)
 4655 1952 40E0      		ldi r20,lo8(0)
 4656 1954 50E0      		ldi r21,hi8(0)
 4657 1956 BA01      		movw r22,r20
 4658 1958 0E94 0000 		call cmd_
 4659 195c 00C0      		rjmp .L274
 4660               	.L306:
 4661               	.LM634:
 4662 195e 0E94 0000 		call readByteSlow
 4663               	.LVL398:
 4664               	.LM635:
 4665 1962 8130      		cpi r24,lo8(1)
 4666 1964 01F0      		breq .L305
 4667               	.LVL399:
 4668               	.L274:
 4669               	.LM636:
 4670 1966 4B9B      		sbis 41-32,3
 4671 1968 00C0      		rjmp .L306
 4672               	.LVL400:
 4673               	.L271:
 4674               	/* epilogue start */
 4675               	.LM637:
 4676 196a 6696      		adiw r28,22
 4677 196c 0FB6      		in __tmp_reg__,__SREG__
 4678 196e F894      		cli
 4679 1970 DEBF      		out __SP_H__,r29
 4680 1972 0FBE      		out __SREG__,__tmp_reg__
 4681 1974 CDBF      		out __SP_L__,r28
 4682 1976 CF91      		pop r28
 4683 1978 DF91      		pop r29
 4684 197a 1F91      		pop r17
 4685 197c 0F91      		pop r16
 4686 197e FF90      		pop r15
 4687 1980 EF90      		pop r14
 4688 1982 DF90      		pop r13
 4689 1984 CF90      		pop r12
 4690 1986 0895      		ret
 4691               	.LVL401:
 4692               	.L305:
 4693               	.LM638:
 4694 1988 82EC      		ldi r24,lo8(-62)
 4695               	.LVL402:
 4696 198a 8BB9      		out 43-32,r24
 4697               	.LM639:
 4698 198c 00EC      		ldi r16,lo8(-64)
 4699               	.LM640:
 4700 198e 12EC      		ldi r17,lo8(-62)
 4701               	.LVL403:
 4702               	.L303:
 4703               	.LM641:
 4704 1990 4B99      		sbic 41-32,3
 4705 1992 00C0      		rjmp .L271
 4706               	.LM642:
 4707 1994 0BB9      		out 43-32,r16
 4708               	.LM643:
 4709 1996 87E3      		ldi r24,lo8(55)
 4710 1998 40E0      		ldi r20,lo8(0)
 4711 199a 50E0      		ldi r21,hi8(0)
 4712 199c BA01      		movw r22,r20
 4713 199e 0E94 0000 		call cmd_
 4714               	.LM644:
 4715 19a2 0E94 0000 		call getRespSlow
 4716               	.LVL404:
 4717               	.LM645:
 4718 19a6 8F3F      		cpi r24,lo8(-1)
 4719 19a8 01F0      		breq .L271
 4720               	.LM646:
 4721 19aa 8E7F      		andi r24,lo8(-2)
 4722               	.LVL405:
 4723 19ac 01F4      		brne .L303
 4724               	.LM647:
 4725 19ae 1BB9      		out 43-32,r17
 4726               	.LM648:
 4727 19b0 0BB9      		out 43-32,r16
 4728               	.LM649:
 4729 19b2 89E2      		ldi r24,lo8(41)
 4730 19b4 40E0      		ldi r20,lo8(0)
 4731 19b6 50E0      		ldi r21,hi8(0)
 4732 19b8 BA01      		movw r22,r20
 4733 19ba 0E94 0000 		call cmd_
 4734               	.LM650:
 4735 19be 0E94 0000 		call getRespSlow
 4736               	.LVL406:
 4737 19c2 8823      		tst r24
 4738 19c4 01F0      		breq .L276
 4739               	.LM651:
 4740 19c6 8F3F      		cpi r24,lo8(-1)
 4741 19c8 01F0      		breq .L271
 4742               	.LM652:
 4743 19ca 1BB9      		out 43-32,r17
 4744 19cc 00C0      		rjmp .L303
 4745               	.L276:
 4746               	.LM653:
 4747 19ce 80E1      		ldi r24,lo8(16)
 4748               	.LVL407:
 4749 19d0 45E0      		ldi r20,lo8(5)
 4750 19d2 50E0      		ldi r21,hi8(5)
 4751 19d4 60E0      		ldi r22,hlo8(5)
 4752 19d6 70E0      		ldi r23,hhi8(5)
 4753 19d8 0E94 0000 		call cmdFast
 4754               	.LM654:
 4755 19dc 66E3      		ldi r22,lo8(54)
 4756 19de 70E0      		ldi r23,hi8(54)
 4757 19e0 80E0      		ldi r24,hlo8(54)
 4758 19e2 90E0      		ldi r25,hhi8(54)
 4759 19e4 0E94 0000 		call cmd17Fast
 4760               	.LVL408:
 4761 19e8 32E0      		ldi r19,lo8(2)
 4762 19ea E32E      		mov r14,r19
 4763 19ec F12C      		mov r15,__zero_reg__
 4764 19ee EC0E      		add r14,r28
 4765 19f0 FD1E      		adc r15,r29
 4766               	.LM655:
 4767 19f2 8E01      		movw r16,r28
 4768 19f4 095F      		subi r16,lo8(-(7))
 4769 19f6 1F4F      		sbci r17,hi8(-(7))
 4770               	.LVL409:
 4771               	.L278:
 4772               	.LM656:
 4773 19f8 0E94 0000 		call readByteFast
 4774 19fc F701      		movw r30,r14
 4775 19fe 8193      		st Z+,r24
 4776 1a00 7F01      		movw r14,r30
 4777               	.LM657:
 4778 1a02 E017      		cp r30,r16
 4779 1a04 F107      		cpc r31,r17
 4780 1a06 01F4      		brne .L278
 4781               	.LM658:
 4782 1a08 0E94 0000 		call readByteFast
 4783 1a0c 0E94 0000 		call readByteFast
 4784               	.LM659:
 4785 1a10 8A81      		ldd r24,Y+2
 4786 1a12 8634      		cpi r24,lo8(70)
 4787 1a14 01F4      		brne .+2
 4788 1a16 00C0      		rjmp .L307
 4789               	.L279:
 4790               	.LM660:
 4791 1a18 80E1      		ldi r24,lo8(16)
 4792 1a1a 44E0      		ldi r20,lo8(4)
 4793 1a1c 50E0      		ldi r21,hi8(4)
 4794 1a1e 60E0      		ldi r22,hlo8(4)
 4795 1a20 70E0      		ldi r23,hhi8(4)
 4796 1a22 0E94 0000 		call cmdFast
 4797               	.LM661:
 4798 1a26 66EC      		ldi r22,lo8(454)
 4799 1a28 71E0      		ldi r23,hi8(454)
 4800 1a2a 80E0      		ldi r24,hlo8(454)
 4801 1a2c 90E0      		ldi r25,hhi8(454)
 4802 1a2e 0E94 0000 		call cmd17Fast
 4803               	.LM662:
 4804 1a32 0E94 0000 		call readByteFast
 4805 1a36 90E0      		ldi r25,lo8(0)
 4806 1a38 A0E0      		ldi r26,lo8(0)
 4807 1a3a B0E0      		ldi r27,hi8(0)
 4808 1a3c 8093 0000 		sts bpbAddr,r24
 4809 1a40 9093 0000 		sts bpbAddr+1,r25
 4810 1a44 A093 0000 		sts bpbAddr+2,r26
 4811 1a48 B093 0000 		sts bpbAddr+3,r27
 4812               	.LM663:
 4813 1a4c 0E94 0000 		call readByteFast
 4814 1a50 90E0      		ldi r25,lo8(0)
 4815 1a52 A0E0      		ldi r26,lo8(0)
 4816 1a54 B0E0      		ldi r27,hi8(0)
 4817 1a56 2227      		clr r18
 4818 1a58 382F      		mov r19,r24
 4819 1a5a 492F      		mov r20,r25
 4820 1a5c 5A2F      		mov r21,r26
 4821 1a5e 8091 0000 		lds r24,bpbAddr
 4822 1a62 9091 0000 		lds r25,bpbAddr+1
 4823 1a66 A091 0000 		lds r26,bpbAddr+2
 4824 1a6a B091 0000 		lds r27,bpbAddr+3
 4825 1a6e 820F      		add r24,r18
 4826 1a70 931F      		adc r25,r19
 4827 1a72 A41F      		adc r26,r20
 4828 1a74 B51F      		adc r27,r21
 4829 1a76 8093 0000 		sts bpbAddr,r24
 4830 1a7a 9093 0000 		sts bpbAddr+1,r25
 4831 1a7e A093 0000 		sts bpbAddr+2,r26
 4832 1a82 B093 0000 		sts bpbAddr+3,r27
 4833               	.LM664:
 4834 1a86 0E94 0000 		call readByteFast
 4835 1a8a 90E0      		ldi r25,lo8(0)
 4836 1a8c A0E0      		ldi r26,lo8(0)
 4837 1a8e B0E0      		ldi r27,hi8(0)
 4838 1a90 AC01      		movw r20,r24
 4839 1a92 3327      		clr r19
 4840 1a94 2227      		clr r18
 4841 1a96 8091 0000 		lds r24,bpbAddr
 4842 1a9a 9091 0000 		lds r25,bpbAddr+1
 4843 1a9e A091 0000 		lds r26,bpbAddr+2
 4844 1aa2 B091 0000 		lds r27,bpbAddr+3
 4845 1aa6 820F      		add r24,r18
 4846 1aa8 931F      		adc r25,r19
 4847 1aaa A41F      		adc r26,r20
 4848 1aac B51F      		adc r27,r21
 4849 1aae 8093 0000 		sts bpbAddr,r24
 4850 1ab2 9093 0000 		sts bpbAddr+1,r25
 4851 1ab6 A093 0000 		sts bpbAddr+2,r26
 4852 1aba B093 0000 		sts bpbAddr+3,r27
 4853               	.LM665:
 4854 1abe 0E94 0000 		call readByteFast
 4855 1ac2 8091 0000 		lds r24,bpbAddr
 4856 1ac6 9091 0000 		lds r25,bpbAddr+1
 4857 1aca A091 0000 		lds r26,bpbAddr+2
 4858 1ace B091 0000 		lds r27,bpbAddr+3
 4859               	.LM666:
 4860 1ad2 E9E0      		ldi r30,9
 4861 1ad4 880F      	1:	lsl r24
 4862 1ad6 991F      		rol r25
 4863 1ad8 AA1F      		rol r26
 4864 1ada BB1F      		rol r27
 4865 1adc EA95      		dec r30
 4866 1ade 01F4      		brne 1b
 4867 1ae0 8093 0000 		sts bpbAddr,r24
 4868 1ae4 9093 0000 		sts bpbAddr+1,r25
 4869 1ae8 A093 0000 		sts bpbAddr+2,r26
 4870 1aec B093 0000 		sts bpbAddr+3,r27
 4871               	.LM667:
 4872 1af0 0E94 0000 		call readByteFast
 4873 1af4 0E94 0000 		call readByteFast
 4874               	.L280:
 4875               	.LM668:
 4876 1af8 4B99      		sbic 41-32,3
 4877 1afa 00C0      		rjmp .L271
 4878               	.LBB121:
 4879               	.LM669:
 4880 1afc 80E1      		ldi r24,lo8(16)
 4881 1afe 43E0      		ldi r20,lo8(3)
 4882 1b00 50E0      		ldi r21,hi8(3)
 4883 1b02 60E0      		ldi r22,hlo8(3)
 4884 1b04 70E0      		ldi r23,hhi8(3)
 4885 1b06 0E94 0000 		call cmdFast
 4886               	.LM670:
 4887 1b0a 6091 0000 		lds r22,bpbAddr
 4888 1b0e 7091 0000 		lds r23,bpbAddr+1
 4889 1b12 8091 0000 		lds r24,bpbAddr+2
 4890 1b16 9091 0000 		lds r25,bpbAddr+3
 4891 1b1a 635F      		subi r22,lo8(-(13))
 4892 1b1c 7F4F      		sbci r23,hi8(-(13))
 4893 1b1e 8F4F      		sbci r24,hlo8(-(13))
 4894 1b20 9F4F      		sbci r25,hhi8(-(13))
 4895 1b22 0E94 0000 		call cmd17Fast
 4896               	.LM671:
 4897 1b26 0E94 0000 		call readByteFast
 4898               	.LVL410:
 4899 1b2a 8983      		std Y+1,r24
 4900 1b2c 8981      		ldd r24,Y+1
 4901               	.LVL411:
 4902 1b2e 8093 0000 		sts sectorsPerCluster,r24
 4903               	.LM672:
 4904 1b32 1092 0000 		sts sectorsPerCluster2,__zero_reg__
 4905               	.LM673:
 4906 1b36 8981      		ldd r24,Y+1
 4907 1b38 8130      		cpi r24,lo8(1)
 4908 1b3a 01F0      		breq .L281
 4909 1b3c 91E0      		ldi r25,lo8(1)
 4910 1b3e 00C0      		rjmp .L282
 4911               	.L294:
 4912 1b40 922F      		mov r25,r18
 4913               	.L282:
 4914               	.LM674:
 4915 1b42 8981      		ldd r24,Y+1
 4916 1b44 8695      		lsr r24
 4917               	.LVL412:
 4918 1b46 8983      		std Y+1,r24
 4919               	.LVL413:
 4920               	.LM675:
 4921 1b48 8981      		ldd r24,Y+1
 4922               	.LVL414:
 4923 1b4a 292F      		mov r18,r25
 4924 1b4c 2F5F      		subi r18,lo8(-(1))
 4925 1b4e 8130      		cpi r24,lo8(1)
 4926 1b50 01F4      		brne .L294
 4927 1b52 9093 0000 		sts sectorsPerCluster2,r25
 4928               	.L281:
 4929               	.LM676:
 4930 1b56 0E94 0000 		call readByteFast
 4931 1b5a E82E      		mov r14,r24
 4932 1b5c FF24      		clr r15
 4933               	.LVL415:
 4934               	.LM677:
 4935 1b5e 0E94 0000 		call readByteFast
 4936 1b62 D82E      		mov r13,r24
 4937               	.LVL416:
 4938               	.LM678:
 4939 1b64 0E94 0000 		call readByteFast
 4940               	.LVL417:
 4941 1b68 0E94 0000 		call readByteFast
 4942               	.LM679:
 4943 1b6c 3D2D      		mov r19,r13
 4944 1b6e 20E0      		ldi r18,lo8(0)
 4945 1b70 C901      		movw r24,r18
 4946 1b72 8E0D      		add r24,r14
 4947 1b74 9F1D      		adc r25,r15
 4948               	.LM680:
 4949 1b76 A0E0      		ldi r26,lo8(0)
 4950 1b78 B0E0      		ldi r27,hi8(0)
 4951 1b7a 79E0      		ldi r23,9
 4952 1b7c 880F      	1:	lsl r24
 4953 1b7e 991F      		rol r25
 4954 1b80 AA1F      		rol r26
 4955 1b82 BB1F      		rol r27
 4956 1b84 7A95      		dec r23
 4957 1b86 01F4      		brne 1b
 4958 1b88 2091 0000 		lds r18,bpbAddr
 4959 1b8c 3091 0000 		lds r19,bpbAddr+1
 4960 1b90 4091 0000 		lds r20,bpbAddr+2
 4961 1b94 5091 0000 		lds r21,bpbAddr+3
 4962 1b98 820F      		add r24,r18
 4963 1b9a 931F      		adc r25,r19
 4964 1b9c A41F      		adc r26,r20
 4965 1b9e B51F      		adc r27,r21
 4966 1ba0 8093 0000 		sts fatAddr,r24
 4967 1ba4 9093 0000 		sts fatAddr+1,r25
 4968 1ba8 A093 0000 		sts fatAddr+2,r26
 4969 1bac B093 0000 		sts fatAddr+3,r27
 4970               	.LBE121:
 4971               	.LM681:
 4972 1bb0 4B99      		sbic 41-32,3
 4973 1bb2 00C0      		rjmp .L271
 4974               	.LM682:
 4975 1bb4 80E1      		ldi r24,lo8(16)
 4976 1bb6 42E0      		ldi r20,lo8(2)
 4977 1bb8 50E0      		ldi r21,hi8(2)
 4978 1bba 60E0      		ldi r22,hlo8(2)
 4979 1bbc 70E0      		ldi r23,hhi8(2)
 4980 1bbe 0E94 0000 		call cmdFast
 4981               	.LM683:
 4982 1bc2 6091 0000 		lds r22,bpbAddr
 4983 1bc6 7091 0000 		lds r23,bpbAddr+1
 4984 1bca 8091 0000 		lds r24,bpbAddr+2
 4985 1bce 9091 0000 		lds r25,bpbAddr+3
 4986 1bd2 6A5E      		subi r22,lo8(-(22))
 4987 1bd4 7F4F      		sbci r23,hi8(-(22))
 4988 1bd6 8F4F      		sbci r24,hlo8(-(22))
 4989 1bd8 9F4F      		sbci r25,hhi8(-(22))
 4990 1bda 0E94 0000 		call cmd17Fast
 4991               	.LM684:
 4992 1bde 0E94 0000 		call readByteFast
 4993 1be2 8093 0000 		sts sectorsPerFat,r24
 4994 1be6 1092 0000 		sts sectorsPerFat+1,__zero_reg__
 4995               	.LM685:
 4996 1bea 0E94 0000 		call readByteFast
 4997 1bee 382F      		mov r19,r24
 4998 1bf0 20E0      		ldi r18,lo8(0)
 4999 1bf2 8091 0000 		lds r24,sectorsPerFat
 5000 1bf6 9091 0000 		lds r25,sectorsPerFat+1
 5001 1bfa 820F      		add r24,r18
 5002 1bfc 931F      		adc r25,r19
 5003 1bfe 9093 0000 		sts sectorsPerFat+1,r25
 5004 1c02 8093 0000 		sts sectorsPerFat,r24
 5005               	.LM686:
 5006 1c06 0E94 0000 		call readByteFast
 5007 1c0a 0E94 0000 		call readByteFast
 5008               	.LM687:
 5009 1c0e 8091 0000 		lds r24,sectorsPerFat
 5010 1c12 9091 0000 		lds r25,sectorsPerFat+1
 5011 1c16 A0E0      		ldi r26,lo8(0)
 5012 1c18 B0E0      		ldi r27,hi8(0)
 5013 1c1a 6AE0      		ldi r22,10
 5014 1c1c 880F      	1:	lsl r24
 5015 1c1e 991F      		rol r25
 5016 1c20 AA1F      		rol r26
 5017 1c22 BB1F      		rol r27
 5018 1c24 6A95      		dec r22
 5019 1c26 01F4      		brne 1b
 5020 1c28 2091 0000 		lds r18,fatAddr
 5021 1c2c 3091 0000 		lds r19,fatAddr+1
 5022 1c30 4091 0000 		lds r20,fatAddr+2
 5023 1c34 5091 0000 		lds r21,fatAddr+3
 5024 1c38 820F      		add r24,r18
 5025 1c3a 931F      		adc r25,r19
 5026 1c3c A41F      		adc r26,r20
 5027 1c3e B51F      		adc r27,r21
 5028 1c40 8093 0000 		sts rootAddr,r24
 5029 1c44 9093 0000 		sts rootAddr+1,r25
 5030 1c48 A093 0000 		sts rootAddr+2,r26
 5031 1c4c B093 0000 		sts rootAddr+3,r27
 5032               	.LM688:
 5033 1c50 8050      		subi r24,lo8(-(16384))
 5034 1c52 904C      		sbci r25,hi8(-(16384))
 5035 1c54 AF4F      		sbci r26,hlo8(-(16384))
 5036 1c56 BF4F      		sbci r27,hhi8(-(16384))
 5037 1c58 8093 0000 		sts userAddr,r24
 5038 1c5c 9093 0000 		sts userAddr+1,r25
 5039 1c60 A093 0000 		sts userAddr+2,r26
 5040 1c64 B093 0000 		sts userAddr+3,r27
 5041               	.LM689:
 5042 1c68 4B99      		sbic 41-32,3
 5043 1c6a 00C0      		rjmp .L271
 5044               	.LM690:
 5045 1c6c 5FE0      		ldi r21,lo8(15)
 5046 1c6e E52E      		mov r14,r21
 5047 1c70 F12C      		mov r15,__zero_reg__
 5048               	.LVL418:
 5049 1c72 EC0E      		add r14,r28
 5050 1c74 FD1E      		adc r15,r29
 5051 1c76 80E0      		ldi r24,lo8(.LC1)
 5052 1c78 90E0      		ldi r25,hi8(.LC1)
 5053 1c7a 60E0      		ldi r22,lo8(0)
 5054 1c7c 70E0      		ldi r23,hi8(0)
 5055 1c7e A701      		movw r20,r14
 5056 1c80 20E0      		ldi r18,lo8(0)
 5057 1c82 0E94 0000 		call findExt
 5058 1c86 9093 0000 		sts btfDir+1,r25
 5059 1c8a 8093 0000 		sts btfDir,r24
 5060               	.LM691:
 5061 1c8e DD24      		clr r13
 5062 1c90 D394      		inc r13
 5063 1c92 F2E0      		ldi r31,hi8(512)
 5064 1c94 8030      		cpi r24,lo8(512)
 5065 1c96 9F07      		cpc r25,r31
 5066 1c98 01F4      		brne .L283
 5067 1c9a DD24      		clr r13
 5068               	.L283:
 5069               	.LVL419:
 5070               	.LM692:
 5071 1c9c CC20      		tst r12
 5072 1c9e 01F0      		breq .+2
 5073 1ca0 00C0      		rjmp .L308
 5074               	.LM693:
 5075 1ca2 CC24      		clr r12
 5076               	.LVL420:
 5077               	.L284:
 5078               	.LM694:
 5079 1ca4 0E94 0000 		call lcd_clear
 5080               	.LM695:
 5081 1ca8 80E0      		ldi r24,lo8(MSG7)
 5082 1caa 90E0      		ldi r25,hi8(MSG7)
 5083 1cac 0E94 0000 		call lcd_puts_p
 5084               	.LM696:
 5085 1cb0 DD20      		tst r13
 5086 1cb2 01F0      		breq .+2
 5087 1cb4 00C0      		rjmp .L285
 5088               	.LM697:
 5089 1cb6 CC20      		tst r12
 5090 1cb8 01F0      		breq .+2
 5091 1cba 00C0      		rjmp .L286
 5092               	.LM698:
 5093 1cbc 20E0      		ldi r18,lo8(0)
 5094 1cbe 30E0      		ldi r19,hi8(0)
 5095               	.L287:
 5096               	.LM699:
 5097 1cc0 80E0      		ldi r24,lo8(.LC0)
 5098 1cc2 90E0      		ldi r25,hi8(.LC0)
 5099 1cc4 60E0      		ldi r22,lo8(protect)
 5100 1cc6 70E0      		ldi r23,hi8(protect)
 5101 1cc8 A801      		movw r20,r16
 5102 1cca 0E94 0000 		call findExt
 5103 1cce 9C01      		movw r18,r24
 5104 1cd0 9093 0000 		sts nicDir+1,r25
 5105 1cd4 8093 0000 		sts nicDir,r24
 5106               	.LM700:
 5107 1cd8 82E0      		ldi r24,hi8(512)
 5108 1cda 2030      		cpi r18,lo8(512)
 5109 1cdc 3807      		cpc r19,r24
 5110 1cde 01F4      		brne .+2
 5111 1ce0 00C0      		rjmp .L309
 5112               	.L289:
 5113               	.LM701:
 5114 1ce2 4B99      		sbic 41-32,3
 5115 1ce4 00C0      		rjmp .L271
 5116               	.LM702:
 5117 1ce6 DD20      		tst r13
 5118 1ce8 01F4      		brne .+2
 5119 1cea 00C0      		rjmp .L310
 5120               	.LVL421:
 5121               	.L290:
 5122               	.LM703:
 5123 1cec CC20      		tst r12
 5124 1cee 01F4      		brne .L292
 5125 1cf0 C801      		movw r24,r16
 5126 1cf2 B701      		movw r22,r14
 5127 1cf4 48E0      		ldi r20,lo8(8)
 5128 1cf6 50E0      		ldi r21,hi8(8)
 5129 1cf8 0E94 0000 		call memcmp
 5130 1cfc 0097      		sbiw r24,0
 5131 1cfe 01F0      		breq .L291
 5132               	.L292:
 5133               	.LM704:
 5134 1d00 6091 0000 		lds r22,btfDir
 5135 1d04 7091 0000 		lds r23,btfDir+1
 5136 1d08 660F      		lsl r22
 5137 1d0a 771F      		rol r23
 5138 1d0c 6295      		swap r22
 5139 1d0e 7295      		swap r23
 5140 1d10 707F      		andi r23,0xf0
 5141 1d12 7627      		eor r23,r22
 5142 1d14 607F      		andi r22,0xf0
 5143 1d16 7627      		eor r23,r22
 5144 1d18 80E0      		ldi r24,lo8(0)
 5145 1d1a 90E0      		ldi r25,hi8(0)
 5146 1d1c 2091 0000 		lds r18,rootAddr
 5147 1d20 3091 0000 		lds r19,rootAddr+1
 5148 1d24 4091 0000 		lds r20,rootAddr+2
 5149 1d28 5091 0000 		lds r21,rootAddr+3
 5150 1d2c 620F      		add r22,r18
 5151 1d2e 731F      		adc r23,r19
 5152 1d30 841F      		adc r24,r20
 5153 1d32 951F      		adc r25,r21
 5154 1d34 A801      		movw r20,r16
 5155 1d36 28E0      		ldi r18,lo8(8)
 5156 1d38 30E0      		ldi r19,hi8(8)
 5157 1d3a 0E94 0000 		call writeSD
 5158               	.LM705:
 5159 1d3e 0E94 0000 		call duplicateFat
 5160               	.L291:
 5161               	.LM706:
 5162 1d42 0E94 0000 		call lcd_clear
 5163               	.LM707:
 5164 1d46 C801      		movw r24,r16
 5165 1d48 60E0      		ldi r22,lo8(0)
 5166 1d4a 0E94 0000 		call dispStr
 5167               	.LM708:
 5168 1d4e 8FEF      		ldi r24,lo8(-1)
 5169 1d50 8093 0000 		sts prevFatNumNic,r24
 5170               	.LM709:
 5171 1d54 8093 0000 		sts prevFatNumDsk,r24
 5172               	.LM710:
 5173 1d58 1092 0000 		sts bitbyte+1,__zero_reg__
 5174 1d5c 1092 0000 		sts bitbyte,__zero_reg__
 5175               	.LM711:
 5176 1d60 1092 0000 		sts readPulse,__zero_reg__
 5177               	.LM712:
 5178 1d64 1092 0000 		sts magState,__zero_reg__
 5179               	.LM713:
 5180 1d68 11E0      		ldi r17,lo8(1)
 5181 1d6a 1093 0000 		sts prepare,r17
 5182               	.LM714:
 5183 1d6e 1092 0000 		sts ph_track,__zero_reg__
 5184               	.LM715:
 5185 1d72 1092 0000 		sts sector,__zero_reg__
 5186               	.LM716:
 5187 1d76 1092 0000 		sts buffNum,__zero_reg__
 5188               	.LM717:
 5189 1d7a 1092 0000 		sts formatting,__zero_reg__
 5190               	.LM718:
 5191 1d7e 80E0      		ldi r24,lo8(writeData)
 5192 1d80 90E0      		ldi r25,hi8(writeData)
 5193 1d82 9093 0000 		sts writePtr+1,r25
 5194 1d86 8093 0000 		sts writePtr,r24
 5195               	.LM719:
 5196 1d8a 80E1      		ldi r24,lo8(16)
 5197 1d8c 40E0      		ldi r20,lo8(512)
 5198 1d8e 52E0      		ldi r21,hi8(512)
 5199 1d90 60E0      		ldi r22,hlo8(512)
 5200 1d92 70E0      		ldi r23,hhi8(512)
 5201 1d94 0E94 0000 		call cmdFast
 5202               	.LM720:
 5203 1d98 0E94 0000 		call buffClear
 5204               	.LM721:
 5205 1d9c 1093 0000 		sts inited,r17
 5206 1da0 00C0      		rjmp .L271
 5207               	.LVL422:
 5208               	.L307:
 5209               	.LM722:
 5210 1da2 8B81      		ldd r24,Y+3
 5211 1da4 8134      		cpi r24,lo8(65)
 5212 1da6 01F0      		breq .+2
 5213 1da8 00C0      		rjmp .L279
 5214 1daa 8C81      		ldd r24,Y+4
 5215 1dac 8435      		cpi r24,lo8(84)
 5216 1dae 01F0      		breq .+2
 5217 1db0 00C0      		rjmp .L279
 5218 1db2 8D81      		ldd r24,Y+5
 5219 1db4 8133      		cpi r24,lo8(49)
 5220 1db6 01F0      		breq .+2
 5221 1db8 00C0      		rjmp .L279
 5222               	.LM723:
 5223 1dba 8E81      		ldd r24,Y+6
 5224 1dbc 8633      		cpi r24,lo8(54)
 5225 1dbe 01F0      		breq .+2
 5226 1dc0 00C0      		rjmp .L279
 5227               	.LM724:
 5228 1dc2 1092 0000 		sts bpbAddr,__zero_reg__
 5229 1dc6 1092 0000 		sts bpbAddr+1,__zero_reg__
 5230 1dca 1092 0000 		sts bpbAddr+2,__zero_reg__
 5231 1dce 1092 0000 		sts bpbAddr+3,__zero_reg__
 5232 1dd2 00C0      		rjmp .L280
 5233               	.LVL423:
 5234               	.L310:
 5235               	.LM725:
 5236 1dd4 C801      		movw r24,r16
 5237 1dd6 60E0      		ldi r22,lo8(.LC1)
 5238 1dd8 70E0      		ldi r23,hi8(.LC1)
 5239 1dda 40E0      		ldi r20,lo8(0)
 5240 1ddc 50E0      		ldi r21,hi8(0)
 5241 1dde 0E94 0000 		call createFile
 5242               	.LM726:
 5243 1de2 80E0      		ldi r24,lo8(.LC1)
 5244 1de4 90E0      		ldi r25,hi8(.LC1)
 5245 1de6 60E0      		ldi r22,lo8(0)
 5246 1de8 70E0      		ldi r23,hi8(0)
 5247 1dea A801      		movw r20,r16
 5248 1dec 21E0      		ldi r18,lo8(1)
 5249 1dee 0E94 0000 		call findExt
 5250 1df2 9C01      		movw r18,r24
 5251 1df4 9093 0000 		sts btfDir+1,r25
 5252 1df8 8093 0000 		sts btfDir,r24
 5253               	.LVL424:
 5254               	.LM727:
 5255 1dfc 82E0      		ldi r24,hi8(512)
 5256 1dfe 2030      		cpi r18,lo8(512)
 5257 1e00 3807      		cpc r19,r24
 5258               	.LVL425:
 5259 1e02 01F4      		brne .+2
 5260 1e04 00C0      		rjmp .L291
 5261 1e06 00C0      		rjmp .L290
 5262               	.LVL426:
 5263               	.L309:
 5264               	.LM728:
 5265 1e08 80E0      		ldi r24,lo8(.LC2)
 5266 1e0a 90E0      		ldi r25,hi8(.LC2)
 5267 1e0c 60E0      		ldi r22,lo8(0)
 5268 1e0e 70E0      		ldi r23,hi8(0)
 5269 1e10 A801      		movw r20,r16
 5270 1e12 2D2D      		mov r18,r13
 5271 1e14 0E94 0000 		call findExt
 5272 1e18 9093 0000 		sts dskDir+1,r25
 5273 1e1c 8093 0000 		sts dskDir,r24
 5274               	.LM729:
 5275 1e20 E2E0      		ldi r30,hi8(512)
 5276 1e22 8030      		cpi r24,lo8(512)
 5277 1e24 9E07      		cpc r25,r30
 5278 1e26 01F4      		brne .+2
 5279 1e28 00C0      		rjmp .L271
 5280               	.LM730:
 5281 1e2a C801      		movw r24,r16
 5282 1e2c 60E0      		ldi r22,lo8(.LC0)
 5283 1e2e 70E0      		ldi r23,hi8(.LC0)
 5284 1e30 40E3      		ldi r20,lo8(560)
 5285 1e32 52E0      		ldi r21,hi8(560)
 5286 1e34 0E94 0000 		call createFile
 5287 1e38 0097      		sbiw r24,0
 5288 1e3a 01F4      		brne .+2
 5289 1e3c 00C0      		rjmp .L271
 5290               	.LM731:
 5291 1e3e 80E0      		ldi r24,lo8(.LC0)
 5292 1e40 90E0      		ldi r25,hi8(.LC0)
 5293 1e42 60E0      		ldi r22,lo8(protect)
 5294 1e44 70E0      		ldi r23,hi8(protect)
 5295 1e46 A801      		movw r20,r16
 5296 1e48 2D2D      		mov r18,r13
 5297 1e4a 0E94 0000 		call findExt
 5298 1e4e 9093 0000 		sts nicDir+1,r25
 5299 1e52 8093 0000 		sts nicDir,r24
 5300               	.LM732:
 5301 1e56 F2E0      		ldi r31,hi8(512)
 5302 1e58 8030      		cpi r24,lo8(512)
 5303 1e5a 9F07      		cpc r25,r31
 5304 1e5c 01F4      		brne .+2
 5305 1e5e 00C0      		rjmp .L271
 5306               	.LM733:
 5307 1e60 0E94 0000 		call dsk2Nic
 5308 1e64 00C0      		rjmp .L289
 5309               	.L286:
 5310               	.LM734:
 5311 1e66 D801      		movw r26,r16
 5312 1e68 F701      		movw r30,r14
 5313 1e6a 88E0      		ldi r24,lo8(8)
 5314               	.L293:
 5315 1e6c 0190      		ld r0,Z+
 5316 1e6e 0D92      		st X+,r0
 5317 1e70 8150      		subi r24,lo8(-(-1))
 5318 1e72 01F4      		brne .L293
 5319               	.L304:
 5320               	.LM735:
 5321 1e74 21E0      		ldi r18,lo8(1)
 5322 1e76 30E0      		ldi r19,hi8(1)
 5323 1e78 00C0      		rjmp .L287
 5324               	.LVL427:
 5325               	.L308:
 5326               	.LM736:
 5327 1e7a 80E0      		ldi r24,lo8(writeData)
 5328 1e7c 90E0      		ldi r25,hi8(writeData)
 5329 1e7e 6D2D      		mov r22,r13
 5330 1e80 A701      		movw r20,r14
 5331 1e82 0E94 0000 		call chooseANicFile
 5332 1e86 C82E      		mov r12,r24
 5333               	.LVL428:
 5334 1e88 00C0      		rjmp .L284
 5335               	.LVL429:
 5336               	.L285:
 5337               	.LM737:
 5338 1e8a D801      		movw r26,r16
 5339 1e8c F701      		movw r30,r14
 5340 1e8e 88E0      		ldi r24,lo8(8)
 5341               	.L288:
 5342 1e90 0190      		ld r0,Z+
 5343 1e92 0D92      		st X+,r0
 5344 1e94 8150      		subi r24,lo8(-(-1))
 5345 1e96 01F4      		brne .L288
 5346 1e98 00C0      		rjmp .L304
 5347               	.LFE37:
 5349               	.global	check_eject
 5351               	check_eject:
 5352               	.LFB38:
 5353               	.LM738:
 5354               	/* prologue: function */
 5355               	/* frame size = 0 */
 5356               	/* stack size = 0 */
 5357               	.L__stack_usage = 0
 5358               	.LM739:
 5359 1e9a 4B9B      		sbis 41-32,3
 5360 1e9c 00C0      		rjmp .L312
 5361 1e9e 80E0      		ldi r24,lo8(327680)
 5362 1ea0 90E0      		ldi r25,hi8(327680)
 5363 1ea2 A5E0      		ldi r26,hlo8(327680)
 5364 1ea4 B0E0      		ldi r27,hhi8(327680)
 5365               	.LM740:
 5366 1ea6 4B9B      		sbis 41-32,3
 5367 1ea8 00C0      		rjmp .L311
 5368               	.L331:
 5369 1eaa 0197      		sbiw r24,1
 5370 1eac A109      		sbc r26,__zero_reg__
 5371 1eae B109      		sbc r27,__zero_reg__
 5372               	.LM741:
 5373 1eb0 01F4      		brne .+2
 5374 1eb2 00C0      		rjmp .L330
 5375               	.LM742:
 5376 1eb4 4B99      		sbic 41-32,3
 5377 1eb6 00C0      		rjmp .L331
 5378               	.LVL430:
 5379               	.L311:
 5380 1eb8 0895      		ret
 5381               	.L312:
 5382               	.LM743:
 5383 1eba 4E9B      		sbis 41-32,6
 5384 1ebc 00C0      		rjmp .L332
 5385               	.L315:
 5386               	.LM744:
 5387 1ebe 8091 0000 		lds r24,inited
 5388 1ec2 8823      		tst r24
 5389 1ec4 01F4      		brne .L311
 5390 1ec6 80E0      		ldi r24,lo8(327680)
 5391 1ec8 90E0      		ldi r25,hi8(327680)
 5392 1eca A5E0      		ldi r26,hlo8(327680)
 5393 1ecc B0E0      		ldi r27,hhi8(327680)
 5394 1ece 00C0      		rjmp .L321
 5395               	.L334:
 5396               	.LM745:
 5397 1ed0 0197      		sbiw r24,1
 5398 1ed2 A109      		sbc r26,__zero_reg__
 5399 1ed4 B109      		sbc r27,__zero_reg__
 5400               	.LM746:
 5401 1ed6 01F4      		brne .+2
 5402 1ed8 00C0      		rjmp .L333
 5403               	.L321:
 5404               	.LM747:
 5405 1eda 4B9B      		sbis 41-32,3
 5406 1edc 00C0      		rjmp .L334
 5407 1ede 0895      		ret
 5408               	.L332:
 5409               	.LM748:
 5410 1ee0 309B      		sbis 38-32,0
 5411 1ee2 00C0      		rjmp .L315
 5412               	.LM749:
 5413 1ee4 80E0      		ldi r24,lo8(0)
 5414 1ee6 90E0      		ldi r25,hi8(0)
 5415 1ee8 21E0      		ldi r18,lo8(1)
 5416               	.L317:
 5417               	.LBB122:
 5418               	.LM750:
 5419 1eea 4E99      		sbic 41-32,6
 5420               	.LM751:
 5421 1eec 20E0      		ldi r18,lo8(0)
 5422               	.L316:
 5423               	.LVL431:
 5424               	.LM752:
 5425 1eee 0196      		adiw r24,1
 5426               	.LM753:
 5427 1ef0 8436      		cpi r24,100
 5428 1ef2 9105      		cpc r25,__zero_reg__
 5429 1ef4 01F4      		brne .L317
 5430               	.LM754:
 5431 1ef6 2223      		tst r18
 5432 1ef8 01F0      		breq .L311
 5433               	.LM755:
 5434 1efa 4E99      		sbic 41-32,6
 5435 1efc 00C0      		rjmp .L318
 5436               	.L324:
 5437               	.LM756:
 5438               	/* #APP */
 5439               	 ;  1278 "sdisk2.c" 1
 5440 1efe 0000      		nop
 5441               	 ;  0 "" 2
 5442               	.LM757:
 5443               	/* #NOAPP */
 5444 1f00 4E9B      		sbis 41-32,6
 5445 1f02 00C0      		rjmp .L324
 5446               	.L318:
 5447               	.LM758:
 5448               	/* #APP */
 5449               	 ;  1280 "sdisk2.c" 1
 5450 1f04 F894      		cli
 5451               	 ;  0 "" 2
 5452               	.LM759:
 5453               	/* #NOAPP */
 5454 1f06 81E0      		ldi r24,lo8(1)
 5455 1f08 0E94 0000 		call init
 5456               	.LVL432:
 5457               	.LM760:
 5458 1f0c 8091 0000 		lds r24,inited
 5459 1f10 8823      		tst r24
 5460 1f12 01F0      		breq .L320
 5461               	.LM761:
 5462 1f14 8091 6E00 		lds r24,110
 5463 1f18 8160      		ori r24,lo8(1)
 5464 1f1a 8093 6E00 		sts 110,r24
 5465               	.LM762:
 5466 1f1e E89A      		sbi 61-32,0
 5467               	.L320:
 5468               	.LM763:
 5469               	/* #APP */
 5470               	 ;  1286 "sdisk2.c" 1
 5471 1f20 7894      		sei
 5472               	 ;  0 "" 2
 5473               	/* #NOAPP */
 5474 1f22 0895      		ret
 5475               	.L330:
 5476               	.LBE122:
 5477               	.LM764:
 5478 1f24 8091 6E00 		lds r24,110
 5479 1f28 8E7F      		andi r24,lo8(-2)
 5480 1f2a 8093 6E00 		sts 110,r24
 5481               	.LM765:
 5482 1f2e E898      		cbi 61-32,0
 5483               	.LM766:
 5484 1f30 1092 0000 		sts inited,__zero_reg__
 5485               	.LM767:
 5486 1f34 1092 0000 		sts prepare,__zero_reg__
 5487               	.LM768:
 5488 1f38 8091 0000 		lds r24,f.2151
 5489 1f3c 8823      		tst r24
 5490 1f3e 01F4      		brne .+2
 5491 1f40 00C0      		rjmp .L311
 5492               	.LM769:
 5493 1f42 0E94 0000 		call lcd_clear
 5494               	.LM770:
 5495 1f46 80E0      		ldi r24,lo8(MSG8)
 5496 1f48 90E0      		ldi r25,hi8(MSG8)
 5497 1f4a 0E94 0000 		call lcd_puts_p
 5498               	.LM771:
 5499 1f4e 1092 0000 		sts f.2151,__zero_reg__
 5500 1f52 0895      		ret
 5501               	.L333:
 5502               	.LM772:
 5503               	/* #APP */
 5504               	 ;  1293 "sdisk2.c" 1
 5505 1f54 F894      		cli
 5506               	 ;  0 "" 2
 5507               	.LM773:
 5508               	/* #NOAPP */
 5509 1f56 80E0      		ldi r24,lo8(0)
 5510 1f58 0E94 0000 		call init
 5511               	.LM774:
 5512 1f5c 8091 0000 		lds r24,inited
 5513 1f60 8823      		tst r24
 5514 1f62 01F0      		breq .L322
 5515               	.LM775:
 5516 1f64 8091 6E00 		lds r24,110
 5517 1f68 8160      		ori r24,lo8(1)
 5518 1f6a 8093 6E00 		sts 110,r24
 5519               	.LM776:
 5520 1f6e E89A      		sbi 61-32,0
 5521               	.L322:
 5522               	.LM777:
 5523               	/* #APP */
 5524               	 ;  1299 "sdisk2.c" 1
 5525 1f70 7894      		sei
 5526               	 ;  0 "" 2
 5527               	.LM778:
 5528               	/* #NOAPP */
 5529 1f72 81E0      		ldi r24,lo8(1)
 5530 1f74 8093 0000 		sts f.2151,r24
 5531 1f78 0895      		ret
 5532               	.LFE38:
 5534               	.global	writeBackSub2
 5536               	writeBackSub2:
 5537               	.LFB40:
 5538               	.LM779:
 5539               	.LVL433:
 5540 1f7a CF92      		push r12
 5541 1f7c DF92      		push r13
 5542 1f7e EF92      		push r14
 5543 1f80 FF92      		push r15
 5544 1f82 0F93      		push r16
 5545 1f84 1F93      		push r17
 5546 1f86 CF93      		push r28
 5547 1f88 DF93      		push r29
 5548               	/* prologue: function */
 5549               	/* frame size = 0 */
 5550               	/* stack size = 8 */
 5551               	.L__stack_usage = 8
 5552 1f8a C82E      		mov r12,r24
 5553 1f8c 162F      		mov r17,r22
 5554 1f8e D42E      		mov r13,r20
 5555               	.LVL434:
 5556               	.LM780:
 5557 1f90 3091 0000 		lds r19,sectorsPerCluster2
 5558               	.LVL435:
 5559               	.LM781:
 5560 1f94 4B99      		sbic 41-32,3
 5561 1f96 00C0      		rjmp .L335
 5562               	.LVL436:
 5563               	.LM782:
 5564 1f98 C42F      		mov r28,r20
 5565 1f9a D0E0      		ldi r29,lo8(0)
 5566 1f9c C295      		swap r28
 5567 1f9e D295      		swap r29
 5568 1fa0 D07F      		andi r29,0xf0
 5569 1fa2 DC27      		eor r29,r28
 5570 1fa4 C07F      		andi r28,0xf0
 5571 1fa6 DC27      		eor r29,r28
 5572 1fa8 C60F      		add r28,r22
 5573 1faa D11D      		adc r29,__zero_reg__
 5574               	.LM783:
 5575 1fac 7E01      		movw r14,r28
 5576 1fae 032E      		mov r0,r19
 5577 1fb0 00C0      		rjmp 2f
 5578 1fb2 F694      	1:	lsr r15
 5579 1fb4 E794      		ror r14
 5580 1fb6 0A94      	2:	dec r0
 5581 1fb8 02F4      		brpl 1b
 5582               	.LM784:
 5583 1fba C701      		movw r24,r14
 5584 1fbc 63E2      		ldi r22,lo8(35)
 5585 1fbe 70E0      		ldi r23,hi8(35)
 5586 1fc0 0E94 0000 		call __udivmodhi4
 5587 1fc4 262F      		mov r18,r22
 5588               	.LM785:
 5589 1fc6 8091 0000 		lds r24,prevFatNumNic
 5590 1fca 8617      		cp r24,r22
 5591 1fcc 01F0      		breq .L337
 5592               	.LM786:
 5593 1fce 6093 0000 		sts prevFatNumNic,r22
 5594               	.LM787:
 5595 1fd2 4091 0000 		lds r20,sectorsPerCluster
 5596 1fd6 50E0      		ldi r21,lo8(0)
 5597 1fd8 415D      		subi r20,lo8(-(559))
 5598 1fda 5D4F      		sbci r21,hi8(-(559))
 5599 1fdc 00C0      		rjmp 2f
 5600 1fde 5595      	1:	asr r21
 5601 1fe0 4795      		ror r20
 5602 1fe2 3A95      	2:	dec r19
 5603 1fe4 02F4      		brpl 1b
 5604 1fe6 8091 0000 		lds r24,nicDir
 5605 1fea 9091 0000 		lds r25,nicDir+1
 5606 1fee 60E0      		ldi r22,lo8(fatNic)
 5607 1ff0 70E0      		ldi r23,hi8(fatNic)
 5608 1ff2 03E2      		ldi r16,lo8(35)
 5609 1ff4 0E94 0000 		call prepareFat
 5610 1ff8 3091 0000 		lds r19,sectorsPerCluster2
 5611               	.L337:
 5612               	.LM788:
 5613 1ffc C701      		movw r24,r14
 5614 1ffe 63E2      		ldi r22,lo8(35)
 5615 2000 70E0      		ldi r23,hi8(35)
 5616 2002 0E94 0000 		call __udivmodhi4
 5617 2006 880F      		lsl r24
 5618 2008 991F      		rol r25
 5619 200a 8050      		subi r24,lo8(-(fatNic))
 5620 200c 9040      		sbci r25,hi8(-(fatNic))
 5621 200e FC01      		movw r30,r24
 5622 2010 4081      		ld r20,Z
 5623 2012 5181      		ldd r21,Z+1
 5624               	.LVL437:
 5625               	.LM789:
 5626 2014 82EC      		ldi r24,lo8(-62)
 5627               	.LVL438:
 5628 2016 8BB9      		out 43-32,r24
 5629               	.LM790:
 5630 2018 80EC      		ldi r24,lo8(-64)
 5631 201a 8BB9      		out 43-32,r24
 5632               	.LM791:
 5633 201c 4250      		subi r20,lo8(-(-2))
 5634 201e 5040      		sbci r21,hi8(-(-2))
 5635 2020 60E0      		ldi r22,lo8(0)
 5636 2022 70E0      		ldi r23,hi8(0)
 5637 2024 00C0      		rjmp 2f
 5638 2026 440F      	1:	lsl r20
 5639 2028 551F      		rol r21
 5640 202a 661F      		rol r22
 5641 202c 771F      		rol r23
 5642 202e 3A95      	2:	dec r19
 5643 2030 02F4      		brpl 1b
 5644 2032 8091 0000 		lds r24,sectorsPerCluster
 5645 2036 90E0      		ldi r25,lo8(0)
 5646 2038 0197      		sbiw r24,1
 5647 203a 8C23      		and r24,r28
 5648 203c 9D23      		and r25,r29
 5649 203e A0E0      		ldi r26,lo8(0)
 5650 2040 B0E0      		ldi r27,hi8(0)
 5651 2042 480F      		add r20,r24
 5652 2044 591F      		adc r21,r25
 5653 2046 6A1F      		adc r22,r26
 5654 2048 7B1F      		adc r23,r27
 5655 204a E9E0      		ldi r30,9
 5656 204c 440F      	1:	lsl r20
 5657 204e 551F      		rol r21
 5658 2050 661F      		rol r22
 5659 2052 771F      		rol r23
 5660 2054 EA95      		dec r30
 5661 2056 01F4      		brne 1b
 5662               	.LVL439:
 5663 2058 8091 0000 		lds r24,userAddr
 5664 205c 9091 0000 		lds r25,userAddr+1
 5665 2060 A091 0000 		lds r26,userAddr+2
 5666 2064 B091 0000 		lds r27,userAddr+3
 5667 2068 480F      		add r20,r24
 5668 206a 591F      		adc r21,r25
 5669 206c 6A1F      		adc r22,r26
 5670 206e 7B1F      		adc r23,r27
 5671 2070 88E1      		ldi r24,lo8(24)
 5672 2072 0E94 0000 		call cmdFast
 5673               	.LM792:
 5674 2076 8FEF      		ldi r24,lo8(-1)
 5675 2078 0E94 0000 		call writeByteFast
 5676               	.LM793:
 5677 207c 8EEF      		ldi r24,lo8(-2)
 5678 207e 0E94 0000 		call writeByteFast
 5679               	.LVL440:
 5680 2082 80EB      		ldi r24,lo8(176)
 5681 2084 90E0      		ldi r25,hi8(176)
 5682               	.LM794:
 5683 2086 30ED      		ldi r19,lo8(-48)
 5684               	.LM795:
 5685 2088 20EF      		ldi r18,lo8(-16)
 5686               	.LVL441:
 5687               	.L338:
 5688               	.LM796:
 5689 208a 3BB9      		out 43-32,r19
 5690               	.LM797:
 5691 208c 2BB9      		out 43-32,r18
 5692 208e 0197      		sbiw r24,1
 5693               	.LM798:
 5694 2090 01F4      		brne .L338
 5695               	.LM799:
 5696 2092 80EC      		ldi r24,lo8(-64)
 5697 2094 8BB9      		out 43-32,r24
 5698               	.LM800:
 5699 2096 83E0      		ldi r24,lo8(3)
 5700 2098 0E94 0000 		call writeByteFast
 5701               	.LM801:
 5702 209c 8CEF      		ldi r24,lo8(-4)
 5703 209e 0E94 0000 		call writeByteFast
 5704               	.LM802:
 5705 20a2 8FEF      		ldi r24,lo8(-1)
 5706 20a4 0E94 0000 		call writeByteFast
 5707               	.LM803:
 5708 20a8 8FE3      		ldi r24,lo8(63)
 5709 20aa 0E94 0000 		call writeByteFast
 5710               	.LM804:
 5711 20ae 8FEC      		ldi r24,lo8(-49)
 5712 20b0 0E94 0000 		call writeByteFast
 5713               	.LM805:
 5714 20b4 83EF      		ldi r24,lo8(-13)
 5715 20b6 0E94 0000 		call writeByteFast
 5716               	.LM806:
 5717 20ba 8CEF      		ldi r24,lo8(-4)
 5718 20bc 0E94 0000 		call writeByteFast
 5719               	.LM807:
 5720 20c0 8FEF      		ldi r24,lo8(-1)
 5721 20c2 0E94 0000 		call writeByteFast
 5722               	.LM808:
 5723 20c6 8FE3      		ldi r24,lo8(63)
 5724 20c8 0E94 0000 		call writeByteFast
 5725               	.LM809:
 5726 20cc 8FEC      		ldi r24,lo8(-49)
 5727 20ce 0E94 0000 		call writeByteFast
 5728               	.LM810:
 5729 20d2 83EF      		ldi r24,lo8(-13)
 5730 20d4 0E94 0000 		call writeByteFast
 5731               	.LM811:
 5732 20d8 8CEF      		ldi r24,lo8(-4)
 5733 20da 0E94 0000 		call writeByteFast
 5734               	.LM812:
 5735 20de 85ED      		ldi r24,lo8(-43)
 5736 20e0 0E94 0000 		call writeByteFast
 5737               	.LM813:
 5738 20e4 8AEA      		ldi r24,lo8(-86)
 5739 20e6 0E94 0000 		call writeByteFast
 5740               	.LM814:
 5741 20ea 86E9      		ldi r24,lo8(-106)
 5742 20ec 0E94 0000 		call writeByteFast
 5743               	.LM815:
 5744 20f0 8FEF      		ldi r24,lo8(-1)
 5745 20f2 0E94 0000 		call writeByteFast
 5746               	.LM816:
 5747 20f6 8EEF      		ldi r24,lo8(-2)
 5748 20f8 0E94 0000 		call writeByteFast
 5749               	.LVL442:
 5750               	.LM817:
 5751 20fc 8D2D      		mov r24,r13
 5752 20fe 8695      		lsr r24
 5753 2100 8A6A      		ori r24,lo8(-86)
 5754 2102 0E94 0000 		call writeByteFast
 5755               	.LM818:
 5756 2106 8D2D      		mov r24,r13
 5757 2108 8A6A      		ori r24,lo8(-86)
 5758 210a 0E94 0000 		call writeByteFast
 5759               	.LM819:
 5760 210e 812F      		mov r24,r17
 5761 2110 8695      		lsr r24
 5762 2112 8A6A      		ori r24,lo8(-86)
 5763 2114 0E94 0000 		call writeByteFast
 5764               	.LM820:
 5765 2118 812F      		mov r24,r17
 5766 211a 8A6A      		ori r24,lo8(-86)
 5767 211c 0E94 0000 		call writeByteFast
 5768               	.LM821:
 5769 2120 0EEF      		ldi r16,lo8(-2)
 5770 2122 0127      		eor r16,r17
 5771 2124 0D25      		eor r16,r13
 5772               	.LVL443:
 5773               	.LM822:
 5774 2126 802F      		mov r24,r16
 5775 2128 8695      		lsr r24
 5776 212a 8A6A      		ori r24,lo8(-86)
 5777 212c 0E94 0000 		call writeByteFast
 5778               	.LM823:
 5779 2130 802F      		mov r24,r16
 5780 2132 8A6A      		ori r24,lo8(-86)
 5781 2134 0E94 0000 		call writeByteFast
 5782               	.LM824:
 5783 2138 8EED      		ldi r24,lo8(-34)
 5784 213a 0E94 0000 		call writeByteFast
 5785               	.LM825:
 5786 213e 8AEA      		ldi r24,lo8(-86)
 5787 2140 0E94 0000 		call writeByteFast
 5788               	.LM826:
 5789 2144 8BEE      		ldi r24,lo8(-21)
 5790 2146 0E94 0000 		call writeByteFast
 5791               	.LM827:
 5792 214a 8FEF      		ldi r24,lo8(-1)
 5793 214c 0E94 0000 		call writeByteFast
 5794               	.LM828:
 5795 2150 8FEF      		ldi r24,lo8(-1)
 5796 2152 0E94 0000 		call writeByteFast
 5797               	.LM829:
 5798 2156 8FEF      		ldi r24,lo8(-1)
 5799 2158 0E94 0000 		call writeByteFast
 5800               	.LM830:
 5801 215c 8FEF      		ldi r24,lo8(-1)
 5802 215e 0E94 0000 		call writeByteFast
 5803               	.LM831:
 5804 2162 8FEF      		ldi r24,lo8(-1)
 5805 2164 0E94 0000 		call writeByteFast
 5806               	.LVL444:
 5807               	.LM832:
 5808 2168 DD24      		clr r13
 5809               	.LVL445:
 5810 216a 8EE5      		ldi r24,lo8(350)
 5811 216c 91E0      		ldi r25,hi8(350)
 5812 216e C89E      		mul r12,r24
 5813 2170 F001      		movw r30,r0
 5814 2172 C99E      		mul r12,r25
 5815 2174 F00D      		add r31,r0
 5816 2176 D89E      		mul r13,r24
 5817 2178 F00D      		add r31,r0
 5818 217a 1124      		clr r1
 5819 217c E050      		subi r30,lo8(-(writeData))
 5820 217e F040      		sbci r31,hi8(-(writeData))
 5821               	.LM833:
 5822 2180 20E0      		ldi r18,lo8(0)
 5823 2182 30E0      		ldi r19,hi8(0)
 5824               	.LM834:
 5825 2184 10EC      		ldi r17,lo8(-64)
 5826               	.LVL446:
 5827               	.LM835:
 5828 2186 B0EE      		ldi r27,lo8(-32)
 5829               	.LM836:
 5830 2188 A0ED      		ldi r26,lo8(-48)
 5831               	.LM837:
 5832 218a 70EF      		ldi r23,lo8(-16)
 5833               	.LVL447:
 5834               	.L342:
 5835               	.LM838:
 5836 218c 6191      		ld r22,Z+
 5837               	.LVL448:
 5838 218e 88E0      		ldi r24,lo8(8)
 5839 2190 90E0      		ldi r25,hi8(8)
 5840               	.LM839:
 5841 2192 40E8      		ldi r20,lo8(-128)
 5842 2194 00C0      		rjmp .L341
 5843               	.LVL449:
 5844               	.L351:
 5845               	.LM840:
 5846 2196 ABB9      		out 43-32,r26
 5847               	.LM841:
 5848 2198 7BB9      		out 43-32,r23
 5849               	.LM842:
 5850 219a 4695      		lsr r20
 5851               	.LVL450:
 5852 219c 0197      		sbiw r24,1
 5853 219e 01F0      		breq .L350
 5854               	.LVL451:
 5855               	.L341:
 5856               	.LM843:
 5857 21a0 542F      		mov r21,r20
 5858 21a2 5623      		and r21,r22
 5859 21a4 01F4      		brne .L351
 5860               	.LM844:
 5861 21a6 1BB9      		out 43-32,r17
 5862               	.LM845:
 5863 21a8 BBB9      		out 43-32,r27
 5864               	.LM846:
 5865 21aa 4695      		lsr r20
 5866               	.LVL452:
 5867 21ac 0197      		sbiw r24,1
 5868 21ae 01F4      		brne .L341
 5869               	.L350:
 5870               	.LM847:
 5871 21b0 2F5F      		subi r18,lo8(-(1))
 5872 21b2 3F4F      		sbci r19,hi8(-(1))
 5873               	.LVL453:
 5874 21b4 81E0      		ldi r24,hi8(349)
 5875 21b6 2D35      		cpi r18,lo8(349)
 5876 21b8 3807      		cpc r19,r24
 5877 21ba 01F4      		brne .L342
 5878               	.LM848:
 5879 21bc 80EC      		ldi r24,lo8(-64)
 5880 21be 8BB9      		out 43-32,r24
 5881               	.LVL454:
 5882 21c0 80E7      		ldi r24,lo8(112)
 5883 21c2 90E0      		ldi r25,hi8(112)
 5884               	.LM849:
 5885 21c4 30ED      		ldi r19,lo8(-48)
 5886               	.LM850:
 5887 21c6 20EF      		ldi r18,lo8(-16)
 5888               	.LVL455:
 5889               	.L343:
 5890               	.LM851:
 5891 21c8 3BB9      		out 43-32,r19
 5892               	.LM852:
 5893 21ca 2BB9      		out 43-32,r18
 5894 21cc 0197      		sbiw r24,1
 5895               	.LM853:
 5896 21ce 01F4      		brne .L343
 5897               	.LM854:
 5898 21d0 80EC      		ldi r24,lo8(-64)
 5899 21d2 8BB9      		out 43-32,r24
 5900               	.LVL456:
 5901 21d4 80E0      		ldi r24,lo8(768)
 5902 21d6 93E0      		ldi r25,hi8(768)
 5903               	.LM855:
 5904 21d8 30EC      		ldi r19,lo8(-64)
 5905               	.LM856:
 5906 21da 20EE      		ldi r18,lo8(-32)
 5907               	.LVL457:
 5908               	.L344:
 5909               	.LM857:
 5910 21dc 10EC      		ldi r17,lo8(-64)
 5911 21de 3BB9      		out 43-32,r19
 5912               	.LM858:
 5913 21e0 2BB9      		out 43-32,r18
 5914 21e2 0197      		sbiw r24,1
 5915               	.LM859:
 5916 21e4 01F4      		brne .L344
 5917               	.LM860:
 5918 21e6 1BB9      		out 43-32,r17
 5919               	.LM861:
 5920 21e8 8FEF      		ldi r24,lo8(-1)
 5921 21ea 0E94 0000 		call writeByteFast
 5922               	.LVL458:
 5923               	.LM862:
 5924 21ee 8FEF      		ldi r24,lo8(-1)
 5925 21f0 0E94 0000 		call writeByteFast
 5926               	.LM863:
 5927 21f4 0E94 0000 		call readByteFast
 5928               	.LM864:
 5929 21f8 0E94 0000 		call waitFinish
 5930               	.LM865:
 5931 21fc 82EC      		ldi r24,lo8(-62)
 5932 21fe 8BB9      		out 43-32,r24
 5933               	.LM866:
 5934 2200 1BB9      		out 43-32,r17
 5935               	.L335:
 5936               	/* epilogue start */
 5937               	.LM867:
 5938 2202 DF91      		pop r29
 5939 2204 CF91      		pop r28
 5940 2206 1F91      		pop r17
 5941 2208 0F91      		pop r16
 5942 220a FF90      		pop r15
 5943 220c EF90      		pop r14
 5944 220e DF90      		pop r13
 5945 2210 CF90      		pop r12
 5946               	.LVL459:
 5947 2212 0895      		ret
 5948               	.LFE40:
 5950               	.global	writeBackSub
 5952               	writeBackSub:
 5953               	.LFB41:
 5954               	.LM868:
 5955 2214 AF92      		push r10
 5956 2216 BF92      		push r11
 5957 2218 DF92      		push r13
 5958 221a EF92      		push r14
 5959 221c FF92      		push r15
 5960 221e 0F93      		push r16
 5961 2220 1F93      		push r17
 5962 2222 DF93      		push r29
 5963 2224 CF93      		push r28
 5964 2226 0F92      		push __tmp_reg__
 5965 2228 CDB7      		in r28,__SP_L__
 5966 222a DEB7      		in r29,__SP_H__
 5967               	/* prologue: function */
 5968               	/* frame size = 1 */
 5969               	/* stack size = 10 */
 5970               	.L__stack_usage = 10
 5971               	.LM869:
 5972 222c 4B99      		sbic 41-32,3
 5973 222e 00C0      		rjmp .L352
 5974 2230 10E0      		ldi r17,lo8(sectors)
 5975 2232 A12E      		mov r10,r17
 5976 2234 10E0      		ldi r17,hi8(sectors)
 5977 2236 B12E      		mov r11,r17
 5978               	.LM870:
 5979 2238 F501      		movw r30,r10
 5980               	.L357:
 5981               	.LM871:
 5982 223a 8191      		ld r24,Z+
 5983 223c 8F3F      		cpi r24,lo8(-1)
 5984 223e 01F4      		brne .L360
 5985               	.LM872:
 5986 2240 80E0      		ldi r24,hi8(sectors+5)
 5987 2242 E030      		cpi r30,lo8(sectors+5)
 5988 2244 F807      		cpc r31,r24
 5989 2246 01F4      		brne .L357
 5990               	.LVL460:
 5991               	.L352:
 5992               	/* epilogue start */
 5993               	.LM873:
 5994 2248 0F90      		pop __tmp_reg__
 5995 224a CF91      		pop r28
 5996 224c DF91      		pop r29
 5997 224e 1F91      		pop r17
 5998 2250 0F91      		pop r16
 5999 2252 FF90      		pop r15
 6000 2254 EF90      		pop r14
 6001 2256 DF90      		pop r13
 6002 2258 BF90      		pop r11
 6003 225a AF90      		pop r10
 6004 225c 0895      		ret
 6005               	.L360:
 6006               	.LM874:
 6007 225e B0E0      		ldi r27,lo8(tracks)
 6008 2260 EB2E      		mov r14,r27
 6009 2262 B0E0      		ldi r27,hi8(tracks)
 6010 2264 FB2E      		mov r15,r27
 6011 2266 00E0      		ldi r16,lo8(writeData+2)
 6012 2268 10E0      		ldi r17,hi8(writeData+2)
 6013 226a 90E0      		ldi r25,lo8(0)
 6014               	.LM875:
 6015 226c DD24      		clr r13
 6016 226e DA94      		dec r13
 6017               	.L356:
 6018               	.LM876:
 6019 2270 F501      		movw r30,r10
 6020 2272 6081      		ld r22,Z
 6021 2274 6F3F      		cpi r22,lo8(-1)
 6022 2276 01F0      		breq .L355
 6023               	.LM877:
 6024 2278 892F      		mov r24,r25
 6025 227a F701      		movw r30,r14
 6026 227c 4081      		ld r20,Z
 6027 227e 9983      		std Y+1,r25
 6028 2280 0E94 0000 		call writeBackSub2
 6029 2284 9981      		ldd r25,Y+1
 6030               	.L355:
 6031               	.LM878:
 6032 2286 F501      		movw r30,r10
 6033 2288 D192      		st Z+,r13
 6034 228a 5F01      		movw r10,r30
 6035               	.LM879:
 6036 228c F701      		movw r30,r14
 6037 228e D192      		st Z+,r13
 6038 2290 7F01      		movw r14,r30
 6039               	.LM880:
 6040 2292 F801      		movw r30,r16
 6041 2294 1082      		st Z,__zero_reg__
 6042               	.LM881:
 6043 2296 9F5F      		subi r25,lo8(-(1))
 6044               	.LVL461:
 6045 2298 025A      		subi r16,lo8(-(350))
 6046 229a 1E4F      		sbci r17,hi8(-(350))
 6047 229c 9530      		cpi r25,lo8(5)
 6048 229e 01F4      		brne .L356
 6049               	.LM882:
 6050 22a0 1092 0000 		sts buffNum,__zero_reg__
 6051               	.LM883:
 6052 22a4 80E0      		ldi r24,lo8(writeData)
 6053 22a6 90E0      		ldi r25,hi8(writeData)
 6054 22a8 9093 0000 		sts writePtr+1,r25
 6055 22ac 8093 0000 		sts writePtr,r24
 6056               	.LM884:
 6057 22b0 00C0      		rjmp .L352
 6058               	.LFE41:
 6060               	.global	main
 6062               	main:
 6063               	.LFB39:
 6064               	.LM885:
 6065 22b2 9F92      		push r9
 6066 22b4 AF92      		push r10
 6067 22b6 BF92      		push r11
 6068 22b8 CF92      		push r12
 6069 22ba DF92      		push r13
 6070 22bc EF92      		push r14
 6071 22be FF92      		push r15
 6072 22c0 0F93      		push r16
 6073 22c2 1F93      		push r17
 6074 22c4 CF93      		push r28
 6075 22c6 DF93      		push r29
 6076               	/* prologue: function */
 6077               	/* frame size = 0 */
 6078               	/* stack size = 11 */
 6079               	.L__stack_usage = 11
 6080               	.LM886:
 6081 22c8 80E1      		ldi r24,lo8(16)
 6082 22ca 84B9      		out 36-32,r24
 6083               	.LM887:
 6084 22cc 8AE3      		ldi r24,lo8(58)
 6085 22ce 87B9      		out 39-32,r24
 6086               	.LM888:
 6087 22d0 82E3      		ldi r24,lo8(50)
 6088 22d2 8AB9      		out 42-32,r24
 6089               	.LM889:
 6090 22d4 80E3      		ldi r24,lo8(48)
 6091 22d6 85B9      		out 37-32,r24
 6092               	.LM890:
 6093 22d8 82E0      		ldi r24,lo8(2)
 6094 22da 88B9      		out 40-32,r24
 6095               	.LM891:
 6096 22dc 92EC      		ldi r25,lo8(-62)
 6097 22de 9BB9      		out 43-32,r25
 6098               	.LM892:
 6099 22e0 17BC      		out 71-32,__zero_reg__
 6100               	.LM893:
 6101 22e2 14BC      		out 68-32,__zero_reg__
 6102               	.LM894:
 6103 22e4 91E0      		ldi r25,lo8(1)
 6104 22e6 95BD      		out 69-32,r25
 6105               	.LM895:
 6106 22e8 85BF      		out 85-32,r24
 6107               	.LM896:
 6108 22ea 8093 6900 		sts 105,r24
 6109               	.LM897:
 6110 22ee 1092 0000 		sts sector,__zero_reg__
 6111               	.LM898:
 6112 22f2 1092 0000 		sts inited,__zero_reg__
 6113               	.LM899:
 6114 22f6 1092 0000 		sts readPulse,__zero_reg__
 6115               	.LM900:
 6116 22fa 1092 0000 		sts protect,__zero_reg__
 6117               	.LM901:
 6118 22fe 1092 0000 		sts bitbyte+1,__zero_reg__
 6119 2302 1092 0000 		sts bitbyte,__zero_reg__
 6120               	.LM902:
 6121 2306 1092 0000 		sts magState,__zero_reg__
 6122               	.LM903:
 6123 230a 9093 0000 		sts prepare,r25
 6124               	.LM904:
 6125 230e 1092 0000 		sts ph_track,__zero_reg__
 6126               	.LM905:
 6127 2312 1092 0000 		sts buffNum,__zero_reg__
 6128               	.LM906:
 6129 2316 1092 0000 		sts formatting,__zero_reg__
 6130               	.LM907:
 6131 231a 80E0      		ldi r24,lo8(writeData)
 6132 231c 90E0      		ldi r25,hi8(writeData)
 6133 231e 9093 0000 		sts writePtr+1,r25
 6134 2322 8093 0000 		sts writePtr,r24
 6135               	.LM908:
 6136 2326 0E94 0000 		call lcd_init
 6137               	.LM909:
 6138 232a 0E94 0000 		call lcd_clear
 6139               	.LM910:
 6140 232e 80E0      		ldi r24,lo8(MSG1)
 6141 2330 90E0      		ldi r25,hi8(MSG1)
 6142 2332 0E94 0000 		call lcd_puts_p
 6143               	.LM911:
 6144 2336 80E0      		ldi r24,lo8(0)
 6145 2338 61E0      		ldi r22,lo8(1)
 6146 233a 0E94 0000 		call lcd_gotoxy
 6147               	.LM912:
 6148 233e 80E0      		ldi r24,lo8(MSG2)
 6149 2340 90E0      		ldi r25,hi8(MSG2)
 6150 2342 0E94 0000 		call lcd_puts_p
 6151               	.LVL462:
 6152               	.LBB123:
 6153               	.LBB124:
 6154               	.LM913:
 6155 2346 8FE3      		 ldi r24,lo8(4999999)
 6156 2348 9BE4      	    ldi r25,hi8(4999999)
 6157 234a ACE4      	    ldi r26,hlo8(4999999)
 6158 234c 8150      	    1:subi r24,1
 6159 234e 9040      	    sbci r25,0
 6160 2350 A040      	    sbci r26,0
 6161 2352 01F4      	    brne 1b
 6162 2354 00C0      		rjmp .
 6163 2356 0000      		nop
 6164               	.LBE124:
 6165               	.LBE123:
 6166               	.LM914:
 6167 2358 E0E2      		ldi r30,lo8(32)
 6168 235a FE2E      		mov r15,r30
 6169               	.LM915:
 6170 235c 70E3      		ldi r23,lo8(48)
 6171 235e E72E      		mov r14,r23
 6172               	.LBB125:
 6173               	.LM916:
 6174 2360 63E2      		ldi r22,lo8(35)
 6175 2362 A62E      		mov r10,r22
 6176 2364 B12C      		mov r11,__zero_reg__
 6177               	.LBE125:
 6178               	.LBB126:
 6179               	.LBB127:
 6180               	.LM917:
 6181 2366 5BE8      		ldi r21,lo8(-117)
 6182 2368 952E      		mov r9,r21
 6183               	.L383:
 6184               	.LBE127:
 6185               	.LBE126:
 6186               	.LM918:
 6187 236a 0E94 0000 		call check_eject
 6188               	.LM919:
 6189 236e 309B      		sbis 38-32,0
 6190 2370 00C0      		rjmp .L363
 6191               	.L385:
 6192               	.LM920:
 6193 2372 F5B8      		out 37-32,r15
 6194               	.LM921:
 6195 2374 0E94 0000 		call check_eject
 6196               	.LM922:
 6197 2378 3099      		sbic 38-32,0
 6198 237a 00C0      		rjmp .L385
 6199               	.L363:
 6200               	.LM923:
 6201 237c E5B8      		out 37-32,r14
 6202               	.LM924:
 6203 237e 83B1      		in r24,35-32
 6204 2380 8F70      		andi r24,lo8(15)
 6205 2382 8093 0000 		sts stp.2169,r24
 6206               	.LM925:
 6207 2386 9091 0000 		lds r25,oldStp.2168
 6208 238a 8917      		cp r24,r25
 6209 238c 01F0      		breq .L365
 6210               	.LBB130:
 6211               	.LM926:
 6212 238e 8093 0000 		sts oldStp.2168,r24
 6213               	.LM927:
 6214 2392 8830      		cpi r24,lo8(8)
 6215 2394 01F4      		brne .+2
 6216 2396 00C0      		rjmp .L378
 6217               	.LM928:
 6218 2398 8430      		cpi r24,lo8(4)
 6219 239a 01F4      		brne .+2
 6220 239c 00C0      		rjmp .L379
 6221               	.LM929:
 6222 239e 8230      		cpi r24,lo8(2)
 6223 23a0 01F4      		brne .+2
 6224 23a2 00C0      		rjmp .L380
 6225               	.LM930:
 6226 23a4 8130      		cpi r24,lo8(1)
 6227 23a6 01F4      		brne .+2
 6228 23a8 00C0      		rjmp .L386
 6229               	.L365:
 6230               	.LBE130:
 6231               	.LM931:
 6232 23aa 8091 0000 		lds r24,inited
 6233 23ae 8823      		tst r24
 6234 23b0 01F0      		breq .L383
 6235               	.LM932:
 6236 23b2 8091 0000 		lds r24,prepare
 6237 23b6 8823      		tst r24
 6238 23b8 01F0      		breq .L383
 6239               	.LM933:
 6240               	/* #APP */
 6241               	 ;  1376 "sdisk2.c" 1
 6242 23ba F894      		cli
 6243               	 ;  0 "" 2
 6244               	.LM934:
 6245               	/* #NOAPP */
 6246 23bc 3091 0000 		lds r19,sector
 6247 23c0 3F5F      		subi r19,lo8(-(1))
 6248 23c2 3F70      		andi r19,lo8(15)
 6249 23c4 3093 0000 		sts sector,r19
 6250               	.LBB131:
 6251               	.LM935:
 6252 23c8 1091 0000 		lds r17,ph_track
 6253 23cc 1695      		lsr r17
 6254 23ce 1695      		lsr r17
 6255               	.LVL463:
 6256               	.LM936:
 6257 23d0 C12F      		mov r28,r17
 6258 23d2 D0E0      		ldi r29,lo8(0)
 6259 23d4 C295      		swap r28
 6260 23d6 D295      		swap r29
 6261 23d8 D07F      		andi r29,0xf0
 6262 23da DC27      		eor r29,r28
 6263 23dc C07F      		andi r28,0xf0
 6264 23de DC27      		eor r29,r28
 6265 23e0 C30F      		add r28,r19
 6266 23e2 D11D      		adc r29,__zero_reg__
 6267               	.LVL464:
 6268               	.LM937:
 6269 23e4 E091 0000 		lds r30,sectorsPerCluster2
 6270 23e8 6E01      		movw r12,r28
 6271 23ea 0E2E      		mov r0,r30
 6272 23ec 00C0      		rjmp 2f
 6273 23ee D694      	1:	lsr r13
 6274 23f0 C794      		ror r12
 6275 23f2 0A94      	2:	dec r0
 6276 23f4 02F4      		brpl 1b
 6277               	.LVL465:
 6278               	.LM938:
 6279 23f6 C601      		movw r24,r12
 6280 23f8 B501      		movw r22,r10
 6281 23fa 0E94 0000 		call __udivmodhi4
 6282 23fe 262F      		mov r18,r22
 6283               	.LVL466:
 6284               	.LM939:
 6285 2400 8091 0000 		lds r24,prevFatNumNic
 6286 2404 8617      		cp r24,r22
 6287 2406 01F0      		breq .L371
 6288               	.LM940:
 6289 2408 6093 0000 		sts prevFatNumNic,r22
 6290               	.LM941:
 6291 240c 4091 0000 		lds r20,sectorsPerCluster
 6292 2410 50E0      		ldi r21,lo8(0)
 6293 2412 415D      		subi r20,lo8(-(559))
 6294 2414 5D4F      		sbci r21,hi8(-(559))
 6295 2416 00C0      		rjmp 2f
 6296 2418 5595      	1:	asr r21
 6297 241a 4795      		ror r20
 6298 241c EA95      	2:	dec r30
 6299 241e 02F4      		brpl 1b
 6300 2420 8091 0000 		lds r24,nicDir
 6301 2424 9091 0000 		lds r25,nicDir+1
 6302 2428 60E0      		ldi r22,lo8(fatNic)
 6303 242a 70E0      		ldi r23,hi8(fatNic)
 6304               	.LVL467:
 6305 242c 03E2      		ldi r16,lo8(35)
 6306 242e 0E94 0000 		call prepareFat
 6307               	.LVL468:
 6308 2432 3091 0000 		lds r19,sector
 6309               	.L371:
 6310               	.LM942:
 6311 2436 C601      		movw r24,r12
 6312 2438 B501      		movw r22,r10
 6313 243a 0E94 0000 		call __udivmodhi4
 6314 243e 880F      		lsl r24
 6315 2440 991F      		rol r25
 6316 2442 8050      		subi r24,lo8(-(fatNic))
 6317 2444 9040      		sbci r25,hi8(-(fatNic))
 6318 2446 DC01      		movw r26,r24
 6319 2448 CD90      		ld r12,X+
 6320 244a DC90      		ld r13,X
 6321 244c 1197      		sbiw r26,1
 6322               	.LVL469:
 6323               	.LM943:
 6324 244e 8091 0000 		lds r24,sectors
 6325               	.LVL470:
 6326 2452 8317      		cp r24,r19
 6327 2454 01F4      		brne .+2
 6328 2456 00C0      		rjmp .L387
 6329               	.L372:
 6330               	.LM944:
 6331 2458 8091 0000 		lds r24,sectors+1
 6332 245c 8317      		cp r24,r19
 6333 245e 01F4      		brne .+2
 6334 2460 00C0      		rjmp .L388
 6335               	.LM945:
 6336 2462 8091 0000 		lds r24,sectors+2
 6337 2466 8317      		cp r24,r19
 6338 2468 01F4      		brne .+2
 6339 246a 00C0      		rjmp .L389
 6340               	.L375:
 6341               	.LM946:
 6342 246c 8091 0000 		lds r24,sectors+3
 6343 2470 8317      		cp r24,r19
 6344 2472 01F4      		brne .+2
 6345 2474 00C0      		rjmp .L390
 6346               	.L376:
 6347               	.LM947:
 6348 2476 8091 0000 		lds r24,sectors+4
 6349 247a 8317      		cp r24,r19
 6350 247c 01F4      		brne .+2
 6351 247e 00C0      		rjmp .L391
 6352               	.LVL471:
 6353               	.L377:
 6354               	.LM948:
 6355 2480 B601      		movw r22,r12
 6356 2482 6250      		subi r22,lo8(-(-2))
 6357 2484 7040      		sbci r23,hi8(-(-2))
 6358 2486 80E0      		ldi r24,lo8(0)
 6359 2488 90E0      		ldi r25,hi8(0)
 6360 248a 0090 0000 		lds r0,sectorsPerCluster2
 6361 248e 00C0      		rjmp 2f
 6362 2490 660F      	1:	lsl r22
 6363 2492 771F      		rol r23
 6364 2494 881F      		rol r24
 6365 2496 991F      		rol r25
 6366 2498 0A94      	2:	dec r0
 6367 249a 02F4      		brpl 1b
 6368               	.LM949:
 6369 249c 2091 0000 		lds r18,sectorsPerCluster
 6370 24a0 30E0      		ldi r19,lo8(0)
 6371 24a2 2150      		subi r18,lo8(-(-1))
 6372 24a4 3040      		sbci r19,hi8(-(-1))
 6373 24a6 2C23      		and r18,r28
 6374 24a8 3D23      		and r19,r29
 6375 24aa 40E0      		ldi r20,lo8(0)
 6376 24ac 50E0      		ldi r21,hi8(0)
 6377 24ae 620F      		add r22,r18
 6378 24b0 731F      		adc r23,r19
 6379 24b2 841F      		adc r24,r20
 6380 24b4 951F      		adc r25,r21
 6381 24b6 09E0      		ldi r16,9
 6382 24b8 660F      	1:	lsl r22
 6383 24ba 771F      		rol r23
 6384 24bc 881F      		rol r24
 6385 24be 991F      		rol r25
 6386 24c0 0A95      		dec r16
 6387 24c2 01F4      		brne 1b
 6388               	.LM950:
 6389 24c4 2091 0000 		lds r18,userAddr
 6390 24c8 3091 0000 		lds r19,userAddr+1
 6391 24cc 4091 0000 		lds r20,userAddr+2
 6392 24d0 5091 0000 		lds r21,userAddr+3
 6393 24d4 620F      		add r22,r18
 6394 24d6 731F      		adc r23,r19
 6395 24d8 841F      		adc r24,r20
 6396 24da 951F      		adc r25,r21
 6397 24dc 0E94 0000 		call cmd17Fast
 6398               	.LM951:
 6399 24e0 1092 0000 		sts bitbyte+1,__zero_reg__
 6400 24e4 1092 0000 		sts bitbyte,__zero_reg__
 6401               	.LM952:
 6402 24e8 1092 0000 		sts prepare,__zero_reg__
 6403               	.LBE131:
 6404               	.LM953:
 6405               	/* #APP */
 6406               	 ;  1403 "sdisk2.c" 1
 6407 24ec 7894      		sei
 6408               	 ;  0 "" 2
 6409               	/* #NOAPP */
 6410 24ee 00C0      		rjmp .L383
 6411               	.LVL472:
 6412               	.L378:
 6413               	.LBB132:
 6414               	.LM954:
 6415 24f0 92E0      		ldi r25,lo8(2)
 6416               	.L366:
 6417               	.LVL473:
 6418               	.LBB129:
 6419               	.LM955:
 6420 24f2 8091 0000 		lds r24,ph_track
 6421 24f6 980F      		add r25,r24
 6422               	.LVL474:
 6423 24f8 9770      		andi r25,lo8(7)
 6424               	.LVL475:
 6425               	.LBB128:
 6426               	.LM956:
 6427 24fa E92F      		mov r30,r25
 6428 24fc E695      		lsr r30
 6429 24fe F0E0      		ldi r31,lo8(0)
 6430 2500 E050      		subi r30,lo8(-(stepper_table))
 6431 2502 F040      		sbci r31,hi8(-(stepper_table))
 6432               	/* #APP */
 6433               	 ;  1362 "sdisk2.c" 1
 6434 2504 E491      		lpm r30, Z
 6435               		
 6436               	 ;  0 "" 2
 6437               	.LVL476:
 6438               	/* #NOAPP */
 6439               	.LBE128:
 6440               	.LM957:
 6441 2506 90FF      		sbrs r25,0
 6442               	.LM958:
 6443 2508 E295      		swap r30
 6444               	.LVL477:
 6445               	.L384:
 6446 250a EF70      		andi r30,lo8(15)
 6447               	.LVL478:
 6448               	.LM959:
 6449 250c E3FD      		sbrc r30,3
 6450               	.LM960:
 6451 250e E86F      		ori r30,lo8(-8)
 6452               	.LVL479:
 6453               	.L369:
 6454               	.LM961:
 6455 2510 E80F      		add r30,r24
 6456 2512 E093 0000 		sts ph_track,r30
 6457               	.LM962:
 6458 2516 E53C      		cpi r30,lo8(-59)
 6459 2518 00F0      		brlo .L370
 6460               	.LM963:
 6461 251a 1092 0000 		sts ph_track,__zero_reg__
 6462 251e 00C0      		rjmp .L365
 6463               	.L370:
 6464               	.LM964:
 6465 2520 EC38      		cpi r30,lo8(-116)
 6466 2522 00F4      		brsh .+2
 6467 2524 00C0      		rjmp .L365
 6468               	.LM965:
 6469 2526 9092 0000 		sts ph_track,r9
 6470 252a 00C0      		rjmp .L365
 6471               	.LVL480:
 6472               	.L379:
 6473               	.LBE129:
 6474               	.LM966:
 6475 252c 94E0      		ldi r25,lo8(4)
 6476 252e 00C0      		rjmp .L366
 6477               	.L380:
 6478 2530 96E0      		ldi r25,lo8(6)
 6479 2532 00C0      		rjmp .L366
 6480               	.L386:
 6481 2534 90E0      		ldi r25,lo8(0)
 6482 2536 00C0      		rjmp .L366
 6483               	.LVL481:
 6484               	.L387:
 6485               	.LBE132:
 6486               	.LBB133:
 6487               	.LM967:
 6488 2538 8091 0000 		lds r24,tracks
 6489 253c 8117      		cp r24,r17
 6490 253e 01F0      		breq .+2
 6491 2540 00C0      		rjmp .L372
 6492               	.L373:
 6493               	.LM968:
 6494 2542 0E94 0000 		call writeBackSub
 6495 2546 00C0      		rjmp .L377
 6496               	.L388:
 6497               	.LM969:
 6498 2548 8091 0000 		lds r24,tracks+1
 6499 254c 8117      		cp r24,r17
 6500 254e 01F0      		breq .L373
 6501               	.LM970:
 6502 2550 8091 0000 		lds r24,sectors+2
 6503 2554 8317      		cp r24,r19
 6504 2556 01F0      		breq .+2
 6505 2558 00C0      		rjmp .L375
 6506               	.L389:
 6507               	.LM971:
 6508 255a 8091 0000 		lds r24,tracks+2
 6509 255e 8117      		cp r24,r17
 6510 2560 01F0      		breq .L373
 6511               	.LM972:
 6512 2562 8091 0000 		lds r24,sectors+3
 6513 2566 8317      		cp r24,r19
 6514 2568 01F0      		breq .+2
 6515 256a 00C0      		rjmp .L376
 6516               	.L390:
 6517               	.LM973:
 6518 256c 8091 0000 		lds r24,tracks+3
 6519 2570 8117      		cp r24,r17
 6520 2572 01F0      		breq .L373
 6521               	.LM974:
 6522 2574 8091 0000 		lds r24,sectors+4
 6523 2578 8317      		cp r24,r19
 6524 257a 01F0      		breq .+2
 6525 257c 00C0      		rjmp .L377
 6526               	.L391:
 6527               	.LM975:
 6528 257e 8091 0000 		lds r24,tracks+4
 6529 2582 8117      		cp r24,r17
 6530 2584 01F0      		breq .+2
 6531 2586 00C0      		rjmp .L377
 6532               	.LM976:
 6533 2588 0E94 0000 		call writeBackSub
 6534 258c 00C0      		rjmp .L377
 6535               	.LBE133:
 6536               	.LFE39:
 6538               	.global	writeBack
 6540               	writeBack:
 6541               	.LFB42:
 6542               	.LM977:
 6543 258e CF93      		push r28
 6544 2590 DF93      		push r29
 6545               	/* prologue: function */
 6546               	/* frame size = 0 */
 6547               	/* stack size = 2 */
 6548               	.L__stack_usage = 2
 6549               	.LM978:
 6550 2592 4B99      		sbic 41-32,3
 6551 2594 00C0      		rjmp .L392
 6552               	.LM979:
 6553 2596 3091 0000 		lds r19,buffNum
 6554 259a 832F      		mov r24,r19
 6555 259c 90E0      		ldi r25,lo8(0)
 6556 259e CEE5      		ldi r28,lo8(350)
 6557 25a0 D1E0      		ldi r29,hi8(350)
 6558 25a2 8C9F      		mul r24,r28
 6559 25a4 F001      		movw r30,r0
 6560 25a6 8D9F      		mul r24,r29
 6561 25a8 F00D      		add r31,r0
 6562 25aa 9C9F      		mul r25,r28
 6563 25ac F00D      		add r31,r0
 6564 25ae 1124      		clr r1
 6565 25b0 E050      		subi r30,lo8(-(writeData))
 6566 25b2 F040      		sbci r31,hi8(-(writeData))
 6567 25b4 2281      		ldd r18,Z+2
 6568 25b6 2D3A      		cpi r18,lo8(-83)
 6569 25b8 01F0      		breq .L400
 6570               	.L394:
 6571               	.LM980:
 6572 25ba 2639      		cpi r18,lo8(-106)
 6573 25bc 01F0      		breq .L401
 6574               	.L392:
 6575               	/* epilogue start */
 6576               	.LM981:
 6577 25be DF91      		pop r29
 6578 25c0 CF91      		pop r28
 6579 25c2 0895      		ret
 6580               	.L401:
 6581               	.LM982:
 6582 25c4 2EE5      		ldi r18,lo8(350)
 6583 25c6 31E0      		ldi r19,hi8(350)
 6584 25c8 829F      		mul r24,r18
 6585 25ca F001      		movw r30,r0
 6586 25cc 839F      		mul r24,r19
 6587 25ce F00D      		add r31,r0
 6588 25d0 929F      		mul r25,r18
 6589 25d2 F00D      		add r31,r0
 6590 25d4 1124      		clr r1
 6591 25d6 E050      		subi r30,lo8(-(writeData))
 6592 25d8 F040      		sbci r31,hi8(-(writeData))
 6593 25da 8781      		ldd r24,Z+7
 6594 25dc 90E0      		ldi r25,lo8(0)
 6595 25de 8575      		andi r24,lo8(85)
 6596 25e0 9070      		andi r25,hi8(85)
 6597 25e2 880F      		lsl r24
 6598 25e4 991F      		rol r25
 6599 25e6 2085      		ldd r18,Z+8
 6600 25e8 2575      		andi r18,lo8(85)
 6601 25ea 282B      		or r18,r24
 6602 25ec 2093 0000 		sts sec.2222,r18
 6603               	.LM983:
 6604 25f0 81E0      		ldi r24,lo8(1)
 6605 25f2 8093 0000 		sts formatting,r24
 6606               	/* epilogue start */
 6607               	.LM984:
 6608 25f6 DF91      		pop r29
 6609 25f8 CF91      		pop r28
 6610 25fa 0895      		ret
 6611               	.L400:
 6612               	.LM985:
 6613 25fc 2091 0000 		lds r18,formatting
 6614 2600 2223      		tst r18
 6615 2602 01F4      		brne .L395
 6616               	.LM986:
 6617 2604 2091 0000 		lds r18,sector
 6618 2608 FC01      		movw r30,r24
 6619 260a E050      		subi r30,lo8(-(sectors))
 6620 260c F040      		sbci r31,hi8(-(sectors))
 6621 260e 2083      		st Z,r18
 6622               	.LM987:
 6623 2610 FC01      		movw r30,r24
 6624 2612 E050      		subi r30,lo8(-(tracks))
 6625 2614 F040      		sbci r31,hi8(-(tracks))
 6626 2616 8091 0000 		lds r24,ph_track
 6627 261a 8695      		lsr r24
 6628 261c 8695      		lsr r24
 6629 261e 8083      		st Z,r24
 6630               	.LM988:
 6631 2620 2F30      		cpi r18,lo8(15)
 6632 2622 01F0      		breq .L396
 6633               	.LM989:
 6634 2624 2D30      		cpi r18,lo8(13)
 6635 2626 01F0      		breq .L396
 6636               	.LM990:
 6637 2628 2F5F      		subi r18,lo8(-(1))
 6638 262a 2F70      		andi r18,lo8(15)
 6639               	.L398:
 6640               	.LM991:
 6641 262c 2093 0000 		sts sector,r18
 6642               	.LM992:
 6643 2630 3430      		cpi r19,lo8(4)
 6644 2632 01F0      		breq .L402
 6645               	.LM993:
 6646 2634 3F5F      		subi r19,lo8(-(1))
 6647 2636 3093 0000 		sts buffNum,r19
 6648               	.LM994:
 6649 263a 832F      		mov r24,r19
 6650 263c 90E0      		ldi r25,lo8(0)
 6651 263e 2EE5      		ldi r18,lo8(350)
 6652 2640 31E0      		ldi r19,hi8(350)
 6653 2642 829F      		mul r24,r18
 6654 2644 F001      		movw r30,r0
 6655 2646 839F      		mul r24,r19
 6656 2648 F00D      		add r31,r0
 6657 264a 929F      		mul r25,r18
 6658 264c F00D      		add r31,r0
 6659 264e 1124      		clr r1
 6660 2650 E050      		subi r30,lo8(-(writeData))
 6661 2652 F040      		sbci r31,hi8(-(writeData))
 6662 2654 F093 0000 		sts writePtr+1,r31
 6663 2658 E093 0000 		sts writePtr,r30
 6664 265c 2281      		ldd r18,Z+2
 6665 265e 00C0      		rjmp .L394
 6666               	.L395:
 6667               	.LM995:
 6668 2660 8091 0000 		lds r24,sec.2222
 6669 2664 8093 0000 		sts sector,r24
 6670               	.LM996:
 6671 2668 1092 0000 		sts formatting,__zero_reg__
 6672               	.LM997:
 6673 266c 8F30      		cpi r24,lo8(15)
 6674 266e 01F0      		breq .+2
 6675 2670 00C0      		rjmp .L392
 6676               	.LM998:
 6677 2672 0E94 0000 		call cancelRead
 6678               	.LM999:
 6679 2676 81E0      		ldi r24,lo8(1)
 6680 2678 8093 0000 		sts prepare,r24
 6681 267c 8091 0000 		lds r24,buffNum
 6682 2680 90E0      		ldi r25,lo8(0)
 6683 2682 8C9F      		mul r24,r28
 6684 2684 F001      		movw r30,r0
 6685 2686 8D9F      		mul r24,r29
 6686 2688 F00D      		add r31,r0
 6687 268a 9C9F      		mul r25,r28
 6688 268c F00D      		add r31,r0
 6689 268e 1124      		clr r1
 6690 2690 E050      		subi r30,lo8(-(writeData))
 6691 2692 F040      		sbci r31,hi8(-(writeData))
 6692 2694 2281      		ldd r18,Z+2
 6693 2696 00C0      		rjmp .L394
 6694               	.L396:
 6695               	.LM1000:
 6696 2698 2E5F      		subi r18,lo8(-(2))
 6697 269a 2F70      		andi r18,lo8(15)
 6698 269c 00C0      		rjmp .L398
 6699               	.L402:
 6700               	.LM1001:
 6701 269e 0E94 0000 		call cancelRead
 6702               	.LM1002:
 6703 26a2 0E94 0000 		call writeBackSub
 6704               	.LM1003:
 6705 26a6 81E0      		ldi r24,lo8(1)
 6706 26a8 8093 0000 		sts prepare,r24
 6707 26ac 8091 0000 		lds r24,buffNum
 6708 26b0 90E0      		ldi r25,lo8(0)
 6709 26b2 2EE5      		ldi r18,lo8(350)
 6710 26b4 31E0      		ldi r19,hi8(350)
 6711 26b6 829F      		mul r24,r18
 6712 26b8 F001      		movw r30,r0
 6713 26ba 839F      		mul r24,r19
 6714 26bc F00D      		add r31,r0
 6715 26be 929F      		mul r25,r18
 6716 26c0 F00D      		add r31,r0
 6717 26c2 1124      		clr r1
 6718 26c4 E050      		subi r30,lo8(-(writeData))
 6719 26c6 F040      		sbci r31,hi8(-(writeData))
 6720 26c8 2281      		ldd r18,Z+2
 6721 26ca 00C0      		rjmp .L394
 6722               	.LFE42:
 6724               	.global	volume
 6725               		.data
 6728               	volume:
 6729 000c FE        		.byte	-2
 6730               	.global	stepper_table
 6731               		.section	.progmem.data,"a",@progbits
 6734               	stepper_table:
 6735 0000 0F        		.byte	15
 6736 0001 ED        		.byte	-19
 6737 0002 03        		.byte	3
 6738 0003 21        		.byte	33
 6739               	.global	encTable
 6742               	encTable:
 6743 0004 96        		.byte	-106
 6744 0005 97        		.byte	-105
 6745 0006 9A        		.byte	-102
 6746 0007 9B        		.byte	-101
 6747 0008 9D        		.byte	-99
 6748 0009 9E        		.byte	-98
 6749 000a 9F        		.byte	-97
 6750 000b A6        		.byte	-90
 6751 000c A7        		.byte	-89
 6752 000d AB        		.byte	-85
 6753 000e AC        		.byte	-84
 6754 000f AD        		.byte	-83
 6755 0010 AE        		.byte	-82
 6756 0011 AF        		.byte	-81
 6757 0012 B2        		.byte	-78
 6758 0013 B3        		.byte	-77
 6759 0014 B4        		.byte	-76
 6760 0015 B5        		.byte	-75
 6761 0016 B6        		.byte	-74
 6762 0017 B7        		.byte	-73
 6763 0018 B9        		.byte	-71
 6764 0019 BA        		.byte	-70
 6765 001a BB        		.byte	-69
 6766 001b BC        		.byte	-68
 6767 001c BD        		.byte	-67
 6768 001d BE        		.byte	-66
 6769 001e BF        		.byte	-65
 6770 001f CB        		.byte	-53
 6771 0020 CD        		.byte	-51
 6772 0021 CE        		.byte	-50
 6773 0022 CF        		.byte	-49
 6774 0023 D3        		.byte	-45
 6775 0024 D6        		.byte	-42
 6776 0025 D7        		.byte	-41
 6777 0026 D9        		.byte	-39
 6778 0027 DA        		.byte	-38
 6779 0028 DB        		.byte	-37
 6780 0029 DC        		.byte	-36
 6781 002a DD        		.byte	-35
 6782 002b DE        		.byte	-34
 6783 002c DF        		.byte	-33
 6784 002d E5        		.byte	-27
 6785 002e E6        		.byte	-26
 6786 002f E7        		.byte	-25
 6787 0030 E9        		.byte	-23
 6788 0031 EA        		.byte	-22
 6789 0032 EB        		.byte	-21
 6790 0033 EC        		.byte	-20
 6791 0034 ED        		.byte	-19
 6792 0035 EE        		.byte	-18
 6793 0036 EF        		.byte	-17
 6794 0037 F2        		.byte	-14
 6795 0038 F3        		.byte	-13
 6796 0039 F4        		.byte	-12
 6797 003a F5        		.byte	-11
 6798 003b F6        		.byte	-10
 6799 003c F7        		.byte	-9
 6800 003d F9        		.byte	-7
 6801 003e FA        		.byte	-6
 6802 003f FB        		.byte	-5
 6803 0040 FC        		.byte	-4
 6804 0041 FD        		.byte	-3
 6805 0042 FE        		.byte	-2
 6806 0043 FF        		.byte	-1
 6807               	.global	physicalSector
 6810               	physicalSector:
 6811 0044 00        		.byte	0
 6812 0045 0D        		.byte	13
 6813 0046 0B        		.byte	11
 6814 0047 09        		.byte	9
 6815 0048 07        		.byte	7
 6816 0049 05        		.byte	5
 6817 004a 03        		.byte	3
 6818 004b 01        		.byte	1
 6819 004c 0E        		.byte	14
 6820 004d 0C        		.byte	12
 6821 004e 0A        		.byte	10
 6822 004f 08        		.byte	8
 6823 0050 06        		.byte	6
 6824 0051 04        		.byte	4
 6825 0052 02        		.byte	2
 6826 0053 0F        		.byte	15
 6827               	.global	FlipBit
 6830               	FlipBit:
 6831 0054 00        		.byte	0
 6832 0055 02        		.byte	2
 6833 0056 01        		.byte	1
 6834 0057 03        		.byte	3
 6835               	.global	FlipBit1
 6838               	FlipBit1:
 6839 0058 00        		.byte	0
 6840 0059 02        		.byte	2
 6841 005a 01        		.byte	1
 6842 005b 03        		.byte	3
 6843               	.global	FlipBit2
 6846               	FlipBit2:
 6847 005c 00        		.byte	0
 6848 005d 08        		.byte	8
 6849 005e 04        		.byte	4
 6850 005f 0C        		.byte	12
 6851               	.global	FlipBit3
 6854               	FlipBit3:
 6855 0060 00        		.byte	0
 6856 0061 20        		.byte	32
 6857 0062 10        		.byte	16
 6858 0063 30        		.byte	48
 6859               	.global	MSG1
 6862               	MSG1:
 6863 0064 2020 2053 		.string	"   SDISK2 LCD   "
 6863      4449 534B 
 6863      3220 4C43 
 6863      4420 2020 
 6863      00
 6864               	.global	MSG2
 6867               	MSG2:
 6868 0075 2062 7920 		.string	" by Apple II BR "
 6868      4170 706C 
 6868      6520 4949 
 6868      2042 5220 
 6868      00
 6869               	.global	MSG3
 6872               	MSG3:
 6873 0086 4D6F 756E 		.string	"Mounted "
 6873      7465 6420 
 6873      00
 6874               	.global	MSG4
 6877               	MSG4:
 6878 008f 2044 6973 		.string	" Disk : "
 6878      6B20 3A20 
 6878      00
 6879               	.global	MSG5
 6882               	MSG5:
 6883 0098 4C6F 6164 		.string	"Load   Directory"
 6883      2020 2044 
 6883      6972 6563 
 6883      746F 7279 
 6883      00
 6884               	.global	MSG6
 6887               	MSG6:
 6888 00a9 5365 6C65 		.string	"Select a Disk : "
 6888      6374 2061 
 6888      2044 6973 
 6888      6B20 3A20 
 6888      00
 6889               	.global	MSG7
 6892               	MSG7:
 6893 00ba 4C6F 6164 		.string	"Loading ........"
 6893      696E 6720 
 6893      2E2E 2E2E 
 6893      2E2E 2E2E 
 6893      00
 6894               	.global	MSG8
 6897               	MSG8:
 6898 00cb 2020 204E 		.string	"   No SD Card   "
 6898      6F20 5344 
 6898      2043 6172 
 6898      6420 2020 
 6898      00
 6899               		.comm bpbAddr,4,1
 6900               		.comm rootAddr,4,1
 6901               		.comm fatAddr,4,1
 6902               		.comm sectorsPerCluster,1,1
 6903               		.comm sectorsPerCluster2,1,1
 6904               		.comm sectorsPerFat,2,1
 6905               		.comm userAddr,4,1
 6906               		.comm fatNic,70,1
 6907               		.comm prevFatNumDsk,1,1
 6908               		.comm prevFatNumNic,1,1
 6909               		.comm nicDir,2,1
 6910               		.comm dskDir,2,1
 6911               		.comm btfDir,2,1
 6912               		.comm ph_track,1,1
 6913               		.comm sector,1,1
 6914               		.comm bitbyte,2,1
 6915               		.comm prepare,1,1
 6916               		.comm readPulse,1,1
 6917               		.comm inited,1,1
 6918               		.comm magState,1,1
 6919               		.comm protect,1,1
 6920               		.comm formatting,1,1
 6921               		.comm writeData,1750,1
 6922               		.comm sectors,5,1
 6923               		.comm tracks,5,1
 6924               		.comm buffNum,1,1
 6925               		.comm writePtr,2,1
 6926               		.lcomm sec.2222,1
 6927               		.lcomm stp.2169,1
 6928               		.lcomm oldStp.2168,1
 6929               		.data
 6932               	f.2151:
 6933 000d 01        		.byte	1
 6936               	last.1979:
 6937 000e FF        		.byte	-1
 6938 000f FF        		.byte	-1
 7259               	.Letext0:
DEFINED SYMBOLS
                            *ABS*:00000000 sdisk2.c
C:\Users\Admin\AppData\Local\Temp\cc3V1xOP.s:2      *ABS*:0000003f __SREG__
C:\Users\Admin\AppData\Local\Temp\cc3V1xOP.s:3      *ABS*:0000003e __SP_H__
C:\Users\Admin\AppData\Local\Temp\cc3V1xOP.s:4      *ABS*:0000003d __SP_L__
C:\Users\Admin\AppData\Local\Temp\cc3V1xOP.s:5      *ABS*:00000034 __CCP__
C:\Users\Admin\AppData\Local\Temp\cc3V1xOP.s:6      *ABS*:00000000 __tmp_reg__
C:\Users\Admin\AppData\Local\Temp\cc3V1xOP.s:7      *ABS*:00000001 __zero_reg__
C:\Users\Admin\AppData\Local\Temp\cc3V1xOP.s:18     .text:00000000 lcd_port
C:\Users\Admin\AppData\Local\Temp\cc3V1xOP.s:103    .text:00000046 lcd_cmd
C:\Users\Admin\AppData\Local\Temp\cc3V1xOP.s:167    .text:00000082 lcd_data
C:\Users\Admin\AppData\Local\Temp\cc3V1xOP.s:211    .text:000000aa lcd_init
C:\Users\Admin\AppData\Local\Temp\cc3V1xOP.s:320    .text:0000012c lcd_clear
C:\Users\Admin\AppData\Local\Temp\cc3V1xOP.s:340    .text:0000013a lcd_gotoxy
C:\Users\Admin\AppData\Local\Temp\cc3V1xOP.s:372    .text:00000150 lcd_char
C:\Users\Admin\AppData\Local\Temp\cc3V1xOP.s:390    .text:00000156 lcd_puts
C:\Users\Admin\AppData\Local\Temp\cc3V1xOP.s:432    .text:00000174 lcd_puts_p
C:\Users\Admin\AppData\Local\Temp\cc3V1xOP.s:496    .text:00000198 dispStr
C:\Users\Admin\AppData\Local\Temp\cc3V1xOP.s:6872   .progmem.data:00000086 MSG3
C:\Users\Admin\AppData\Local\Temp\cc3V1xOP.s:6877   .progmem.data:0000008f MSG4
C:\Users\Admin\AppData\Local\Temp\cc3V1xOP.s:564    .text:000001de buffClear
                            *COM*:000006d6 writeData
                            *COM*:00000005 tracks
                            *COM*:00000005 sectors
C:\Users\Admin\AppData\Local\Temp\cc3V1xOP.s:634    .text:0000023e cancelRead
                            *COM*:00000002 bitbyte
C:\Users\Admin\AppData\Local\Temp\cc3V1xOP.s:701    .text:00000288 writeByteSlow
C:\Users\Admin\AppData\Local\Temp\cc3V1xOP.s:801    .text:00000302 writeByteFast
C:\Users\Admin\AppData\Local\Temp\cc3V1xOP.s:863    .text:00000336 readByteSlow
C:\Users\Admin\AppData\Local\Temp\cc3V1xOP.s:950    .text:0000039e readByteFast
C:\Users\Admin\AppData\Local\Temp\cc3V1xOP.s:1017   .text:000003de waitFinish
C:\Users\Admin\AppData\Local\Temp\cc3V1xOP.s:1040   .text:000003ec cmd_
C:\Users\Admin\AppData\Local\Temp\cc3V1xOP.s:1106   .text:0000044e getRespSlow
C:\Users\Admin\AppData\Local\Temp\cc3V1xOP.s:1134   .text:00000460 getRespFast
C:\Users\Admin\AppData\Local\Temp\cc3V1xOP.s:1162   .text:00000472 cmdFast
C:\Users\Admin\AppData\Local\Temp\cc3V1xOP.s:1229   .text:000004d2 cmd17Fast
C:\Users\Admin\AppData\Local\Temp\cc3V1xOP.s:1263   .text:000004ec getFileName
                            *COM*:00000004 rootAddr
C:\Users\Admin\AppData\Local\Temp\cc3V1xOP.s:1333   .text:00000556 findExt
C:\Users\Admin\AppData\Local\Temp\cc3V1xOP.s:1814   .text:00000880 prepareFat
                            *COM*:00000004 fatAddr
C:\Users\Admin\AppData\Local\Temp\cc3V1xOP.s:2033   .text:000009e2 memcp
C:\Users\Admin\AppData\Local\Temp\cc3V1xOP.s:2068   .text:00000a02 writeSD
C:\Users\Admin\AppData\Local\Temp\cc3V1xOP.s:2246   .text:00000b0e duplicateFat
                            *COM*:00000002 sectorsPerFat
C:\Users\Admin\AppData\Local\Temp\cc3V1xOP.s:2417   .text:00000c28 createFile
                            *COM*:00000001 sectorsPerCluster
                            *COM*:00000001 sectorsPerCluster2
C:\Users\Admin\AppData\Local\Temp\cc3V1xOP.s:6936   .data:0000000e last.1979
C:\Users\Admin\AppData\Local\Temp\cc3V1xOP.s:2859   .text:00000f28 dsk2Nic
                            *COM*:00000001 prevFatNumDsk
                            *COM*:00000001 prevFatNumNic
C:\Users\Admin\AppData\Local\Temp\cc3V1xOP.s:6810   .progmem.data:00000044 physicalSector
                            *COM*:00000002 dskDir
                            *COM*:00000004 userAddr
C:\Users\Admin\AppData\Local\Temp\cc3V1xOP.s:6854   .progmem.data:00000060 FlipBit3
C:\Users\Admin\AppData\Local\Temp\cc3V1xOP.s:6742   .progmem.data:00000004 encTable
C:\Users\Admin\AppData\Local\Temp\cc3V1xOP.s:6838   .progmem.data:00000058 FlipBit1
C:\Users\Admin\AppData\Local\Temp\cc3V1xOP.s:6846   .progmem.data:0000005c FlipBit2
                            *COM*:00000002 nicDir
                            *COM*:00000046 fatNic
C:\Users\Admin\AppData\Local\Temp\cc3V1xOP.s:3772   .text:00001452 makeFileNameList
C:\Users\Admin\AppData\Local\Temp\cc3V1xOP.s:6882   .progmem.data:00000098 MSG5
C:\Users\Admin\AppData\Local\Temp\cc3V1xOP.s:4169   .text:000016e6 chooseANicFile
C:\Users\Admin\AppData\Local\Temp\cc3V1xOP.s:6887   .progmem.data:000000a9 MSG6
C:\Users\Admin\AppData\Local\Temp\cc3V1xOP.s:4589   .text:000018fc init
                            *COM*:00000001 inited
                            *COM*:00000004 bpbAddr
                            *COM*:00000002 btfDir
C:\Users\Admin\AppData\Local\Temp\cc3V1xOP.s:6892   .progmem.data:000000ba MSG7
                            *COM*:00000001 protect
                            *COM*:00000001 readPulse
                            *COM*:00000001 magState
                            *COM*:00000001 prepare
                            *COM*:00000001 ph_track
                            *COM*:00000001 sector
                            *COM*:00000001 buffNum
                            *COM*:00000001 formatting
                            *COM*:00000002 writePtr
C:\Users\Admin\AppData\Local\Temp\cc3V1xOP.s:5351   .text:00001e9a check_eject
C:\Users\Admin\AppData\Local\Temp\cc3V1xOP.s:6932   .data:0000000d f.2151
C:\Users\Admin\AppData\Local\Temp\cc3V1xOP.s:6897   .progmem.data:000000cb MSG8
C:\Users\Admin\AppData\Local\Temp\cc3V1xOP.s:5536   .text:00001f7a writeBackSub2
C:\Users\Admin\AppData\Local\Temp\cc3V1xOP.s:5952   .text:00002214 writeBackSub
C:\Users\Admin\AppData\Local\Temp\cc3V1xOP.s:6062   .text:000022b2 main
C:\Users\Admin\AppData\Local\Temp\cc3V1xOP.s:6862   .progmem.data:00000064 MSG1
C:\Users\Admin\AppData\Local\Temp\cc3V1xOP.s:6867   .progmem.data:00000075 MSG2
C:\Users\Admin\AppData\Local\Temp\cc3V1xOP.s:6926   .bss:00000001 stp.2169
C:\Users\Admin\AppData\Local\Temp\cc3V1xOP.s:6927   .bss:00000002 oldStp.2168
C:\Users\Admin\AppData\Local\Temp\cc3V1xOP.s:6734   .progmem.data:00000000 stepper_table
C:\Users\Admin\AppData\Local\Temp\cc3V1xOP.s:6540   .text:0000258e writeBack
                             .bss:00000000 sec.2222
C:\Users\Admin\AppData\Local\Temp\cc3V1xOP.s:6728   .data:0000000c volume
C:\Users\Admin\AppData\Local\Temp\cc3V1xOP.s:6830   .progmem.data:00000054 FlipBit

UNDEFINED SYMBOLS
wait5
memcmp
__divmodhi4
__udivmodhi4
__do_copy_data
__do_clear_bss
